---
triple:          'arm64-apple-darwin'
binary-path:     '/Users/mengchengxi/Documents/code/C++C/competition/F. Ira and Flamenco'
relocations:
  - { offset: 0x28DE6, size: 0x8, addend: 0x0, symName: __ZStL8__ioinit, symObjAddr: 0xFBF65, symBinAddr: 0x100020228, symSize: 0x0 }
  - { offset: 0x2930B, size: 0x8, addend: 0x0, symName: __ZL3INF, symObjAddr: 0xDCEC, symBinAddr: 0x10001010C, symSize: 0x0 }
  - { offset: 0x29322, size: 0x8, addend: 0x0, symName: __ZL3mod, symObjAddr: 0xDCF0, symBinAddr: 0x100010110, symSize: 0x0 }
  - { offset: 0x29A32, size: 0x8, addend: 0x0, symName: __GLOBAL__sub_I_F._Ira_and_Flamenco.cpp, symObjAddr: 0x1133C, symBinAddr: 0x10000E50C, symSize: 0x14 }
  - { offset: 0x29A4A, size: 0x8, addend: 0x0, symName: __Z41__static_initialization_and_destruction_0v, symObjAddr: 0x11300, symBinAddr: 0x10000E4D0, symSize: 0x3C }
  - { offset: 0x29A62, size: 0x8, addend: 0x0, symName: __ZNSt10_Head_baseILm0ERKiLb0EE7_M_headERS2_, symObjAddr: 0xDCD0, symBinAddr: 0x10000E4B8, symSize: 0x18 }
  - { offset: 0x29A8B, size: 0x8, addend: 0x0, symName: __ZNSt11__copy_moveILb0ELb0ESt26random_access_iterator_tagE12__assign_oneIPiS3_EEvPT_PT0_, symObjAddr: 0xDCA8, symBinAddr: 0x10000E490, symSize: 0x28 }
  - { offset: 0x29AD8, size: 0x8, addend: 0x0, symName: __ZSt11__addressofIKN9__gnu_cxx17__normal_iteratorIPiNSt9__cxx19986vectorIiSaIiEEEEEEPT_RS9_, symObjAddr: 0xDC94, symBinAddr: 0x10000E47C, symSize: 0x14 }
  - { offset: 0x29B0A, size: 0x8, addend: 0x0, symName: __ZNSt11__copy_moveILb1ELb0ESt26random_access_iterator_tagE12__assign_oneIiiEEvPT_PT0_, symObjAddr: 0xDC64, symBinAddr: 0x10000E44C, symSize: 0x30 }
  - { offset: 0x29B57, size: 0x8, addend: 0x0, symName: __ZNSt11_Tuple_implILm0EJRKiEE7_M_headERS2_, symObjAddr: 0xDC48, symBinAddr: 0x10000E430, symSize: 0x1C }
  - { offset: 0x29B81, size: 0x8, addend: 0x0, symName: __ZNSt20__copy_move_backwardILb0ELb1ESt26random_access_iterator_tagE13__copy_move_bIPiS3_EEPT0_PT_S7_S5_, symObjAddr: 0xDB9C, symBinAddr: 0x10000E384, symSize: 0xAC }
  - { offset: 0x29BF0, size: 0x8, addend: 0x0, symName: __ZNSt11__copy_moveILb0ELb1ESt26random_access_iterator_tagE8__copy_mIPiS3_EEPT0_PT_S7_S5_, symObjAddr: 0xDB0C, symBinAddr: 0x10000E2F4, symSize: 0x90 }
  - { offset: 0x29C5F, size: 0x8, addend: 0x0, symName: __ZN11__gnu_debug14__get_distanceIPPiEENS_16_Distance_traitsIT_NSt12__is_integerIS4_E6__typeEE6__typeES4_S4_St26random_access_iterator_tag, symObjAddr: 0xDAC8, symBinAddr: 0x10000E2B0, symSize: 0x44 }
  - { offset: 0x29CC0, size: 0x8, addend: 0x0, symName: __ZNSt20__copy_move_backwardILb1ELb0ESt26random_access_iterator_tagE13__copy_move_bIN9__gnu_cxx17__normal_iteratorIPiNSt9__cxx19986vectorIiSaIiEEEEEN11__gnu_debug14_Safe_iteratorISA_NSt7__debug6vectorIiS8_EES0_EEEET0_T_SI_SH_, symObjAddr: 0xDA40, symBinAddr: 0x10000E228, symSize: 0x88 }
  - { offset: 0x29D30, size: 0x8, addend: 0x0, symName: __ZN11__gnu_debug17__valid_range_auxIN9__gnu_cxx17__normal_iteratorIPiNSt9__cxx19986vectorIiSaIiEEEEEEEbT_S9_St18input_iterator_tag, symObjAddr: 0xD9C8, symBinAddr: 0x10000E1B0, symSize: 0x78 }
  - { offset: 0x29D7B, size: 0x8, addend: 0x0, symName: __ZN11__gnu_debug16__check_singularIN9__gnu_cxx17__normal_iteratorIPiNSt9__cxx19986vectorIiSaIiEEEEEEEbRKT_, symObjAddr: 0xD978, symBinAddr: 0x10000E160, symSize: 0x50 }
  - { offset: 0x29DC6, size: 0x8, addend: 0x0, symName: __ZNSt20__copy_move_backwardILb1ELb1ESt26random_access_iterator_tagE13__copy_move_bIiiEEPT0_PT_S6_S4_, symObjAddr: 0xD8CC, symBinAddr: 0x10000E0B4, symSize: 0xAC }
  - { offset: 0x29E35, size: 0x8, addend: 0x0, symName: __ZSt11__addressofIKN11__gnu_debug14_Safe_iteratorIN9__gnu_cxx17__normal_iteratorIPiNSt9__cxx19986vectorIiSaIiEEEEENSt7__debug6vectorIiS7_EESt26bidirectional_iterator_tagEEEPT_RSG_, symObjAddr: 0xD8B8, symBinAddr: 0x10000E0A0, symSize: 0x14 }
  - { offset: 0x29E67, size: 0x8, addend: 0x0, symName: __ZSt12__get_helperILm0ERKiJEERT0_RSt11_Tuple_implIXT_EJS2_DpT1_EE, symObjAddr: 0xD89C, symBinAddr: 0x10000E084, symSize: 0x1C }
  - { offset: 0x29EA9, size: 0x8, addend: 0x0, symName: __ZSt9__fill_a1IPiiEN9__gnu_cxx11__enable_ifIXsrSt11__is_scalarIT0_E7__valueEvE6__typeET_S8_RKS4_, symObjAddr: 0xD844, symBinAddr: 0x10000E02C, symSize: 0x58 }
  - { offset: 0x29F18, size: 0x8, addend: 0x0, symName: __ZSt23__copy_move_backward_a2ILb0EPPiS1_ET1_T0_S3_S2_, symObjAddr: 0xD818, symBinAddr: 0x10000E000, symSize: 0x2C }
  - { offset: 0x29F80, size: 0x8, addend: 0x0, symName: __ZSt14__copy_move_a2ILb0EPPiS1_ET1_T0_S3_S2_, symObjAddr: 0xD7EC, symBinAddr: 0x10000DFD4, symSize: 0x2C }
  - { offset: 0x29FEE, size: 0x8, addend: 0x0, symName: __ZSt11__addressofIKPPiEPT_RS3_, symObjAddr: 0xD7D8, symBinAddr: 0x10000DFC0, symSize: 0x14 }
  - { offset: 0x2A020, size: 0x8, addend: 0x0, symName: __ZN11__gnu_debug14__get_distanceIPPiEENS_16_Distance_traitsIT_NSt12__is_integerIS4_E6__typeEE6__typeES4_S4_, symObjAddr: 0xD7B0, symBinAddr: 0x10000DF98, symSize: 0x28 }
  - { offset: 0x2A082, size: 0x8, addend: 0x0, symName: __ZN11__gnu_debug17__valid_range_auxIPPiEEbT_S3_St18input_iterator_tag, symObjAddr: 0xD740, symBinAddr: 0x10000DF28, symSize: 0x70 }
  - { offset: 0x2A0CD, size: 0x8, addend: 0x0, symName: __ZN11__gnu_debug16__check_singularIPiEEbRKPT_, symObjAddr: 0xD71C, symBinAddr: 0x10000DF04, symSize: 0x24 }
  - { offset: 0x2A0FF, size: 0x8, addend: 0x0, symName: __ZNSt20__copy_move_backwardILb1ELb0ESt26random_access_iterator_tagE13__copy_move_bIN11__gnu_debug14_Safe_iteratorIN9__gnu_cxx17__normal_iteratorIPiNSt9__cxx19986vectorIiSaIiEEEEENSt7__debug6vectorIiSA_EES0_EESG_EET0_T_SI_SH_, symObjAddr: 0xD694, symBinAddr: 0x10000DE7C, symSize: 0x88 }
  - { offset: 0x2A171, size: 0x8, addend: 0x0, symName: __ZSt23__copy_move_backward_a2ILb1EN9__gnu_cxx17__normal_iteratorIPiNSt9__cxx19986vectorIiSaIiEEEEEN11__gnu_debug14_Safe_iteratorIS7_NSt7__debug6vectorIiS5_EESt26random_access_iterator_tagEEET1_T0_SG_SF_, symObjAddr: 0xD638, symBinAddr: 0x10000DE20, symSize: 0x5C }
  - { offset: 0x2A1E1, size: 0x8, addend: 0x0, symName: __ZN11__gnu_debug17__valid_range_auxIN9__gnu_cxx17__normal_iteratorIPiNSt9__cxx19986vectorIiSaIiEEEEEEEbT_S9_RNS_16_Distance_traitsIS9_NSt12__is_integerIS9_E6__typeEE6__typeESt12__false_type, symObjAddr: 0xD564, symBinAddr: 0x10000DD4C, symSize: 0xD4 }
  - { offset: 0x2A23C, size: 0x8, addend: 0x0, symName: __ZSt23__copy_move_backward_a2ILb1EPiS0_ET1_T0_S2_S1_, symObjAddr: 0xD538, symBinAddr: 0x10000DD20, symSize: 0x2C }
  - { offset: 0x2A2F0, size: 0x8, addend: 0x0, symName: __ZNSt4pairImN11__gnu_debug19_Distance_precisionEEC1ImS1_Lb1EEEOT_OT0_, symObjAddr: 0xD4F0, symBinAddr: 0x10000DCD8, symSize: 0x48 }
  - { offset: 0x2A390, size: 0x8, addend: 0x0, symName: __ZN11__gnu_debug16_Error_formatter10_ParameterC1IN9__gnu_cxx17__normal_iteratorIPiNSt9__cxx19986vectorIiSaIiEEEEENSt7__debug6vectorIiS8_EESt26bidirectional_iterator_tagEERKNS_14_Safe_iteratorIT_T0_T1_EEPKcNS0_12_Is_iteratorE, symObjAddr: 0xD388, symBinAddr: 0x10000DB70, symSize: 0x168 }
  - { offset: 0x2A3F7, size: 0x8, addend: 0x0, symName: __ZNK9__gnu_cxx5__ops14_Iter_less_valclIN11__gnu_debug14_Safe_iteratorINS_17__normal_iteratorIPiNSt9__cxx19986vectorIiSaIiEEEEENSt7__debug6vectorIiS9_EESt26random_access_iterator_tagEEiEEbT_RT0_, symObjAddr: 0xD34C, symBinAddr: 0x10000DB34, symSize: 0x3C }
  - { offset: 0x2A450, size: 0x8, addend: 0x0, symName: __ZSt3getILm0EJRKiEERNSt13tuple_elementIXT_ESt5tupleIJDpT0_EEE4typeERS6_, symObjAddr: 0xD330, symBinAddr: 0x10000DB18, symSize: 0x1C }
  - { offset: 0x2A48F, size: 0x8, addend: 0x0, symName: __ZSt8__fill_aIPiiEvT_S1_RKT0_, symObjAddr: 0xD300, symBinAddr: 0x10000DAE8, symSize: 0x30 }
  - { offset: 0x2A4ED, size: 0x8, addend: 0x0, symName: __ZN11__gnu_debug13__can_advanceIPimEEbT_T0_, symObjAddr: 0xD2E8, symBinAddr: 0x10000DAD0, symSize: 0x18 }
  - { offset: 0x2A52A, size: 0x8, addend: 0x0, symName: __ZSt23__copy_move_backward_a1ILb0EPPiS1_ET1_T0_S3_S2_, symObjAddr: 0xD2BC, symBinAddr: 0x10000DAA4, symSize: 0x2C }
  - { offset: 0x2A592, size: 0x8, addend: 0x0, symName: __ZSt12__niter_wrapIPPiET_RKS2_S2_, symObjAddr: 0xD2A4, symBinAddr: 0x10000DA8C, symSize: 0x18 }
  - { offset: 0x2A5CE, size: 0x8, addend: 0x0, symName: __ZSt14__copy_move_a1ILb0EPPiS1_ET1_T0_S3_S2_, symObjAddr: 0xD278, symBinAddr: 0x10000DA60, symSize: 0x2C }
  - { offset: 0x2A636, size: 0x8, addend: 0x0, symName: __ZSt12__niter_baseIPPiET_S2_, symObjAddr: 0xD264, symBinAddr: 0x10000DA4C, symSize: 0x14 }
  - { offset: 0x2A6B1, size: 0x8, addend: 0x0, symName: __ZN11__gnu_debug16_Error_formatter10_ParameterC1IPiEERKPT_PKcNS0_12_Is_iteratorE, symObjAddr: 0xD1B4, symBinAddr: 0x10000D99C, symSize: 0xB0 }
  - { offset: 0x2A6FD, size: 0x8, addend: 0x0, symName: __ZN11__gnu_debug17__valid_range_auxIPPiEEbT_S3_RNS_16_Distance_traitsIS3_NSt12__is_integerIS3_E6__typeEE6__typeESt12__false_type, symObjAddr: 0xD0E0, symBinAddr: 0x10000D8C8, symSize: 0xD4 }
  - { offset: 0x2A758, size: 0x8, addend: 0x0, symName: __ZSt23__copy_move_backward_a2ILb1EN11__gnu_debug14_Safe_iteratorIN9__gnu_cxx17__normal_iteratorIPiNSt9__cxx19986vectorIiSaIiEEEEENSt7__debug6vectorIiS7_EESt26random_access_iterator_tagEESE_ET1_T0_SG_SF_, symObjAddr: 0xD060, symBinAddr: 0x10000D848, symSize: 0x80 }
  - { offset: 0x2A7C6, size: 0x8, addend: 0x0, symName: __ZSt23__copy_move_backward_a1ILb1EN9__gnu_cxx17__normal_iteratorIPiNSt9__cxx19986vectorIiSaIiEEEEEN11__gnu_debug14_Safe_iteratorIS7_NSt7__debug6vectorIiS5_EESt26random_access_iterator_tagEEET1_T0_SG_SF_, symObjAddr: 0xCFEC, symBinAddr: 0x10000D7D4, symSize: 0x74 }
  - { offset: 0x2A830, size: 0x8, addend: 0x0, symName: __ZN11__gnu_debug13__valid_rangeIN9__gnu_cxx17__normal_iteratorIPiNSt9__cxx19986vectorIiSaIiEEEEEEEbT_S9_RNS_16_Distance_traitsIS9_NSt12__is_integerIS9_E6__typeEE6__typeE, symObjAddr: 0xCFC0, symBinAddr: 0x10000D7A8, symSize: 0x2C }
  - { offset: 0x2A882, size: 0x8, addend: 0x0, symName: __ZSt23__copy_move_backward_a1ILb1EPiS0_ET1_T0_S2_S1_, symObjAddr: 0xCF94, symBinAddr: 0x10000D77C, symSize: 0x2C }
  - { offset: 0x2A8EE, size: 0x8, addend: 0x0, symName: __ZNK11__gnu_debug14_Safe_iteratorIN9__gnu_cxx17__normal_iteratorIPiNSt9__cxx19986vectorIiSaIiEEEEENSt7__debug6vectorIiS6_EESt20forward_iterator_tagE16_M_incrementableEv, symObjAddr: 0xCF38, symBinAddr: 0x10000D720, symSize: 0x5C }
  - { offset: 0x2A918, size: 0x8, addend: 0x0, symName: __ZN9__gnu_cxx17__normal_iteratorIPiNSt9__cxx19986vectorIiSaIiEEEEppEv, symObjAddr: 0xCF10, symBinAddr: 0x10000D6F8, symSize: 0x28 }
  - { offset: 0x2A93E, size: 0x8, addend: 0x0, symName: __ZN11__gnu_debug14__get_distanceIN9__gnu_cxx17__normal_iteratorIPiNSt9__cxx19986vectorIiSaIiEEEEEEENS_16_Distance_traitsIT_NSt12__is_integerISA_E6__typeEE6__typeESA_SA_St26random_access_iterator_tag, symObjAddr: 0xCED0, symBinAddr: 0x10000D6B8, symSize: 0x40 }
  - { offset: 0x2A9DD, size: 0x8, addend: 0x0, symName: __ZNSt4pairIlN11__gnu_debug19_Distance_precisionEEC1ImS1_Lb1EEEOS_IT_T0_E, symObjAddr: 0xCE84, symBinAddr: 0x10000D66C, symSize: 0x4C }
  - { offset: 0x2AA1A, size: 0x8, addend: 0x0, symName: __ZSt9make_pairImN11__gnu_debug19_Distance_precisionEESt4pairINSt25__strip_reference_wrapperINSt5decayIT_E4typeEE6__typeENS3_INS4_IT0_E4typeEE6__typeEEOS5_OSA_, symObjAddr: 0xCE38, symBinAddr: 0x10000D620, symSize: 0x4C }
  - { offset: 0x2AA6B, size: 0x8, addend: 0x0, symName: __ZN11__gnu_debug16_Error_formatter11_M_iteratorINS_14_Safe_iteratorIN9__gnu_cxx17__normal_iteratorIPiNSt9__cxx19986vectorIiSaIiEEEEENSt7__debug6vectorIiS8_EESt26bidirectional_iterator_tagEEEERS0_RKT_PKc, symObjAddr: 0xCD9C, symBinAddr: 0x10000D584, symSize: 0x9C }
  - { offset: 0x2AAC3, size: 0x8, addend: 0x0, symName: __ZNK11__gnu_debug14_Safe_iteratorIN9__gnu_cxx17__normal_iteratorIPiNSt9__cxx19986vectorIiSaIiEEEEENSt7__debug6vectorIiS6_EESt26bidirectional_iterator_tagE16_M_decrementableEv, symObjAddr: 0xCD40, symBinAddr: 0x10000D528, symSize: 0x5C }
  - { offset: 0x2AAED, size: 0x8, addend: 0x0, symName: __ZN9__gnu_cxx17__normal_iteratorIPiNSt9__cxx19986vectorIiSaIiEEEEmmEv, symObjAddr: 0xCD18, symBinAddr: 0x10000D500, symSize: 0x28 }
  - { offset: 0x2AB19, size: 0x8, addend: 0x0, symName: __ZSt11__push_heapIN11__gnu_debug14_Safe_iteratorIN9__gnu_cxx17__normal_iteratorIPiNSt9__cxx19986vectorIiSaIiEEEEENSt7__debug6vectorIiS7_EESt26random_access_iterator_tagEEliNS2_5__ops14_Iter_less_valEEvT_T0_SI_T1_RT2_, symObjAddr: 0xCBA8, symBinAddr: 0x10000D390, symSize: 0x170 }
  - { offset: 0x2ABC9, size: 0x8, addend: 0x0, symName: __ZSt4moveIRN9__gnu_cxx5__ops15_Iter_less_iterEEONSt16remove_referenceIT_E4typeEOS5_, symObjAddr: 0xCB94, symBinAddr: 0x10000D37C, symSize: 0x14 }
  - { offset: 0x2AC68, size: 0x8, addend: 0x0, symName: __ZNSt4pairIKiiEC1IJRS0_EJLm0EEJEJEEERSt5tupleIJDpT_EERS4_IJDpT1_EESt12_Index_tupleIJXspT0_EEESD_IJXspT2_EEE, symObjAddr: 0xCB4C, symBinAddr: 0x10000D334, symSize: 0x48 }
  - { offset: 0x2ACDB, size: 0x8, addend: 0x0, symName: __ZNSt15__new_allocatorIPNSt8__detail15_Hash_node_baseEE8allocateEmPKv, symObjAddr: 0xCAD0, symBinAddr: 0x10000D2B8, symSize: 0x7C }
  - { offset: 0x2AD63, size: 0x8, addend: 0x0, symName: __ZSt11__addressofINSt8__detail10_Hash_nodeISt4pairIKiiELb0EEEEPT_RS6_, symObjAddr: 0xCABC, symBinAddr: 0x10000D2A4, symSize: 0x14 }
  - { offset: 0x2AD95, size: 0x8, addend: 0x0, symName: __ZSt10__fill_n_aIPimiET_S1_T0_RKT1_St26random_access_iterator_tag, symObjAddr: 0xC9D0, symBinAddr: 0x10000D1B8, symSize: 0xEC }
  - { offset: 0x2AE22, size: 0x8, addend: 0x0, symName: __ZSt22__copy_move_backward_aILb0EPPiS1_ET1_T0_S3_S2_, symObjAddr: 0xC970, symBinAddr: 0x10000D158, symSize: 0x60 }
  - { offset: 0x2AE8A, size: 0x8, addend: 0x0, symName: __ZSt13__copy_move_aILb0EPPiS1_ET1_T0_S3_S2_, symObjAddr: 0xC910, symBinAddr: 0x10000D0F8, symSize: 0x60 }
  - { offset: 0x2AEF2, size: 0x8, addend: 0x0, symName: __ZSt12__miter_baseIPPiET_S2_, symObjAddr: 0xC8FC, symBinAddr: 0x10000D0E4, symSize: 0x14 }
  - { offset: 0x2AF25, size: 0x8, addend: 0x0, symName: __ZN11__gnu_debug13__can_advanceIPPilEEbT_RKSt4pairIT0_NS_19_Distance_precisionEEi, symObjAddr: 0xC8E0, symBinAddr: 0x10000D0C8, symSize: 0x1C }
  - { offset: 0x2AF6F, size: 0x8, addend: 0x0, symName: __ZN11__gnu_debug16_Error_formatter11_M_iteratorIPPiEERS0_RKT_PKc, symObjAddr: 0xC844, symBinAddr: 0x10000D02C, symSize: 0x9C }
  - { offset: 0x2AFC3, size: 0x8, addend: 0x0, symName: __ZN11__gnu_debug13__valid_rangeIPPiEEbT_S3_RNS_16_Distance_traitsIS3_NSt12__is_integerIS3_E6__typeEE6__typeE, symObjAddr: 0xC818, symBinAddr: 0x10000D000, symSize: 0x2C }
  - { offset: 0x2B015, size: 0x8, addend: 0x0, symName: __ZSt23__copy_move_backward_a1ILb1EN11__gnu_debug14_Safe_iteratorIN9__gnu_cxx17__normal_iteratorIPiNSt9__cxx19986vectorIiSaIiEEEEENSt7__debug6vectorIiS7_EESt26random_access_iterator_tagEESE_ET1_T0_SG_SF_, symObjAddr: 0xC770, symBinAddr: 0x10000CF58, symSize: 0xA8 }
  - { offset: 0x2B083, size: 0x8, addend: 0x0, symName: __ZSt22__copy_move_backward_aILb1EN9__gnu_cxx17__normal_iteratorIPiNSt9__cxx19986vectorIiSaIiEEEEES7_NSt7__debug6vectorIiS5_EESt26random_access_iterator_tagEN11__gnu_debug14_Safe_iteratorIT1_T2_T3_EET0_SI_RKSH_, symObjAddr: 0xC55C, symBinAddr: 0x10000CD44, symSize: 0x214 }
  - { offset: 0x2B12F, size: 0x8, addend: 0x0, symName: __ZSt22__copy_move_backward_aILb1EN9__gnu_cxx17__normal_iteratorIPiNSt9__cxx19986vectorIiSaIiEEEEES7_ET1_T0_S9_S8_, symObjAddr: 0xC4FC, symBinAddr: 0x10000CCE4, symSize: 0x60 }
  - { offset: 0x2B19B, size: 0x8, addend: 0x0, symName: __ZNK11__gnu_debug14_Safe_iteratorIN9__gnu_cxx17__normal_iteratorIPiNSt9__cxx19986vectorIiSaIiEEEEENSt7__debug6vectorIiS6_EESt20forward_iterator_tagE14_M_can_advanceIlEEbRKSt4pairIT_NS_19_Distance_precisionEEi, symObjAddr: 0xC444, symBinAddr: 0x10000CC2C, symSize: 0xB8 }
  - { offset: 0x2B1EE, size: 0x8, addend: 0x0, symName: __ZN11__gnu_debug14_Safe_iteratorIN9__gnu_cxx17__normal_iteratorIPiNSt9__cxx19986vectorIiSaIiEEEEENSt7__debug6vectorIiS6_EESt20forward_iterator_tagEppEv, symObjAddr: 0xC374, symBinAddr: 0x10000CB5C, symSize: 0xD0 }
  - { offset: 0x2B270, size: 0x8, addend: 0x0, symName: __ZN11__gnu_debug14__get_distanceIN9__gnu_cxx17__normal_iteratorIPiNSt9__cxx19986vectorIiSaIiEEEEEEENS_16_Distance_traitsIT_NSt12__is_integerISA_E6__typeEE6__typeESA_SA_, symObjAddr: 0xC34C, symBinAddr: 0x10000CB34, symSize: 0x28 }
  - { offset: 0x2B2D2, size: 0x8, addend: 0x0, symName: __ZN11__gnu_debug16_Sequence_traitsINSt7__debug6vectorIiSaIiEEEE7_S_sizeERKS4_, symObjAddr: 0xC300, symBinAddr: 0x10000CAE8, symSize: 0x4C }
  - { offset: 0x2B339, size: 0x8, addend: 0x0, symName: __ZNSt4pairIlN11__gnu_debug19_Distance_precisionEEC1IiS1_Lb1EEEOS_IT_T0_E, symObjAddr: 0xC2B4, symBinAddr: 0x10000CA9C, symSize: 0x4C }
  - { offset: 0x2B376, size: 0x8, addend: 0x0, symName: __ZSt4swapIN9__gnu_cxx17__normal_iteratorIPiNSt9__cxx19986vectorIiSaIiEEEEEENSt9enable_ifIXsrSt6__and_IJSt6__not_ISt15__is_tuple_likeIT_EESt21is_move_constructibleISC_ESt18is_move_assignableISC_EEE5valueEvE4typeERSC_SM_, symObjAddr: 0xC258, symBinAddr: 0x10000CA40, symSize: 0x5C }
  - { offset: 0x2B3CF, size: 0x8, addend: 0x0, symName: __ZSt4moveIRN9__gnu_cxx17__normal_iteratorIPiNSt9__cxx19986vectorIiSaIiEEEEEEONSt16remove_referenceIT_E4typeEOSA_, symObjAddr: 0xC244, symBinAddr: 0x10000CA2C, symSize: 0x14 }
  - { offset: 0x2B401, size: 0x8, addend: 0x0, symName: __ZSt4swapIiENSt9enable_ifIXsrSt6__and_IJSt6__not_ISt15__is_tuple_likeIT_EESt21is_move_constructibleIS4_ESt18is_move_assignableIS4_EEE5valueEvE4typeERS4_SE_, symObjAddr: 0xC1F0, symBinAddr: 0x10000C9D8, symSize: 0x54 }
  - { offset: 0x2B457, size: 0x8, addend: 0x0, symName: __ZN11__gnu_debug14_Safe_iteratorIN9__gnu_cxx17__normal_iteratorIPiNSt9__cxx19986vectorIiSaIiEEEEENSt7__debug6vectorIiS6_EESt26bidirectional_iterator_tagEmmEv, symObjAddr: 0xC120, symBinAddr: 0x10000C908, symSize: 0xD0 }
  - { offset: 0x2B4D9, size: 0x8, addend: 0x0, symName: __ZN9__gnu_cxxltIPiNSt9__cxx19986vectorIiSaIiEEEEEbRKNS_17__normal_iteratorIT_T0_EESB_, symObjAddr: 0xC0DC, symBinAddr: 0x10000C8C4, symSize: 0x44 }
  - { offset: 0x2B526, size: 0x8, addend: 0x0, symName: __ZSt13__adjust_heapIN11__gnu_debug14_Safe_iteratorIN9__gnu_cxx17__normal_iteratorIPiNSt9__cxx19986vectorIiSaIiEEEEENSt7__debug6vectorIiS7_EESt26random_access_iterator_tagEEliNS2_5__ops15_Iter_less_iterEEvT_T0_SI_T1_T2_, symObjAddr: 0xBE8C, symBinAddr: 0x10000C674, symSize: 0x250 }
  - { offset: 0x2B5EA, size: 0x8, addend: 0x0, symName: __ZNSt11__copy_moveILb0ELb0ESt26random_access_iterator_tagE12__assign_oneIiiEEvPT_PT0_, symObjAddr: 0xBE64, symBinAddr: 0x10000C64C, symSize: 0x28 }
  - { offset: 0x2B637, size: 0x8, addend: 0x0, symName: __ZNSt11__copy_moveILb0ELb0ESt26random_access_iterator_tagE12__assign_oneIiKiEEvPT_PT0_, symObjAddr: 0xBE3C, symBinAddr: 0x10000C624, symSize: 0x28 }
  - { offset: 0x2B684, size: 0x8, addend: 0x0, symName: __ZN9__gnu_cxxmiIPKiNSt9__cxx19986vectorIiSaIiEEEEENS_17__normal_iteratorIT_T0_E15difference_typeERKSA_SD_, symObjAddr: 0xBDFC, symBinAddr: 0x10000C5E4, symSize: 0x40 }
  - { offset: 0x2B6D1, size: 0x8, addend: 0x0, symName: __ZSt13__copy_move_aILb0EN9__gnu_cxx17__normal_iteratorIPKiNSt9__cxx19986vectorIiSaIiEEEEEPiET1_T0_SB_SA_, symObjAddr: 0xBD9C, symBinAddr: 0x10000C584, symSize: 0x60 }
  - { offset: 0x2B788, size: 0x8, addend: 0x0, symName: __ZNSt4pairIKiiEC1IJRS0_EJEEESt21piecewise_construct_tSt5tupleIJDpT_EES5_IJDpT0_EE, symObjAddr: 0xBD60, symBinAddr: 0x10000C548, symSize: 0x3C }
  - { offset: 0x2B802, size: 0x8, addend: 0x0, symName: __ZNSt11_Tuple_implILm0EJRKiEEC2EOS2_, symObjAddr: 0xBD38, symBinAddr: 0x10000C520, symSize: 0x28 }
  - { offset: 0x2B835, size: 0x8, addend: 0x0, symName: __ZNK9__gnu_cxx16__aligned_bufferISt4pairIKiiEE7_M_addrEv, symObjAddr: 0xBD24, symBinAddr: 0x10000C50C, symSize: 0x14 }
  - { offset: 0x2B85B, size: 0x8, addend: 0x0, symName: __ZSt12__to_addressIPNSt8__detail15_Hash_node_baseEEPT_S4_, symObjAddr: 0xBD10, symBinAddr: 0x10000C4F8, symSize: 0x14 }
  - { offset: 0x2B8B1, size: 0x8, addend: 0x0, symName: __ZSt11__addressofIPNSt8__detail15_Hash_node_baseEEPT_RS3_, symObjAddr: 0xBCFC, symBinAddr: 0x10000C4E4, symSize: 0x14 }
  - { offset: 0x2B8E3, size: 0x8, addend: 0x0, symName: __ZSt9addressofINSt8__detail10_Hash_nodeISt4pairIKiiELb0EEEEPT_RS6_, symObjAddr: 0xBCE0, symBinAddr: 0x10000C4C8, symSize: 0x1C }
  - { offset: 0x2B915, size: 0x8, addend: 0x0, symName: __ZSt6fill_nIPimiET_S1_T0_RKT1_, symObjAddr: 0xBC98, symBinAddr: 0x10000C480, symSize: 0x48 }
  - { offset: 0x2B99D, size: 0x8, addend: 0x0, symName: __ZSt10_ConstructIiJEEvPT_DpOT0_, symObjAddr: 0xBC6C, symBinAddr: 0x10000C454, symSize: 0x2C }
  - { offset: 0x2B9D9, size: 0x8, addend: 0x0, symName: __ZSt11__addressofIiEPT_RS0_, symObjAddr: 0xBC58, symBinAddr: 0x10000C440, symSize: 0x14 }
  - { offset: 0x2BA0B, size: 0x8, addend: 0x0, symName: __ZSt13copy_backwardIPPiS1_ET0_T_S3_S2_, symObjAddr: 0xBAF4, symBinAddr: 0x10000C2DC, symSize: 0x164 }
  - { offset: 0x2BAAA, size: 0x8, addend: 0x0, symName: __ZSt4copyIPPiS1_ET0_T_S3_S2_, symObjAddr: 0xB994, symBinAddr: 0x10000C17C, symSize: 0x160 }
  - { offset: 0x2BB58, size: 0x8, addend: 0x0, symName: __ZNK9__gnu_cxx5__ops14_Val_less_iterclIiN11__gnu_debug14_Safe_iteratorINS_17__normal_iteratorIPiNSt9__cxx19986vectorIiSaIiEEEEENSt7__debug6vectorIiS9_EESt26random_access_iterator_tagEEEEbRT_T0_, symObjAddr: 0xB950, symBinAddr: 0x10000C138, symSize: 0x44 }
  - { offset: 0x2BBB1, size: 0x8, addend: 0x0, symName: __ZSt22__copy_move_backward_aILb1EN9__gnu_cxx17__normal_iteratorIPiNSt9__cxx19986vectorIiSaIiEEEEENSt7__debug6vectorIiS5_EESt26random_access_iterator_tagS7_SA_SB_EN11__gnu_debug14_Safe_iteratorIT3_T4_T5_EERKNSD_IT0_T1_T2_EESN_RKSH_, symObjAddr: 0xB6B0, symBinAddr: 0x10000BE98, symSize: 0x2A0 }
  - { offset: 0x2BC70, size: 0x8, addend: 0x0, symName: __ZSt12__miter_baseIN11__gnu_debug14_Safe_iteratorIN9__gnu_cxx17__normal_iteratorIPiNSt9__cxx19986vectorIiSaIiEEEEENSt7__debug6vectorIiS7_EESt26random_access_iterator_tagEEET_SF_, symObjAddr: 0xB680, symBinAddr: 0x10000BE68, symSize: 0x30 }
  - { offset: 0x2BCA4, size: 0x8, addend: 0x0, symName: __ZN11__gnu_debug13__can_advanceIN9__gnu_cxx17__normal_iteratorIPiNSt9__cxx19986vectorIiSaIiEEEEENSt7__debug6vectorIiS6_EESt26random_access_iterator_taglEEbRKNS_14_Safe_iteratorIT_T0_T1_EERKSt4pairIT2_NS_19_Distance_precisionEEi, symObjAddr: 0xB654, symBinAddr: 0x10000BE3C, symSize: 0x2C }
  - { offset: 0x2BD14, size: 0x8, addend: 0x0, symName: __ZN11__gnu_debug13__valid_rangeIN9__gnu_cxx17__normal_iteratorIPiNSt9__cxx19986vectorIiSaIiEEEEENSt7__debug6vectorIiS6_EESt26random_access_iterator_tagEEbRKNS_14_Safe_iteratorIT_T0_T1_EESJ_RNS_16_Distance_traitsISE_NSt12__is_integerISE_E6__typeEE6__typeE, symObjAddr: 0xB628, symBinAddr: 0x10000BE10, symSize: 0x2C }
  - { offset: 0x2BD7F, size: 0x8, addend: 0x0, symName: __ZN11__gnu_debug14_Safe_iteratorIN9__gnu_cxx17__normal_iteratorIPiNSt9__cxx19986vectorIiSaIiEEEEENSt7__debug6vectorIiS6_EESt26bidirectional_iterator_tagEppEv, symObjAddr: 0xB608, symBinAddr: 0x10000BDF0, symSize: 0x20 }
  - { offset: 0x2BDA9, size: 0x8, addend: 0x0, symName: __ZNK11__gnu_debug14_Safe_iteratorIN9__gnu_cxx17__normal_iteratorIPiNSt9__cxx19986vectorIiSaIiEEEEENSt7__debug6vectorIiS6_EESt20forward_iterator_tagE22_M_get_distance_to_endEv, symObjAddr: 0xB514, symBinAddr: 0x10000BCFC, symSize: 0xF4 }
  - { offset: 0x2BDE5, size: 0x8, addend: 0x0, symName: __ZNK11__gnu_debug14_Safe_iteratorIN9__gnu_cxx17__normal_iteratorIPiNSt9__cxx19986vectorIiSaIiEEEEENSt7__debug6vectorIiS6_EESt20forward_iterator_tagE26_M_get_distance_from_beginEv, symObjAddr: 0xB420, symBinAddr: 0x10000BC08, symSize: 0xF4 }
  - { offset: 0x2BE76, size: 0x8, addend: 0x0, symName: __ZN11__gnu_debug14_Safe_iteratorIN9__gnu_cxx17__normal_iteratorIPiNSt9__cxx19986vectorIiSaIiEEEEENSt7__debug6vectorIiS6_EESt20forward_iterator_tagEC2EOSD_, symObjAddr: 0xB2C8, symBinAddr: 0x10000BAB0, symSize: 0x158 }
  - { offset: 0x2BEFD, size: 0x8, addend: 0x0, symName: __ZSt9iter_swapIN11__gnu_debug14_Safe_iteratorIN9__gnu_cxx17__normal_iteratorIPiNSt9__cxx19986vectorIiSaIiEEEEENSt7__debug6vectorIiS7_EESt26random_access_iterator_tagEESE_EvT_T0_, symObjAddr: 0xB284, symBinAddr: 0x10000BA6C, symSize: 0x44 }
  - { offset: 0x2BF4E, size: 0x8, addend: 0x0, symName: __ZNK9__gnu_cxx17__normal_iteratorIPiNSt9__cxx19986vectorIiSaIiEEEEmiEl, symObjAddr: 0xB240, symBinAddr: 0x10000BA28, symSize: 0x44 }
  - { offset: 0x2BF89, size: 0x8, addend: 0x0, symName: __ZN11__gnu_debug14_Safe_iteratorIN9__gnu_cxx17__normal_iteratorIPiNSt9__cxx19986vectorIiSaIiEEEEENSt7__debug6vectorIiS6_EESt26random_access_iterator_tagEmmEv, symObjAddr: 0xB220, symBinAddr: 0x10000BA08, symSize: 0x20 }
  - { offset: 0x2BFAF, size: 0x8, addend: 0x0, symName: __ZSt10__pop_heapIN11__gnu_debug14_Safe_iteratorIN9__gnu_cxx17__normal_iteratorIPiNSt9__cxx19986vectorIiSaIiEEEEENSt7__debug6vectorIiS7_EESt26random_access_iterator_tagEENS2_5__ops15_Iter_less_iterEEvT_SH_SH_RT0_, symObjAddr: 0xB168, symBinAddr: 0x10000B950, symSize: 0xB8 }
  - { offset: 0x2C050, size: 0x8, addend: 0x0, symName: __ZN11__gnu_debugltERKNS_14_Safe_iteratorIN9__gnu_cxx17__normal_iteratorIPiNSt9__cxx19986vectorIiSaIiEEEEENSt7__debug6vectorIiS6_EESt26random_access_iterator_tagEESF_, symObjAddr: 0xAF78, symBinAddr: 0x10000B760, symSize: 0x1F0 }
  - { offset: 0x2C0C3, size: 0x8, addend: 0x0, symName: __ZSt11__make_heapIN11__gnu_debug14_Safe_iteratorIN9__gnu_cxx17__normal_iteratorIPiNSt9__cxx19986vectorIiSaIiEEEEENSt7__debug6vectorIiS7_EESt26random_access_iterator_tagEENS2_5__ops15_Iter_less_iterEEvT_SH_RT0_, symObjAddr: 0xAE64, symBinAddr: 0x10000B64C, symSize: 0x114 }
  - { offset: 0x2C180, size: 0x8, addend: 0x0, symName: __ZNSt11__copy_moveILb0ELb1ESt26random_access_iterator_tagE8__copy_mIiiEEPT0_PT_S6_S4_, symObjAddr: 0xADD4, symBinAddr: 0x10000B5BC, symSize: 0x90 }
  - { offset: 0x2C1EF, size: 0x8, addend: 0x0, symName: __ZN11__gnu_debug14__get_distanceIPiEENS_16_Distance_traitsIT_NSt12__is_integerIS3_E6__typeEE6__typeES3_S3_St26random_access_iterator_tag, symObjAddr: 0xAD90, symBinAddr: 0x10000B578, symSize: 0x44 }
  - { offset: 0x2C250, size: 0x8, addend: 0x0, symName: __ZNSt11__copy_moveILb0ELb1ESt26random_access_iterator_tagE8__copy_mIKiiEEPT0_PT_S7_S5_, symObjAddr: 0xAD00, symBinAddr: 0x10000B4E8, symSize: 0x90 }
  - { offset: 0x2C2C5, size: 0x8, addend: 0x0, symName: __ZSt11__addressofIKPKiEPT_RS3_, symObjAddr: 0xACEC, symBinAddr: 0x10000B4D4, symSize: 0x14 }
  - { offset: 0x2C2F7, size: 0x8, addend: 0x0, symName: __ZN11__gnu_debug14__get_distanceIN9__gnu_cxx17__normal_iteratorIPKiNSt9__cxx19986vectorIiSaIiEEEEEEENS_16_Distance_traitsIT_NSt12__is_integerISB_E6__typeEE6__typeESB_SB_St26random_access_iterator_tag, symObjAddr: 0xACAC, symBinAddr: 0x10000B494, symSize: 0x40 }
  - { offset: 0x2C358, size: 0x8, addend: 0x0, symName: __ZSt11__addressofIKN9__gnu_cxx17__normal_iteratorIPKiNSt9__cxx19986vectorIiSaIiEEEEEEPT_RSA_, symObjAddr: 0xAC98, symBinAddr: 0x10000B480, symSize: 0x14 }
  - { offset: 0x2C38A, size: 0x8, addend: 0x0, symName: __ZN9__gnu_cxxeqIPKiNSt9__cxx19986vectorIiSaIiEEEEEbRKNS_17__normal_iteratorIT_T0_EESC_, symObjAddr: 0xAC54, symBinAddr: 0x10000B43C, symSize: 0x44 }
  - { offset: 0x2C3D7, size: 0x8, addend: 0x0, symName: __ZSt4copyIN9__gnu_cxx17__normal_iteratorIPKiNSt9__cxx19986vectorIiSaIiEEEEEPiET0_T_SB_SA_, symObjAddr: 0xAAF0, symBinAddr: 0x10000B2D8, symSize: 0x164 }
  - { offset: 0x2C476, size: 0x8, addend: 0x0, symName: __ZSt14__relocate_a_1IiiENSt9enable_ifIXsrSt24__is_bitwise_relocatableIT_vE5valueEPS2_E4typeES4_S4_S4_RSaIT0_E, symObjAddr: 0xAA8C, symBinAddr: 0x10000B274, symSize: 0x64 }
  - { offset: 0x2C4FA, size: 0x8, addend: 0x0, symName: __ZNSt15__new_allocatorINSt8__detail10_Hash_nodeISt4pairIKiiELb0EEEE10deallocateEPS5_m, symObjAddr: 0xAA5C, symBinAddr: 0x10000B244, symSize: 0x30 }
  - { offset: 0x2C5C6, size: 0x8, addend: 0x0, symName: __ZNSt5tupleIJRKiEEC1EOS2_, symObjAddr: 0xAA34, symBinAddr: 0x10000B21C, symSize: 0x28 }
  - { offset: 0x2C5F5, size: 0x8, addend: 0x0, symName: __ZNSt15__new_allocatorINSt8__detail10_Hash_nodeISt4pairIKiiELb0EEEE8allocateEmPKv, symObjAddr: 0xA9B8, symBinAddr: 0x10000B1A0, symSize: 0x7C }
  - { offset: 0x2C685, size: 0x8, addend: 0x0, symName: __ZN9__gnu_cxx16__aligned_bufferISt4pairIKiiEE7_M_addrEv, symObjAddr: 0xA9A4, symBinAddr: 0x10000B18C, symSize: 0x14 }
  - { offset: 0x2C6AB, size: 0x8, addend: 0x0, symName: __ZNSt8__detail15_Hashtable_baseIiSt4pairIKiiENS_10_Select1stESt8equal_toIiESt4hashIiENS_18_Mod_range_hashingENS_20_Default_ranged_hashENS_17_Hashtable_traitsILb0ELb0ELb1EEEE9_S_equalsEmRKNS_21_Hash_node_code_cacheILb0EEE, symObjAddr: 0xA98C, symBinAddr: 0x10000B174, symSize: 0x18 }
  - { offset: 0x2C6DA, size: 0x8, addend: 0x0, symName: __ZNK9__gnu_cxx16__aligned_bufferISt4pairIKiiEE6_M_ptrEv, symObjAddr: 0xA970, symBinAddr: 0x10000B158, symSize: 0x1C }
  - { offset: 0x2C704, size: 0x8, addend: 0x0, symName: __ZNKSt8__detail21_Hashtable_ebo_helperILi0ESt8equal_toIiELb1EE7_M_cgetEv, symObjAddr: 0xA95C, symBinAddr: 0x10000B144, symSize: 0x14 }
  - { offset: 0x2C72E, size: 0x8, addend: 0x0, symName: __ZNSt8__detail16_Hashtable_allocISaINS_10_Hash_nodeISt4pairIKiiELb0EEEEE19_M_allocate_bucketsEm, symObjAddr: 0xA8AC, symBinAddr: 0x10000B094, symSize: 0xB0 }
  - { offset: 0x2C855, size: 0x8, addend: 0x0, symName: __ZNSt15__new_allocatorIPNSt8__detail15_Hash_node_baseEE10deallocateEPS2_m, symObjAddr: 0xA87C, symBinAddr: 0x10000B064, symSize: 0x30 }
  - { offset: 0x2C8C3, size: 0x8, addend: 0x0, symName: __ZNSt15__new_allocatorIPNSt8__detail15_Hash_node_baseEED2Ev, symObjAddr: 0xA868, symBinAddr: 0x10000B050, symSize: 0x14 }
  - { offset: 0x2C8FB, size: 0x8, addend: 0x0, symName: __ZSt9addressofIPNSt8__detail15_Hash_node_baseEEPT_RS3_, symObjAddr: 0xA84C, symBinAddr: 0x10000B034, symSize: 0x1C }
  - { offset: 0x2C92D, size: 0x8, addend: 0x0, symName: __ZNSt19__ptr_traits_ptr_toIPNSt8__detail10_Hash_nodeISt4pairIKiiELb0EEES5_Lb0EE10pointer_toERS5_, symObjAddr: 0xA830, symBinAddr: 0x10000B018, symSize: 0x1C }
  - { offset: 0x2C986, size: 0x8, addend: 0x0, symName: __ZNSt8__detail21_Hashtable_ebo_helperILi0ESaINS_10_Hash_nodeISt4pairIKiiELb0EEEELb1EE6_M_getEv, symObjAddr: 0xA81C, symBinAddr: 0x10000B004, symSize: 0x14 }
  - { offset: 0x2C9AC, size: 0x8, addend: 0x0, symName: __ZNSt27__uninitialized_default_n_1ILb1EE18__uninit_default_nIPimEET_S3_T0_, symObjAddr: 0xA7B8, symBinAddr: 0x10000AFA0, symSize: 0x64 }
  - { offset: 0x2CA3D, size: 0x8, addend: 0x0, symName: __ZNSt9__cxx19985dequeIiSaIiEE17_M_reallocate_mapEmb, symObjAddr: 0xA574, symBinAddr: 0x10000AD5C, symSize: 0x244 }
  - { offset: 0x2CAEE, size: 0x8, addend: 0x0, symName: __ZNSt9__cxx19985dequeIiSaIiEE11_S_max_sizeERKS1_, symObjAddr: 0xA520, symBinAddr: 0x10000AD08, symSize: 0x54 }
  - { offset: 0x2CBA9, size: 0x8, addend: 0x0, symName: __ZNSt9__cxx199815_Deque_iteratorIiRiPiEpLEl, symObjAddr: 0xA3F4, symBinAddr: 0x10000ABDC, symSize: 0x12C }
  - { offset: 0x2CC2C, size: 0x8, addend: 0x0, symName: __ZNSt15__new_allocatorIPiE8allocateEmPKv, symObjAddr: 0xA378, symBinAddr: 0x10000AB60, symSize: 0x7C }
  - { offset: 0x2CCB4, size: 0x8, addend: 0x0, symName: __ZSt25__unguarded_linear_insertIN11__gnu_debug14_Safe_iteratorIN9__gnu_cxx17__normal_iteratorIPiNSt9__cxx19986vectorIiSaIiEEEEENSt7__debug6vectorIiS7_EESt26random_access_iterator_tagEENS2_5__ops14_Val_less_iterEEvT_T0_, symObjAddr: 0xA2A4, symBinAddr: 0x10000AA8C, symSize: 0xD4 }
  - { offset: 0x2CD27, size: 0x8, addend: 0x0, symName: __ZSt13move_backwardIN11__gnu_debug14_Safe_iteratorIN9__gnu_cxx17__normal_iteratorIPiNSt9__cxx19986vectorIiSaIiEEEEENSt7__debug6vectorIiS7_EESt26random_access_iterator_tagEESE_ET0_T_SG_SF_, symObjAddr: 0xA0B8, symBinAddr: 0x10000A8A0, symSize: 0x1EC }
  - { offset: 0x2CDD5, size: 0x8, addend: 0x0, symName: __ZSt4moveIRiEONSt16remove_referenceIT_E4typeEOS2_, symObjAddr: 0xA0A4, symBinAddr: 0x10000A88C, symSize: 0x14 }
  - { offset: 0x2CE16, size: 0x8, addend: 0x0, symName: __ZNK9__gnu_cxx5__ops15_Iter_less_iterclIN11__gnu_debug14_Safe_iteratorINS_17__normal_iteratorIPiNSt9__cxx19986vectorIiSaIiEEEEENSt7__debug6vectorIiS9_EESt26random_access_iterator_tagEESG_EEbT_T0_, symObjAddr: 0xA05C, symBinAddr: 0x10000A844, symSize: 0x48 }
  - { offset: 0x2CE74, size: 0x8, addend: 0x0, symName: __ZN11__gnu_debug14_Safe_iteratorIN9__gnu_cxx17__normal_iteratorIPiNSt9__cxx19986vectorIiSaIiEEEEENSt7__debug6vectorIiS6_EESt26random_access_iterator_tagEppEv, symObjAddr: 0xA03C, symBinAddr: 0x10000A824, symSize: 0x20 }
  - { offset: 0x2CE9E, size: 0x8, addend: 0x0, symName: __ZNK11__gnu_debug14_Safe_iteratorIN9__gnu_cxx17__normal_iteratorIPiNSt9__cxx19986vectorIiSaIiEEEEENSt7__debug6vectorIiS6_EESt20forward_iterator_tagE14_M_can_advanceElb, symObjAddr: 0x9F10, symBinAddr: 0x10000A6F8, symSize: 0x12C }
  - { offset: 0x2CEF8, size: 0x8, addend: 0x0, symName: __ZN11__gnu_debug14_Safe_iteratorIN9__gnu_cxx17__normal_iteratorIPiNSt9__cxx19986vectorIiSaIiEEEEENSt7__debug6vectorIiS6_EESt20forward_iterator_tagE4baseEv, symObjAddr: 0x9EFC, symBinAddr: 0x10000A6E4, symSize: 0x14 }
  - { offset: 0x2CF1E, size: 0x8, addend: 0x0, symName: __ZSt21__unguarded_partitionIN11__gnu_debug14_Safe_iteratorIN9__gnu_cxx17__normal_iteratorIPiNSt9__cxx19986vectorIiSaIiEEEEENSt7__debug6vectorIiS7_EESt26random_access_iterator_tagEENS2_5__ops15_Iter_less_iterEET_SH_SH_SH_T0_, symObjAddr: 0x9DA8, symBinAddr: 0x10000A590, symSize: 0x154 }
  - { offset: 0x2CFB7, size: 0x8, addend: 0x0, symName: __ZN11__gnu_debug14_Safe_iteratorIN9__gnu_cxx17__normal_iteratorIPiNSt9__cxx19986vectorIiSaIiEEEEENSt7__debug6vectorIiS6_EESt26random_access_iterator_tagEC1EOSD_, symObjAddr: 0x9D80, symBinAddr: 0x10000A568, symSize: 0x28 }
  - { offset: 0x2D005, size: 0x8, addend: 0x0, symName: __ZN11__gnu_debug14_Safe_iteratorIN9__gnu_cxx17__normal_iteratorIPiNSt9__cxx19986vectorIiSaIiEEEEENSt7__debug6vectorIiS6_EESt26bidirectional_iterator_tagEC2EOSD_, symObjAddr: 0x9D58, symBinAddr: 0x10000A540, symSize: 0x28 }
  - { offset: 0x2D030, size: 0x8, addend: 0x0, symName: __ZSt22__move_median_to_firstIN11__gnu_debug14_Safe_iteratorIN9__gnu_cxx17__normal_iteratorIPiNSt9__cxx19986vectorIiSaIiEEEEENSt7__debug6vectorIiS7_EESt26random_access_iterator_tagEENS2_5__ops15_Iter_less_iterEEvT_SH_SH_SH_T0_, symObjAddr: 0x9A6C, symBinAddr: 0x10000A254, symSize: 0x2EC }
  - { offset: 0x2D0B4, size: 0x8, addend: 0x0, symName: __ZN11__gnu_debugmiERKNS_14_Safe_iteratorIN9__gnu_cxx17__normal_iteratorIPiNSt9__cxx19986vectorIiSaIiEEEEENSt7__debug6vectorIiS6_EESt26random_access_iterator_tagEEl, symObjAddr: 0x9988, symBinAddr: 0x10000A170, symSize: 0xE4 }
  - { offset: 0x2D127, size: 0x8, addend: 0x0, symName: __ZSt11__sort_heapIN11__gnu_debug14_Safe_iteratorIN9__gnu_cxx17__normal_iteratorIPiNSt9__cxx19986vectorIiSaIiEEEEENSt7__debug6vectorIiS7_EESt26random_access_iterator_tagEENS2_5__ops15_Iter_less_iterEEvT_SH_RT0_, symObjAddr: 0x98BC, symBinAddr: 0x10000A0A4, symSize: 0xCC }
  - { offset: 0x2D18A, size: 0x8, addend: 0x0, symName: __ZSt13__heap_selectIN11__gnu_debug14_Safe_iteratorIN9__gnu_cxx17__normal_iteratorIPiNSt9__cxx19986vectorIiSaIiEEEEENSt7__debug6vectorIiS7_EESt26random_access_iterator_tagEENS2_5__ops15_Iter_less_iterEEvT_SH_SH_T0_, symObjAddr: 0x9740, symBinAddr: 0x100009F28, symSize: 0x17C }
  - { offset: 0x2D21D, size: 0x8, addend: 0x0, symName: __ZN11__gnu_debug14_Safe_iteratorIN9__gnu_cxx17__normal_iteratorIPiNSt9__cxx19986vectorIiSaIiEEEEENSt7__debug6vectorIiS6_EESt20forward_iterator_tagE9_M_attachEPNS_19_Safe_sequence_baseE, symObjAddr: 0x9700, symBinAddr: 0x100009EE8, symSize: 0x40 }
  - { offset: 0x2D254, size: 0x8, addend: 0x0, symName: __ZSt11__addressofIKN11__gnu_debug14_Safe_iteratorIN9__gnu_cxx17__normal_iteratorIPiNSt9__cxx19986vectorIiSaIiEEEEENSt7__debug6vectorIiS7_EESt20forward_iterator_tagEEEPT_RSG_, symObjAddr: 0x96EC, symBinAddr: 0x100009ED4, symSize: 0x14 }
  - { offset: 0x2D28A, size: 0x8, addend: 0x0, symName: __ZNSt7__debug6vectorIiSaIiEE7_M_baseEv, symObjAddr: 0x96D4, symBinAddr: 0x100009EBC, symSize: 0x18 }
  - { offset: 0x2D2B0, size: 0x8, addend: 0x0, symName: __ZN11__gnu_debug18_BeforeBeginHelperINSt7__debug6vectorIiSaIiEEEE5_S_IsIN9__gnu_cxx17__normal_iteratorIPiNSt9__cxx19986vectorIiS3_EEEESt20forward_iterator_tagEEbRKNS_14_Safe_iteratorIT_S4_T0_EE, symObjAddr: 0x96C0, symBinAddr: 0x100009EA8, symSize: 0x14 }
  - { offset: 0x2D330, size: 0x8, addend: 0x0, symName: __ZNSt4pairIlN11__gnu_debug19_Distance_precisionEEC1IlS1_Lb1EEEOT_OT0_, symObjAddr: 0x9678, symBinAddr: 0x100009E60, symSize: 0x48 }
  - { offset: 0x2D37C, size: 0x8, addend: 0x0, symName: __ZSt7forwardIlEOT_RNSt16remove_referenceIS0_E4typeE, symObjAddr: 0x9664, symBinAddr: 0x100009E4C, symSize: 0x14 }
  - { offset: 0x2D3FA, size: 0x8, addend: 0x0, symName: __ZNSt4pairIiN11__gnu_debug19_Distance_precisionEEC1IiS1_Lb1EEEOT_OT0_, symObjAddr: 0x961C, symBinAddr: 0x100009E04, symSize: 0x48 }
  - { offset: 0x2D446, size: 0x8, addend: 0x0, symName: __ZSt7forwardIN11__gnu_debug19_Distance_precisionEEOT_RNSt16remove_referenceIS2_E4typeE, symObjAddr: 0x9608, symBinAddr: 0x100009DF0, symSize: 0x14 }
  - { offset: 0x2D478, size: 0x8, addend: 0x0, symName: __ZSt14__copy_move_a2ILb0EPiS0_ET1_T0_S2_S1_, symObjAddr: 0x95DC, symBinAddr: 0x100009DC4, symSize: 0x2C }
  - { offset: 0x2D4E0, size: 0x8, addend: 0x0, symName: __ZSt11__addressofIKPiEPT_RS2_, symObjAddr: 0x95C8, symBinAddr: 0x100009DB0, symSize: 0x14 }
  - { offset: 0x2D512, size: 0x8, addend: 0x0, symName: __ZN11__gnu_debug14__get_distanceIPiEENS_16_Distance_traitsIT_NSt12__is_integerIS3_E6__typeEE6__typeES3_S3_, symObjAddr: 0x95A0, symBinAddr: 0x100009D88, symSize: 0x28 }
  - { offset: 0x2D574, size: 0x8, addend: 0x0, symName: __ZN11__gnu_debug17__valid_range_auxIPiEEbT_S2_St18input_iterator_tag, symObjAddr: 0x9530, symBinAddr: 0x100009D18, symSize: 0x70 }
  - { offset: 0x2D5BF, size: 0x8, addend: 0x0, symName: __ZN11__gnu_debug16__check_singularIiEEbRKPT_, symObjAddr: 0x950C, symBinAddr: 0x100009CF4, symSize: 0x24 }
  - { offset: 0x2D5F5, size: 0x8, addend: 0x0, symName: __ZNK9__gnu_cxx17__normal_iteratorIPiNSt9__cxx19986vectorIiSaIiEEEEplEl, symObjAddr: 0x94CC, symBinAddr: 0x100009CB4, symSize: 0x40 }
  - { offset: 0x2D62C, size: 0x8, addend: 0x0, symName: __ZSt14__copy_move_a2ILb0EPKiPiET1_T0_S4_S3_, symObjAddr: 0x94A0, symBinAddr: 0x100009C88, symSize: 0x2C }
  - { offset: 0x2D6DC, size: 0x8, addend: 0x0, symName: __ZN11__gnu_debug16_Error_formatter10_ParameterC1IiEERKPKT_PKcNS0_12_Is_iteratorE, symObjAddr: 0x93F0, symBinAddr: 0x100009BD8, symSize: 0xB0 }
  - { offset: 0x2D726, size: 0x8, addend: 0x0, symName: __ZNK9__gnu_cxx17__normal_iteratorIPKiNSt9__cxx19986vectorIiSaIiEEEE4baseEv, symObjAddr: 0x93DC, symBinAddr: 0x100009BC4, symSize: 0x14 }
  - { offset: 0x2D74C, size: 0x8, addend: 0x0, symName: __ZN11__gnu_debug14__get_distanceIN9__gnu_cxx17__normal_iteratorIPKiNSt9__cxx19986vectorIiSaIiEEEEEEENS_16_Distance_traitsIT_NSt12__is_integerISB_E6__typeEE6__typeESB_SB_, symObjAddr: 0x93B4, symBinAddr: 0x100009B9C, symSize: 0x28 }
  - { offset: 0x2D7AE, size: 0x8, addend: 0x0, symName: __ZN11__gnu_debug17__valid_range_auxIN9__gnu_cxx17__normal_iteratorIPKiNSt9__cxx19986vectorIiSaIiEEEEEEEbT_SA_St18input_iterator_tag, symObjAddr: 0x933C, symBinAddr: 0x100009B24, symSize: 0x78 }
  - { offset: 0x2D7F9, size: 0x8, addend: 0x0, symName: __ZN11__gnu_debug16__check_singularIN9__gnu_cxx17__normal_iteratorIPKiNSt9__cxx19986vectorIiSaIiEEEEEEEbRKT_, symObjAddr: 0x92EC, symBinAddr: 0x100009AD4, symSize: 0x50 }
  - { offset: 0x2D844, size: 0x8, addend: 0x0, symName: __ZNSt20__uninitialized_copyILb1EE13__uninit_copyIN9__gnu_cxx17__normal_iteratorIPKiNSt9__cxx19986vectorIiSaIiEEEEEPiEET0_T_SD_SC_, symObjAddr: 0x92C0, symBinAddr: 0x100009AA8, symSize: 0x2C }
  - { offset: 0x2D8A3, size: 0x8, addend: 0x0, symName: __ZNSt15__new_allocatorIiE8allocateEmPKv, symObjAddr: 0x9244, symBinAddr: 0x100009A2C, symSize: 0x7C }
  - { offset: 0x2D92B, size: 0x8, addend: 0x0, symName: __ZSt12__relocate_aIPiS0_SaIiEET0_T_S3_S2_RT1_, symObjAddr: 0x91E8, symBinAddr: 0x1000099D0, symSize: 0x5C }
  - { offset: 0x2D9A7, size: 0x8, addend: 0x0, symName: __ZNKSt9__cxx19986vectorIiSaIiEE8max_sizeEv, symObjAddr: 0x91C8, symBinAddr: 0x1000099B0, symSize: 0x20 }
  - { offset: 0x2DA57, size: 0x8, addend: 0x0, symName: __ZSt12__to_addressINSt8__detail10_Hash_nodeISt4pairIKiiELb0EEEEPT_S7_, symObjAddr: 0x91B4, symBinAddr: 0x10000999C, symSize: 0x14 }
  - { offset: 0x2DAD8, size: 0x8, addend: 0x0, symName: __ZNSt10_Head_baseILm0ERKiLb0EEC2ES1_, symObjAddr: 0x9190, symBinAddr: 0x100009978, symSize: 0x24 }
  - { offset: 0x2DB07, size: 0x8, addend: 0x0, symName: __ZN9__gnu_cxx16__aligned_bufferISt4pairIKiiEE6_M_ptrEv, symObjAddr: 0x9174, symBinAddr: 0x10000995C, symSize: 0x1C }
  - { offset: 0x2DB31, size: 0x8, addend: 0x0, symName: __ZNKSt10_HashtableIiSt4pairIKiiESaIS2_ENSt8__detail10_Select1stESt8equal_toIiESt4hashIiENS4_18_Mod_range_hashingENS4_20_Default_ranged_hashENS4_20_Prime_rehash_policyENS4_17_Hashtable_traitsILb0ELb0ELb1EEEE15_M_bucket_indexERKNS4_16_Hash_node_valueIS2_Lb0EEE, symObjAddr: 0x9144, symBinAddr: 0x10000992C, symSize: 0x30 }
  - { offset: 0x2DB6C, size: 0x8, addend: 0x0, symName: __ZNKSt8__detail15_Hashtable_baseIiSt4pairIKiiENS_10_Select1stESt8equal_toIiESt4hashIiENS_18_Mod_range_hashingENS_20_Default_ranged_hashENS_17_Hashtable_traitsILb0ELb0ELb1EEEE9_M_equalsERS2_mRKNS_16_Hash_node_valueIS3_Lb0EEE, symObjAddr: 0x90E4, symBinAddr: 0x1000098CC, symSize: 0x60 }
  - { offset: 0x2DBC9, size: 0x8, addend: 0x0, symName: __ZNKSt8__detail21_Hashtable_ebo_helperILi1ESt4hashIiELb1EE7_M_cgetEv, symObjAddr: 0x90D0, symBinAddr: 0x1000098B8, symSize: 0x14 }
  - { offset: 0x2DBF5, size: 0x8, addend: 0x0, symName: __ZSt7forwardIRKSt4pairIKiiEEOT_RNSt16remove_referenceIS5_E4typeE, symObjAddr: 0x90BC, symBinAddr: 0x1000098A4, symSize: 0x14 }
  - { offset: 0x2DC69, size: 0x8, addend: 0x0, symName: __ZNSt8__detail19_Node_iterator_baseISt4pairIKiiELb0EEC2EPNS_10_Hash_nodeIS3_Lb0EEE, symObjAddr: 0x9098, symBinAddr: 0x100009880, symSize: 0x24 }
  - { offset: 0x2DC98, size: 0x8, addend: 0x0, symName: __ZNKSt8equal_toIiEclERKiS2_, symObjAddr: 0x9064, symBinAddr: 0x10000984C, symSize: 0x34 }
  - { offset: 0x2DCE4, size: 0x8, addend: 0x0, symName: __ZNKSt8__detail15_Hashtable_baseIiSt4pairIKiiENS_10_Select1stESt8equal_toIiESt4hashIiENS_18_Mod_range_hashingENS_20_Default_ranged_hashENS_17_Hashtable_traitsILb0ELb0ELb1EEEE5_M_eqEv, symObjAddr: 0x9048, symBinAddr: 0x100009830, symSize: 0x1C }
  - { offset: 0x2DD0A, size: 0x8, addend: 0x0, symName: __ZNSt8__detail22_Hashtable_hash_traitsISt4hashIiEE22__small_size_thresholdEv, symObjAddr: 0x9040, symBinAddr: 0x100009828, symSize: 0x8 }
  - { offset: 0x2DD26, size: 0x8, addend: 0x0, symName: __ZNKSt8__detail15_Hash_code_baseIiSt4pairIKiiENS_10_Select1stESt4hashIiENS_18_Mod_range_hashingENS_20_Default_ranged_hashELb0EE15_M_bucket_indexERKNS_16_Hash_node_valueIS3_Lb0EEEm, symObjAddr: 0x8FDC, symBinAddr: 0x1000097C4, symSize: 0x64 }
  - { offset: 0x2DDBA, size: 0x8, addend: 0x0, symName: __ZNSt10_HashtableIiSt4pairIKiiESaIS2_ENSt8__detail10_Select1stESt8equal_toIiESt4hashIiENS4_18_Mod_range_hashingENS4_20_Default_ranged_hashENS4_20_Prime_rehash_policyENS4_17_Hashtable_traitsILb0ELb0ELb1EEEE19_M_allocate_bucketsEm, symObjAddr: 0x8F84, symBinAddr: 0x10000976C, symSize: 0x58 }
  - { offset: 0x2DDF1, size: 0x8, addend: 0x0, symName: __ZSt11__addressofINSt8__detail20_Prime_rehash_policyEEPT_RS2_, symObjAddr: 0x8F70, symBinAddr: 0x100009758, symSize: 0x14 }
  - { offset: 0x2DE99, size: 0x8, addend: 0x0, symName: __ZNSt19__ptr_traits_ptr_toIPPNSt8__detail15_Hash_node_baseES2_Lb0EE10pointer_toERS2_, symObjAddr: 0x8F54, symBinAddr: 0x10000973C, symSize: 0x1C }
  - { offset: 0x2DEC6, size: 0x8, addend: 0x0, symName: __ZNSt8__detail16_Hashtable_allocISaINS_10_Hash_nodeISt4pairIKiiELb0EEEEE22_M_deallocate_node_ptrEPS5_, symObjAddr: 0x8EFC, symBinAddr: 0x1000096E4, symSize: 0x58 }
  - { offset: 0x2DF75, size: 0x8, addend: 0x0, symName: __ZNSt8__detail16_Hashtable_allocISaINS_10_Hash_nodeISt4pairIKiiELb0EEEEE17_M_node_allocatorEv, symObjAddr: 0x8EE0, symBinAddr: 0x1000096C8, symSize: 0x1C }
  - { offset: 0x2DF9B, size: 0x8, addend: 0x0, symName: __ZSt25__uninitialized_default_nIPimET_S1_T0_, symObjAddr: 0x8EB4, symBinAddr: 0x10000969C, symSize: 0x2C }
  - { offset: 0x2E02E, size: 0x8, addend: 0x0, symName: __ZNSt9__cxx19985dequeIiSaIiEE22_M_reserve_map_at_backEm, symObjAddr: 0x8E54, symBinAddr: 0x10000963C, symSize: 0x60 }
  - { offset: 0x2E069, size: 0x8, addend: 0x0, symName: __ZNKSt9__cxx19985dequeIiSaIiEE8max_sizeEv, symObjAddr: 0x8E34, symBinAddr: 0x10000961C, symSize: 0x20 }
  - { offset: 0x2E0C1, size: 0x8, addend: 0x0, symName: __ZNSt9__cxx1998eqERKNS_15_Deque_iteratorIiRKiPS1_EES6_, symObjAddr: 0x8E04, symBinAddr: 0x1000095EC, symSize: 0x30 }
  - { offset: 0x2E100, size: 0x8, addend: 0x0, symName: __ZNKSt9__cxx199815_Deque_iteratorIiRiPiEdeEv, symObjAddr: 0x8DEC, symBinAddr: 0x1000095D4, symSize: 0x18 }
  - { offset: 0x2E12C, size: 0x8, addend: 0x0, symName: __ZNSt9__cxx1998plERKNS_15_Deque_iteratorIiRiPiEEl, symObjAddr: 0x8DA8, symBinAddr: 0x100009590, symSize: 0x44 }
  - { offset: 0x2E178, size: 0x8, addend: 0x0, symName: __ZSt11__addressofIKNSt7__debug5dequeIiSaIiEEEEPT_RS5_, symObjAddr: 0x8D94, symBinAddr: 0x10000957C, symSize: 0x14 }
  - { offset: 0x2E1AE, size: 0x8, addend: 0x0, symName: __ZNSt15__new_allocatorIPiE10deallocateEPS0_m, symObjAddr: 0x8D64, symBinAddr: 0x10000954C, symSize: 0x30 }
  - { offset: 0x2E21C, size: 0x8, addend: 0x0, symName: __ZNSt15__new_allocatorIPiED2Ev, symObjAddr: 0x8D50, symBinAddr: 0x100009538, symSize: 0x14 }
  - { offset: 0x2E266, size: 0x8, addend: 0x0, symName: __ZNKSt9__cxx199811_Deque_baseIiSaIiEE19_M_get_Tp_allocatorEv, symObjAddr: 0x8D3C, symBinAddr: 0x100009524, symSize: 0x14 }
  - { offset: 0x2E290, size: 0x8, addend: 0x0, symName: __ZNSt9__cxx199811_Deque_baseIiSaIiEE16_M_allocate_nodeEv, symObjAddr: 0x8CF8, symBinAddr: 0x1000094E0, symSize: 0x44 }
  - { offset: 0x2E325, size: 0x8, addend: 0x0, symName: __ZNSt9__cxx199815_Deque_iteratorIiRiPiEC1Ev, symObjAddr: 0x8CC4, symBinAddr: 0x1000094AC, symSize: 0x34 }
  - { offset: 0x2E347, size: 0x8, addend: 0x0, symName: __ZSt26__unguarded_insertion_sortIN11__gnu_debug14_Safe_iteratorIN9__gnu_cxx17__normal_iteratorIPiNSt9__cxx19986vectorIiSaIiEEEEENSt7__debug6vectorIiS7_EESt26random_access_iterator_tagEENS2_5__ops15_Iter_less_iterEEvT_SH_T0_, symObjAddr: 0x8C20, symBinAddr: 0x100009408, symSize: 0xA4 }
  - { offset: 0x2E3C3, size: 0x8, addend: 0x0, symName: __ZSt16__insertion_sortIN11__gnu_debug14_Safe_iteratorIN9__gnu_cxx17__normal_iteratorIPiNSt9__cxx19986vectorIiSaIiEEEEENSt7__debug6vectorIiS7_EESt26random_access_iterator_tagEENS2_5__ops15_Iter_less_iterEEvT_SH_T0_, symObjAddr: 0x8A54, symBinAddr: 0x10000923C, symSize: 0x1CC }
  - { offset: 0x2E458, size: 0x8, addend: 0x0, symName: __ZN11__gnu_debugplERKNS_14_Safe_iteratorIN9__gnu_cxx17__normal_iteratorIPiNSt9__cxx19986vectorIiSaIiEEEEENSt7__debug6vectorIiS6_EESt26random_access_iterator_tagEEl, symObjAddr: 0x897C, symBinAddr: 0x100009164, symSize: 0xD8 }
  - { offset: 0x2E4BB, size: 0x8, addend: 0x0, symName: __ZN11__gnu_debug14_Safe_iteratorIN9__gnu_cxx17__normal_iteratorIPiNSt9__cxx19986vectorIiSaIiEEEEENSt7__debug6vectorIiS6_EESt20forward_iterator_tagEaSERKSD_, symObjAddr: 0x87BC, symBinAddr: 0x100008FA4, symSize: 0x1C0 }
  - { offset: 0x2E54E, size: 0x8, addend: 0x0, symName: __ZSt27__unguarded_partition_pivotIN11__gnu_debug14_Safe_iteratorIN9__gnu_cxx17__normal_iteratorIPiNSt9__cxx19986vectorIiSaIiEEEEENSt7__debug6vectorIiS7_EESt26random_access_iterator_tagEENS2_5__ops15_Iter_less_iterEET_SH_SH_T0_, symObjAddr: 0x8624, symBinAddr: 0x100008E0C, symSize: 0x198 }
  - { offset: 0x2E5C3, size: 0x8, addend: 0x0, symName: __ZSt14__partial_sortIN11__gnu_debug14_Safe_iteratorIN9__gnu_cxx17__normal_iteratorIPiNSt9__cxx19986vectorIiSaIiEEEEENSt7__debug6vectorIiS7_EESt26random_access_iterator_tagEENS2_5__ops15_Iter_less_iterEEvT_SH_SH_T0_, symObjAddr: 0x8530, symBinAddr: 0x100008D18, symSize: 0xF4 }
  - { offset: 0x2E639, size: 0x8, addend: 0x0, symName: __ZN9__gnu_cxxneIPiNSt9__cxx19986vectorIiSaIiEEEEEbRKNS_17__normal_iteratorIT_T0_EESB_, symObjAddr: 0x84EC, symBinAddr: 0x100008CD4, symSize: 0x44 }
  - { offset: 0x2E6CF, size: 0x8, addend: 0x0, symName: __ZN11__gnu_debug14_Safe_iteratorIN9__gnu_cxx17__normal_iteratorIPiNSt9__cxx19986vectorIiSaIiEEEEENSt7__debug6vectorIiS6_EESt20forward_iterator_tagEC2ERKSD_, symObjAddr: 0x83D4, symBinAddr: 0x100008BBC, symSize: 0x118 }
  - { offset: 0x2E782, size: 0x8, addend: 0x0, symName: __ZN11__gnu_debug16_Error_formatter10_ParameterC1IN9__gnu_cxx17__normal_iteratorIPiNSt9__cxx19986vectorIiSaIiEEEEENSt7__debug6vectorIiS8_EESt20forward_iterator_tagEERKNS_14_Safe_iteratorIT_T0_T1_EEPKcNS0_12_Is_iteratorE, symObjAddr: 0x826C, symBinAddr: 0x100008A54, symSize: 0x168 }
  - { offset: 0x2E7DE, size: 0x8, addend: 0x0, symName: __ZNK9__gnu_cxx17__normal_iteratorIPiNSt9__cxx19986vectorIiSaIiEEEE4baseEv, symObjAddr: 0x8258, symBinAddr: 0x100008A40, symSize: 0x14 }
  - { offset: 0x2E822, size: 0x8, addend: 0x0, symName: __ZN9__gnu_cxx17__normal_iteratorIPiNSt9__cxx19986vectorIiSaIiEEEEC1Ev, symObjAddr: 0x823C, symBinAddr: 0x100008A24, symSize: 0x1C }
  - { offset: 0x2E84C, size: 0x8, addend: 0x0, symName: __ZN9__gnu_cxx17__normal_iteratorIPiNSt9__cxx19986vectorIiSaIiEEEEC2Ev, symObjAddr: 0x8220, symBinAddr: 0x100008A08, symSize: 0x1C }
  - { offset: 0x2E872, size: 0x8, addend: 0x0, symName: __ZNK11__gnu_debug14_Safe_iteratorIN9__gnu_cxx17__normal_iteratorIPiNSt9__cxx19986vectorIiSaIiEEEEENSt7__debug6vectorIiS6_EESt20forward_iterator_tagE11_M_is_beginEv, symObjAddr: 0x81D4, symBinAddr: 0x1000089BC, symSize: 0x4C }
  - { offset: 0x2E89C, size: 0x8, addend: 0x0, symName: __ZNK11__gnu_debug14_Safe_iteratorIN9__gnu_cxx17__normal_iteratorIPiNSt9__cxx19986vectorIiSaIiEEEEENSt7__debug6vectorIiS6_EESt20forward_iterator_tagE9_M_is_endEv, symObjAddr: 0x8188, symBinAddr: 0x100008970, symSize: 0x4C }
  - { offset: 0x2E8C6, size: 0x8, addend: 0x0, symName: __ZNK11__gnu_debug14_Safe_iteratorIN9__gnu_cxx17__normal_iteratorIPiNSt9__cxx19986vectorIiSaIiEEEEENSt7__debug6vectorIiS6_EESt20forward_iterator_tagE18_M_is_before_beginEv, symObjAddr: 0x816C, symBinAddr: 0x100008954, symSize: 0x1C }
  - { offset: 0x2E8F0, size: 0x8, addend: 0x0, symName: __ZNK11__gnu_debug14_Safe_iteratorIN9__gnu_cxx17__normal_iteratorIPiNSt9__cxx19986vectorIiSaIiEEEEENSt7__debug6vectorIiS6_EESt20forward_iterator_tagE15_M_get_sequenceEv, symObjAddr: 0x8154, symBinAddr: 0x10000893C, symSize: 0x18 }
  - { offset: 0x2E916, size: 0x8, addend: 0x0, symName: __ZSt11__addressofIKN11__gnu_debug14_Safe_iteratorIN9__gnu_cxx17__normal_iteratorIPiNSt9__cxx19986vectorIiSaIiEEEEENSt7__debug6vectorIiS7_EESt26random_access_iterator_tagEEEPT_RSG_, symObjAddr: 0x8140, symBinAddr: 0x100008928, symSize: 0x14 }
  - { offset: 0x2E94C, size: 0x8, addend: 0x0, symName: __ZNSt4pairIlN11__gnu_debug19_Distance_precisionEEaSEOS2_, symObjAddr: 0x80F8, symBinAddr: 0x1000088E0, symSize: 0x48 }
  - { offset: 0x2E983, size: 0x8, addend: 0x0, symName: __ZSt9make_pairIlN11__gnu_debug19_Distance_precisionEESt4pairINSt25__strip_reference_wrapperINSt5decayIT_E4typeEE6__typeENS3_INS4_IT0_E4typeEE6__typeEEOS5_OSA_, symObjAddr: 0x80AC, symBinAddr: 0x100008894, symSize: 0x4C }
  - { offset: 0x2E9D4, size: 0x8, addend: 0x0, symName: __ZNSt4pairIlN11__gnu_debug19_Distance_precisionEEaSIiS1_EENSt9enable_ifIXsrSt6__and_IJSt13is_assignableIRlOT_ES6_IRS1_OT0_EEE5valueERS2_E4typeEOS_IS8_SC_E, symObjAddr: 0x8060, symBinAddr: 0x100008848, symSize: 0x4C }
  - { offset: 0x2EA1D, size: 0x8, addend: 0x0, symName: __ZSt9make_pairIiN11__gnu_debug19_Distance_precisionEESt4pairINSt25__strip_reference_wrapperINSt5decayIT_E4typeEE6__typeENS3_INS4_IT0_E4typeEE6__typeEEOS5_OSA_, symObjAddr: 0x8014, symBinAddr: 0x1000087FC, symSize: 0x4C }
  - { offset: 0x2EAA2, size: 0x8, addend: 0x0, symName: __ZN11__gnu_debug14_Safe_iteratorIN9__gnu_cxx17__normal_iteratorIPiNSt9__cxx19986vectorIiSaIiEEEEENSt7__debug6vectorIiS6_EESt20forward_iterator_tagEC2ES8_PKNS_19_Safe_sequence_baseE, symObjAddr: 0x7FC4, symBinAddr: 0x1000087AC, symSize: 0x50 }
  - { offset: 0x2EAD6, size: 0x8, addend: 0x0, symName: __ZNSt20__uninitialized_copyILb1EE13__uninit_copyIPiS2_EET0_T_S4_S3_, symObjAddr: 0x7F98, symBinAddr: 0x100008780, symSize: 0x2C }
  - { offset: 0x2EB31, size: 0x8, addend: 0x0, symName: __ZSt12__niter_wrapIPiET_RKS1_S1_, symObjAddr: 0x7F80, symBinAddr: 0x100008768, symSize: 0x18 }
  - { offset: 0x2EB6D, size: 0x8, addend: 0x0, symName: __ZSt14__copy_move_a1ILb0EPiS0_ET1_T0_S2_S1_, symObjAddr: 0x7F54, symBinAddr: 0x10000873C, symSize: 0x2C }
  - { offset: 0x2EBD5, size: 0x8, addend: 0x0, symName: __ZSt12__niter_baseIPiET_S1_, symObjAddr: 0x7F40, symBinAddr: 0x100008728, symSize: 0x14 }
  - { offset: 0x2EC50, size: 0x8, addend: 0x0, symName: __ZN11__gnu_debug16_Error_formatter10_ParameterC1IiEERKPT_PKcNS0_12_Is_iteratorE, symObjAddr: 0x7E90, symBinAddr: 0x100008678, symSize: 0xB0 }
  - { offset: 0x2EC9C, size: 0x8, addend: 0x0, symName: __ZN11__gnu_debug17__valid_range_auxIPiEEbT_S2_RNS_16_Distance_traitsIS2_NSt12__is_integerIS2_E6__typeEE6__typeESt12__false_type, symObjAddr: 0x7DBC, symBinAddr: 0x1000085A4, symSize: 0xD4 }
  - { offset: 0x2ECF7, size: 0x8, addend: 0x0, symName: __ZNSt12_Destroy_auxILb1EE9__destroyIN9__gnu_cxx17__normal_iteratorIPiNSt9__cxx19986vectorIiSaIiEEEEEEEvT_SA_, symObjAddr: 0x7DA4, symBinAddr: 0x10000858C, symSize: 0x18 }
  - { offset: 0x2ED2B, size: 0x8, addend: 0x0, symName: __ZSt12__niter_wrapIN9__gnu_cxx17__normal_iteratorIPiNSt9__cxx19986vectorIiSaIiEEEEES2_ET_S8_T0_, symObjAddr: 0x7D5C, symBinAddr: 0x100008544, symSize: 0x48 }
  - { offset: 0x2ED78, size: 0x8, addend: 0x0, symName: __ZSt14__copy_move_a1ILb0EPKiPiET1_T0_S4_S3_, symObjAddr: 0x7D30, symBinAddr: 0x100008518, symSize: 0x2C }
  - { offset: 0x2EDE0, size: 0x8, addend: 0x0, symName: __ZSt12__niter_baseIPiNSt9__cxx19986vectorIiSaIiEEEET_N9__gnu_cxx17__normal_iteratorIS5_T0_EE, symObjAddr: 0x7D10, symBinAddr: 0x1000084F8, symSize: 0x20 }
  - { offset: 0x2EE1C, size: 0x8, addend: 0x0, symName: __ZSt12__niter_baseIPKiNSt9__cxx19986vectorIiSaIiEEEET_N9__gnu_cxx17__normal_iteratorIS6_T0_EE, symObjAddr: 0x7CF0, symBinAddr: 0x1000084D8, symSize: 0x20 }
  - { offset: 0x2EEA9, size: 0x8, addend: 0x0, symName: __ZN11__gnu_debug16_Error_formatter10_ParameterC1IPiNSt9__cxx19986vectorIiSaIiEEEEERKN9__gnu_cxx17__normal_iteratorIT_T0_EEPKcNS0_12_Is_iteratorE, symObjAddr: 0x7C98, symBinAddr: 0x100008480, symSize: 0x58 }
  - { offset: 0x2EF49, size: 0x8, addend: 0x0, symName: __ZN11__gnu_debug16_Error_formatter10_ParameterC1IPKiNSt9__cxx19986vectorIiSaIiEEEEERKN9__gnu_cxx17__normal_iteratorIT_T0_EEPKcNS0_12_Is_iteratorE, symObjAddr: 0x7C40, symBinAddr: 0x100008428, symSize: 0x58 }
  - { offset: 0x2EF9E, size: 0x8, addend: 0x0, symName: __ZN11__gnu_debug17__valid_range_auxIN9__gnu_cxx17__normal_iteratorIPKiNSt9__cxx19986vectorIiSaIiEEEEEEEbT_SA_RNS_16_Distance_traitsISA_NSt12__is_integerISA_E6__typeEE6__typeESt12__false_type, symObjAddr: 0x7B6C, symBinAddr: 0x100008354, symSize: 0xD4 }
  - { offset: 0x2EFF9, size: 0x8, addend: 0x0, symName: __ZSt18uninitialized_copyIN9__gnu_cxx17__normal_iteratorIPKiNSt9__cxx19986vectorIiSaIiEEEEEPiET0_T_SB_SA_, symObjAddr: 0x7B30, symBinAddr: 0x100008318, symSize: 0x3C }
  - { offset: 0x2F098, size: 0x8, addend: 0x0, symName: __ZNSt9__cxx19986vectorIiSaIiEE11_S_relocateEPiS3_S3_RS1_, symObjAddr: 0x7AFC, symBinAddr: 0x1000082E4, symSize: 0x34 }
  - { offset: 0x2F0F5, size: 0x8, addend: 0x0, symName: __ZSt12__to_addressIiEPT_S1_, symObjAddr: 0x7AE8, symBinAddr: 0x1000082D0, symSize: 0x14 }
  - { offset: 0x2F127, size: 0x8, addend: 0x0, symName: __ZN9__gnu_cxxmiIPiNSt9__cxx19986vectorIiSaIiEEEEENS_17__normal_iteratorIT_T0_E15difference_typeERKS9_SC_, symObjAddr: 0x7AA8, symBinAddr: 0x100008290, symSize: 0x40 }
  - { offset: 0x2F178, size: 0x8, addend: 0x0, symName: __ZNKSt9__cxx19986vectorIiSaIiEE12_M_check_lenEmPKc, symObjAddr: 0x79D8, symBinAddr: 0x1000081C0, symSize: 0xD0 }
  - { offset: 0x2F219, size: 0x8, addend: 0x0, symName: __ZSt7forwardIRKiEOT_RNSt16remove_referenceIS2_E4typeE, symObjAddr: 0x79C4, symBinAddr: 0x1000081AC, symSize: 0x14 }
  - { offset: 0x2F24B, size: 0x8, addend: 0x0, symName: __ZN11__gnu_debug18_BeforeBeginHelperINSt7__debug13unordered_mapIiiSt4hashIiESt8equal_toIiESaISt4pairIKiiEEEEE5_S_IsINSt8__detail14_Node_iteratorIS9_Lb0ELb0EEESt20forward_iterator_tagEEbRKNS_14_Safe_iteratorIT_SB_T0_EE, symObjAddr: 0x79B0, symBinAddr: 0x100008198, symSize: 0x14 }
  - { offset: 0x2F283, size: 0x8, addend: 0x0, symName: __ZNSt7__debug13unordered_mapIiiSt4hashIiESt8equal_toIiESaISt4pairIKiiEEE7_M_baseEv, symObjAddr: 0x7998, symBinAddr: 0x100008180, symSize: 0x18 }
  - { offset: 0x2F2AD, size: 0x8, addend: 0x0, symName: __ZNK11__gnu_debug14_Safe_iteratorINSt8__detail14_Node_iteratorISt4pairIKiiELb0ELb0EEENSt7__debug13unordered_mapIiiSt4hashIiESt8equal_toIiESaIS5_EEESt20forward_iterator_tagE11_M_is_beginEv, symObjAddr: 0x794C, symBinAddr: 0x100008134, symSize: 0x4C }
  - { offset: 0x2F2D7, size: 0x8, addend: 0x0, symName: __ZNK11__gnu_debug14_Safe_iteratorINSt8__detail14_Node_iteratorISt4pairIKiiELb0ELb0EEENSt7__debug13unordered_mapIiiSt4hashIiESt8equal_toIiESaIS5_EEESt20forward_iterator_tagE15_M_get_sequenceEv, symObjAddr: 0x7934, symBinAddr: 0x10000811C, symSize: 0x18 }
  - { offset: 0x2F2FD, size: 0x8, addend: 0x0, symName: __ZSt11__addressofIKN11__gnu_debug14_Safe_iteratorINSt8__detail14_Node_iteratorISt4pairIKiiELb0ELb0EEENSt7__debug13unordered_mapIiiSt4hashIiESt8equal_toIiESaIS6_EEESt20forward_iterator_tagEEEPT_RSJ_, symObjAddr: 0x7920, symBinAddr: 0x100008108, symSize: 0x14 }
  - { offset: 0x2F333, size: 0x8, addend: 0x0, symName: __ZNSt15__new_allocatorIiE10deallocateEPim, symObjAddr: 0x78F0, symBinAddr: 0x1000080D8, symSize: 0x30 }
  - { offset: 0x2F3A5, size: 0x8, addend: 0x0, symName: __ZNSt8__detail14_Node_iteratorISt4pairIKiiELb0ELb0EEC1EPNS_10_Hash_nodeIS3_Lb0EEE, symObjAddr: 0x78C8, symBinAddr: 0x1000080B0, symSize: 0x28 }
  - { offset: 0x2F3D4, size: 0x8, addend: 0x0, symName: __ZNSt10_HashtableIiSt4pairIKiiESaIS2_ENSt8__detail10_Select1stESt8equal_toIiESt4hashIiENS4_18_Mod_range_hashingENS4_20_Default_ranged_hashENS4_20_Prime_rehash_policyENS4_17_Hashtable_traitsILb0ELb0ELb1EEEE22_M_insert_bucket_beginEmPNS4_10_Hash_nodeIS2_Lb0EEE, symObjAddr: 0x77BC, symBinAddr: 0x100007FA4, symSize: 0x10C }
  - { offset: 0x2F420, size: 0x8, addend: 0x0, symName: __ZNKSt8__detail15_Hash_code_baseIiSt4pairIKiiENS_10_Select1stESt4hashIiENS_18_Mod_range_hashingENS_20_Default_ranged_hashELb0EE13_M_store_codeERNS_21_Hash_node_code_cacheILb0EEEm, symObjAddr: 0x77A0, symBinAddr: 0x100007F88, symSize: 0x1C }
  - { offset: 0x2F45C, size: 0x8, addend: 0x0, symName: __ZNSt8__detail16_Hashtable_allocISaINS_10_Hash_nodeISt4pairIKiiELb0EEEEE16_M_allocate_nodeIJRKSt21piecewise_construct_tSt5tupleIJRS3_EESC_IJEEEEEPS5_DpOT_, symObjAddr: 0x75B4, symBinAddr: 0x100007D9C, symSize: 0x1EC }
  - { offset: 0x2F62C, size: 0x8, addend: 0x0, symName: __ZNSt8__detail10_Hash_nodeISt4pairIKiiELb0EEC1Ev, symObjAddr: 0x7594, symBinAddr: 0x100007D7C, symSize: 0x20 }
  - { offset: 0x2F654, size: 0x8, addend: 0x0, symName: __ZSt7forwardISt5tupleIJEEEOT_RNSt16remove_referenceIS2_E4typeE, symObjAddr: 0x7580, symBinAddr: 0x100007D68, symSize: 0x14 }
  - { offset: 0x2F68C, size: 0x8, addend: 0x0, symName: __ZSt7forwardISt5tupleIJRKiEEEOT_RNSt16remove_referenceIS4_E4typeE, symObjAddr: 0x756C, symBinAddr: 0x100007D54, symSize: 0x14 }
  - { offset: 0x2F6C4, size: 0x8, addend: 0x0, symName: __ZSt7forwardIRKSt21piecewise_construct_tEOT_RNSt16remove_referenceIS3_E4typeE, symObjAddr: 0x7558, symBinAddr: 0x100007D40, symSize: 0x14 }
  - { offset: 0x2F722, size: 0x8, addend: 0x0, symName: __ZNSt11_Tuple_implILm0EJRKiEEC2ES1_, symObjAddr: 0x7530, symBinAddr: 0x100007D18, symSize: 0x28 }
  - { offset: 0x2F767, size: 0x8, addend: 0x0, symName: __ZNKSt10_HashtableIiSt4pairIKiiESaIS2_ENSt8__detail10_Select1stESt8equal_toIiESt4hashIiENS4_18_Mod_range_hashingENS4_20_Default_ranged_hashENS4_20_Prime_rehash_policyENS4_17_Hashtable_traitsILb0ELb0ELb1EEEE19_M_find_before_nodeEmRS1_m, symObjAddr: 0x7434, symBinAddr: 0x100007C1C, symSize: 0xFC }
  - { offset: 0x2F7F9, size: 0x8, addend: 0x0, symName: __ZNKSt8__detail15_Hash_code_baseIiSt4pairIKiiENS_10_Select1stESt4hashIiENS_18_Mod_range_hashingENS_20_Default_ranged_hashELb0EE15_M_bucket_indexEmm, symObjAddr: 0x7408, symBinAddr: 0x100007BF0, symSize: 0x2C }
  - { offset: 0x2F845, size: 0x8, addend: 0x0, symName: __ZNKSt8__detail15_Hash_code_baseIiSt4pairIKiiENS_10_Select1stESt4hashIiENS_18_Mod_range_hashingENS_20_Default_ranged_hashELb0EE7_M_hashEv, symObjAddr: 0x73EC, symBinAddr: 0x100007BD4, symSize: 0x1C }
  - { offset: 0x2F87A, size: 0x8, addend: 0x0, symName: __ZNKSt8__detail10_Select1stclIRKSt4pairIKiiEEEONS0_10__1st_typeIT_E4typeEOS8_, symObjAddr: 0x73CC, symBinAddr: 0x100007BB4, symSize: 0x20 }
  - { offset: 0x2F8D3, size: 0x8, addend: 0x0, symName: __ZNKSt10_HashtableIiSt4pairIKiiESaIS2_ENSt8__detail10_Select1stESt8equal_toIiESt4hashIiENS4_18_Mod_range_hashingENS4_20_Default_ranged_hashENS4_20_Prime_rehash_policyENS4_17_Hashtable_traitsILb0ELb0ELb1EEEE3endEv, symObjAddr: 0x73A8, symBinAddr: 0x100007B90, symSize: 0x24 }
  - { offset: 0x2F925, size: 0x8, addend: 0x0, symName: __ZNSt8__detail20_Node_const_iteratorISt4pairIKiiELb0ELb0EEC1EPNS_10_Hash_nodeIS3_Lb0EEE, symObjAddr: 0x7380, symBinAddr: 0x100007B68, symSize: 0x28 }
  - { offset: 0x2F954, size: 0x8, addend: 0x0, symName: __ZNKSt8__detail15_Hashtable_baseIiSt4pairIKiiENS_10_Select1stESt8equal_toIiESt4hashIiENS_18_Mod_range_hashingENS_20_Default_ranged_hashENS_17_Hashtable_traitsILb0ELb0ELb1EEEE13_M_key_equalsERS2_RKNS_16_Hash_node_valueIS3_Lb0EEE, symObjAddr: 0x7314, symBinAddr: 0x100007AFC, symSize: 0x6C }
  - { offset: 0x2F9E4, size: 0x8, addend: 0x0, symName: __ZNSt10_HashtableIiSt4pairIKiiESaIS2_ENSt8__detail10_Select1stESt8equal_toIiESt4hashIiENS4_18_Mod_range_hashingENS4_20_Default_ranged_hashENS4_20_Prime_rehash_policyENS4_17_Hashtable_traitsILb0ELb0ELb1EEEE22__small_size_thresholdEv, symObjAddr: 0x7300, symBinAddr: 0x100007AE8, symSize: 0x14 }
  - { offset: 0x2FA00, size: 0x8, addend: 0x0, symName: __ZNKSt10_HashtableIiSt4pairIKiiESaIS2_ENSt8__detail10_Select1stESt8equal_toIiESt4hashIiENS4_18_Mod_range_hashingENS4_20_Default_ranged_hashENS4_20_Prime_rehash_policyENS4_17_Hashtable_traitsILb0ELb0ELb1EEEE4sizeEv, symObjAddr: 0x72E8, symBinAddr: 0x100007AD0, symSize: 0x18 }
  - { offset: 0x2FA2A, size: 0x8, addend: 0x0, symName: __ZNSt10_HashtableIiSt4pairIKiiESaIS2_ENSt8__detail10_Select1stESt8equal_toIiESt4hashIiENS4_18_Mod_range_hashingENS4_20_Default_ranged_hashENS4_20_Prime_rehash_policyENS4_17_Hashtable_traitsILb0ELb0ELb1EEEE9_M_rehashEmSt17integral_constantIbLb1EE, symObjAddr: 0x717C, symBinAddr: 0x100007964, symSize: 0x16C }
  - { offset: 0x2FAFB, size: 0x8, addend: 0x0, symName: __ZNSt8__detail17_RehashStateGuardINS_20_Prime_rehash_policyEED1Ev, symObjAddr: 0x7138, symBinAddr: 0x100007920, symSize: 0x44 }
  - { offset: 0x2FB49, size: 0x8, addend: 0x0, symName: __ZNSt8__detail17_RehashStateGuardINS_20_Prime_rehash_policyEEC1ERS1_, symObjAddr: 0x70F4, symBinAddr: 0x1000078DC, symSize: 0x44 }
  - { offset: 0x2FB78, size: 0x8, addend: 0x0, symName: __ZNSt8__detail16_Hashtable_allocISaINS_10_Hash_nodeISt4pairIKiiELb0EEEEE21_M_deallocate_bucketsEPPNS_15_Hash_node_baseEm, symObjAddr: 0x707C, symBinAddr: 0x100007864, symSize: 0x78 }
  - { offset: 0x2FC88, size: 0x8, addend: 0x0, symName: __ZNKSt10_HashtableIiSt4pairIKiiESaIS2_ENSt8__detail10_Select1stESt8equal_toIiESt4hashIiENS4_18_Mod_range_hashingENS4_20_Default_ranged_hashENS4_20_Prime_rehash_policyENS4_17_Hashtable_traitsILb0ELb0ELb1EEEE21_M_uses_single_bucketEPPNS4_15_Hash_node_baseE, symObjAddr: 0x7040, symBinAddr: 0x100007828, symSize: 0x3C }
  - { offset: 0x2FCC3, size: 0x8, addend: 0x0, symName: __ZNSt8__detail16_Hashtable_allocISaINS_10_Hash_nodeISt4pairIKiiELb0EEEEE18_M_deallocate_nodeEPS5_, symObjAddr: 0x6FCC, symBinAddr: 0x1000077B4, symSize: 0x74 }
  - { offset: 0x2FD7C, size: 0x8, addend: 0x0, symName: __ZNKSt8__detail10_Hash_nodeISt4pairIKiiELb0EE7_M_nextEv, symObjAddr: 0x6FB4, symBinAddr: 0x10000779C, symSize: 0x18 }
  - { offset: 0x2FDA2, size: 0x8, addend: 0x0, symName: __ZSt11__addressofIKNSt7__debug6vectorIiSaIiEEEEPT_RS5_, symObjAddr: 0x6FA0, symBinAddr: 0x100007788, symSize: 0x14 }
  - { offset: 0x2FDD4, size: 0x8, addend: 0x0, symName: __ZNSt12_Destroy_auxILb1EE9__destroyIPiEEvT_S3_, symObjAddr: 0x6F88, symBinAddr: 0x100007770, symSize: 0x18 }
  - { offset: 0x2FE08, size: 0x8, addend: 0x0, symName: __ZSt27__uninitialized_default_n_aIPimiET_S1_T0_RSaIT1_E, symObjAddr: 0x6F60, symBinAddr: 0x100007748, symSize: 0x28 }
  - { offset: 0x2FE6B, size: 0x8, addend: 0x0, symName: __ZNSt9__cxx199812_Vector_baseIiSaIiEE17_M_create_storageEm, symObjAddr: 0x6F00, symBinAddr: 0x1000076E8, symSize: 0x60 }
  - { offset: 0x2FECD, size: 0x8, addend: 0x0, symName: __ZNSt9__cxx199812_Vector_baseIiSaIiEE12_Vector_implC1ERKS1_, symObjAddr: 0x6EB4, symBinAddr: 0x10000769C, symSize: 0x4C }
  - { offset: 0x2FF73, size: 0x8, addend: 0x0, symName: __ZNSt9__cxx19986vectorIiSaIiEE11_S_max_sizeERKS1_, symObjAddr: 0x6E60, symBinAddr: 0x100007648, symSize: 0x54 }
  - { offset: 0x3002A, size: 0x8, addend: 0x0, symName: __ZSt13__countl_zeroImEiT_, symObjAddr: 0x6E0C, symBinAddr: 0x1000075F4, symSize: 0x54 }
  - { offset: 0x300C3, size: 0x8, addend: 0x0, symName: __ZNSt9__cxx19985dequeIiSaIiEE15_M_erase_at_endENS_15_Deque_iteratorIiRiPiEE, symObjAddr: 0x6D68, symBinAddr: 0x100007550, symSize: 0xA4 }
  - { offset: 0x30101, size: 0x8, addend: 0x0, symName: __ZNSt9__cxx19985dequeIiSaIiEE16_M_push_back_auxIJRKiEEEvDpOT_, symObjAddr: 0x6C48, symBinAddr: 0x100007430, symSize: 0x120 }
  - { offset: 0x301B2, size: 0x8, addend: 0x0, symName: __ZNSt9__cxx19985dequeIiSaIiEE16_M_pop_front_auxEv, symObjAddr: 0x6BB4, symBinAddr: 0x10000739C, symSize: 0x94 }
  - { offset: 0x30263, size: 0x8, addend: 0x0, symName: __ZN11__gnu_debug14_Safe_iteratorINSt9__cxx199815_Deque_iteratorIiRKiPS3_EENSt7__debug5dequeIiSaIiEEESt20forward_iterator_tagE4baseEv, symObjAddr: 0x6BA0, symBinAddr: 0x100007388, symSize: 0x14 }
  - { offset: 0x3028D, size: 0x8, addend: 0x0, symName: __ZNK11__gnu_debug9_Equal_toINSt9__cxx199815_Deque_iteratorIiRKiPS3_EEEclERKS6_, symObjAddr: 0x6B7C, symBinAddr: 0x100007364, symSize: 0x24 }
  - { offset: 0x302C7, size: 0x8, addend: 0x0, symName: __ZN11__gnu_debug14_Safe_iteratorINSt9__cxx199815_Deque_iteratorIiRiPiEENSt7__debug5dequeIiSaIiEEESt20forward_iterator_tagE4baseEv, symObjAddr: 0x6B68, symBinAddr: 0x100007350, symSize: 0x14 }
  - { offset: 0x30318, size: 0x8, addend: 0x0, symName: __ZNSt9__cxx199815_Deque_iteratorIiRKiPS1_EC1ERKS4_, symObjAddr: 0x6B10, symBinAddr: 0x1000072F8, symSize: 0x58 }
  - { offset: 0x30343, size: 0x8, addend: 0x0, symName: __ZNSt9__cxx1998eqERKNS_15_Deque_iteratorIiRiPiEES5_, symObjAddr: 0x6AE0, symBinAddr: 0x1000072C8, symSize: 0x30 }
  - { offset: 0x30382, size: 0x8, addend: 0x0, symName: __ZNKSt9__cxx199815_Deque_iteratorIiRiPiEixEl, symObjAddr: 0x6AAC, symBinAddr: 0x100007294, symSize: 0x34 }
  - { offset: 0x30400, size: 0x8, addend: 0x0, symName: __ZN11__gnu_debug16_Error_formatter10_ParameterC1INSt7__debug5dequeIiSaIiEEEEERKT_PKcNS0_12_Is_sequenceE, symObjAddr: 0x6A38, symBinAddr: 0x100007220, symSize: 0x74 }
  - { offset: 0x30446, size: 0x8, addend: 0x0, symName: __ZNSt9__cxx199815_Deque_iteratorIiRiPiE14_S_buffer_sizeEv, symObjAddr: 0x6A20, symBinAddr: 0x100007208, symSize: 0x18 }
  - { offset: 0x30489, size: 0x8, addend: 0x0, symName: __ZNSt9__cxx199815_Deque_iteratorIiRiPiEC1ERKS3_, symObjAddr: 0x69C8, symBinAddr: 0x1000071B0, symSize: 0x58 }
  - { offset: 0x3050A, size: 0x8, addend: 0x0, symName: __ZNKSt9__cxx199811_Deque_baseIiSaIiEE20_M_get_map_allocatorEv, symObjAddr: 0x6980, symBinAddr: 0x100007168, symSize: 0x48 }
  - { offset: 0x30584, size: 0x8, addend: 0x0, symName: __ZNSt9__cxx199811_Deque_baseIiSaIiEE18_M_deallocate_nodeEPi, symObjAddr: 0x6928, symBinAddr: 0x100007110, symSize: 0x58 }
  - { offset: 0x305F5, size: 0x8, addend: 0x0, symName: __ZNSt9__cxx199815_Deque_iteratorIiRiPiE11_M_set_nodeEPS2_, symObjAddr: 0x68CC, symBinAddr: 0x1000070B4, symSize: 0x5C }
  - { offset: 0x30630, size: 0x8, addend: 0x0, symName: __ZNSt9__cxx199811_Deque_baseIiSaIiEE15_M_create_nodesEPPiS4_, symObjAddr: 0x6840, symBinAddr: 0x100007028, symSize: 0x8C }
  - { offset: 0x3068D, size: 0x8, addend: 0x0, symName: __ZNSt9__cxx199811_Deque_baseIiSaIiEE15_M_allocate_mapEm, symObjAddr: 0x67C0, symBinAddr: 0x100006FA8, symSize: 0x80 }
  - { offset: 0x3075F, size: 0x8, addend: 0x0, symName: __ZNSt9__cxx199811_Deque_baseIiSaIiEE16_Deque_impl_dataC2Ev, symObjAddr: 0x6780, symBinAddr: 0x100006F68, symSize: 0x40 }
  - { offset: 0x30781, size: 0x8, addend: 0x0, symName: __ZSt22__final_insertion_sortIN11__gnu_debug14_Safe_iteratorIN9__gnu_cxx17__normal_iteratorIPiNSt9__cxx19986vectorIiSaIiEEEEENSt7__debug6vectorIiS7_EESt26random_access_iterator_tagEENS2_5__ops15_Iter_less_iterEEvT_SH_T0_, symObjAddr: 0x661C, symBinAddr: 0x100006E04, symSize: 0x164 }
  - { offset: 0x307E4, size: 0x8, addend: 0x0, symName: __ZSt16__introsort_loopIN11__gnu_debug14_Safe_iteratorIN9__gnu_cxx17__normal_iteratorIPiNSt9__cxx19986vectorIiSaIiEEEEENSt7__debug6vectorIiS7_EESt26random_access_iterator_tagEElNS2_5__ops15_Iter_less_iterEEvT_SH_T0_T1_, symObjAddr: 0x645C, symBinAddr: 0x100006C44, symSize: 0x1C0 }
  - { offset: 0x3087F, size: 0x8, addend: 0x0, symName: __ZN11__gnu_debug14_Safe_iteratorIN9__gnu_cxx17__normal_iteratorIPiNSt9__cxx19986vectorIiSaIiEEEEENSt7__debug6vectorIiS6_EESt26random_access_iterator_tagEaSERKSD_, symObjAddr: 0x6434, symBinAddr: 0x100006C1C, symSize: 0x28 }
  - { offset: 0x308B2, size: 0x8, addend: 0x0, symName: __ZN11__gnu_debug14_Safe_iteratorIN9__gnu_cxx17__normal_iteratorIPiNSt9__cxx19986vectorIiSaIiEEEEENSt7__debug6vectorIiS6_EESt26bidirectional_iterator_tagEaSERKSD_, symObjAddr: 0x640C, symBinAddr: 0x100006BF4, symSize: 0x28 }
  - { offset: 0x308E1, size: 0x8, addend: 0x0, symName: __ZSt4__lgIlET_S0_, symObjAddr: 0x63E8, symBinAddr: 0x100006BD0, symSize: 0x24 }
  - { offset: 0x30914, size: 0x8, addend: 0x0, symName: __ZN11__gnu_debugmiERKNS_14_Safe_iteratorIN9__gnu_cxx17__normal_iteratorIPiNSt9__cxx19986vectorIiSaIiEEEEENSt7__debug6vectorIiS6_EESt26random_access_iterator_tagEESF_, symObjAddr: 0x61F8, symBinAddr: 0x1000069E0, symSize: 0x1F0 }
  - { offset: 0x3098D, size: 0x8, addend: 0x0, symName: __ZN11__gnu_debugneERKNS_14_Safe_iteratorIN9__gnu_cxx17__normal_iteratorIPiNSt9__cxx19986vectorIiSaIiEEEEENSt7__debug6vectorIiS6_EESt26random_access_iterator_tagEESF_, symObjAddr: 0x6008, symBinAddr: 0x1000067F0, symSize: 0x1F0 }
  - { offset: 0x30A2C, size: 0x8, addend: 0x0, symName: __ZN11__gnu_debug14_Safe_iteratorIN9__gnu_cxx17__normal_iteratorIPiNSt9__cxx19986vectorIiSaIiEEEEENSt7__debug6vectorIiS6_EESt26bidirectional_iterator_tagEC2ERKSD_, symObjAddr: 0x5FE0, symBinAddr: 0x1000067C8, symSize: 0x28 }
  - { offset: 0x30A9F, size: 0x8, addend: 0x0, symName: __ZN11__gnu_debug16_Error_formatter10_ParameterC1INS_14_Safe_iteratorIN9__gnu_cxx17__normal_iteratorIPiNSt9__cxx19986vectorIiSaIiEEEEENSt7__debug6vectorIiS9_EESt26random_access_iterator_tagEEEERKT_PKcNS0_23_Is_iterator_value_typeE, symObjAddr: 0x5F84, symBinAddr: 0x10000676C, symSize: 0x5C }
  - { offset: 0x30AE9, size: 0x8, addend: 0x0, symName: __ZNK9__gnu_cxx17__normal_iteratorIPiNSt9__cxx19986vectorIiSaIiEEEEdeEv, symObjAddr: 0x5F6C, symBinAddr: 0x100006754, symSize: 0x18 }
  - { offset: 0x30B13, size: 0x8, addend: 0x0, symName: __ZN11__gnu_debug16_Error_formatter11_M_iteratorINS_14_Safe_iteratorIN9__gnu_cxx17__normal_iteratorIPiNSt9__cxx19986vectorIiSaIiEEEEENSt7__debug6vectorIiS8_EESt20forward_iterator_tagEEEERS0_RKT_PKc, symObjAddr: 0x5ED0, symBinAddr: 0x1000066B8, symSize: 0x9C }
  - { offset: 0x30B6B, size: 0x8, addend: 0x0, symName: __ZNK11__gnu_debug14_Safe_iteratorIN9__gnu_cxx17__normal_iteratorIPiNSt9__cxx19986vectorIiSaIiEEEEENSt7__debug6vectorIiS6_EESt20forward_iterator_tagE18_M_dereferenceableEv, symObjAddr: 0x5E58, symBinAddr: 0x100006640, symSize: 0x78 }
  - { offset: 0x30B91, size: 0x8, addend: 0x0, symName: __ZN9__gnu_cxxeqIPiNSt9__cxx19986vectorIiSaIiEEEEEbRKNS_17__normal_iteratorIT_T0_EESB_, symObjAddr: 0x5E14, symBinAddr: 0x1000065FC, symSize: 0x44 }
  - { offset: 0x30BE2, size: 0x8, addend: 0x0, symName: __ZNK11__gnu_debug14_Safe_iteratorIN9__gnu_cxx17__normal_iteratorIPiNSt9__cxx19986vectorIiSaIiEEEEENSt7__debug6vectorIiS6_EESt20forward_iterator_tagE4baseEv, symObjAddr: 0x5E00, symBinAddr: 0x1000065E8, symSize: 0x14 }
  - { offset: 0x30C0C, size: 0x8, addend: 0x0, symName: __ZNK11__gnu_debug14_Safe_iteratorIN9__gnu_cxx17__normal_iteratorIPiNSt9__cxx19986vectorIiSaIiEEEEENSt7__debug6vectorIiS6_EESt20forward_iterator_tagE20_M_value_initializedEv, symObjAddr: 0x5D98, symBinAddr: 0x100006580, symSize: 0x68 }
  - { offset: 0x30C8C, size: 0x8, addend: 0x0, symName: __ZN11__gnu_debug16_Error_formatter10_ParameterC1IN9__gnu_cxx17__normal_iteratorIPiNSt9__cxx19986vectorIiSaIiEEEEENSt7__debug6vectorIiS8_EESt26random_access_iterator_tagEERKNS_14_Safe_iteratorIT_T0_T1_EEPKcNS0_12_Is_iteratorE, symObjAddr: 0x5C30, symBinAddr: 0x100006418, symSize: 0x168 }
  - { offset: 0x30CE4, size: 0x8, addend: 0x0, symName: __ZN11__gnu_debug14_Safe_iteratorIN9__gnu_cxx17__normal_iteratorIPiNSt9__cxx19986vectorIiSaIiEEEEENSt7__debug6vectorIiS6_EESt20forward_iterator_tagE11_S_constantEv, symObjAddr: 0x5C28, symBinAddr: 0x100006410, symSize: 0x8 }
  - { offset: 0x30D00, size: 0x8, addend: 0x0, symName: __ZNK11__gnu_debug14_Safe_iteratorIN9__gnu_cxx17__normal_iteratorIPiNSt9__cxx19986vectorIiSaIiEEEEENSt7__debug6vectorIiS6_EESt26random_access_iterator_tagE14_M_valid_rangeERKSD_RSt4pairIlNS_19_Distance_precisionEE, symObjAddr: 0x5A98, symBinAddr: 0x100006280, symSize: 0x190 }
  - { offset: 0x30D81, size: 0x8, addend: 0x0, symName: __ZN11__gnu_debug14_Safe_iteratorIN9__gnu_cxx17__normal_iteratorIPiNSt9__cxx19986vectorIiSaIiEEEEENSt7__debug6vectorIiS6_EESt26bidirectional_iterator_tagEC2ES8_PKNS_19_Safe_sequence_baseE, symObjAddr: 0x5A68, symBinAddr: 0x100006250, symSize: 0x30 }
  - { offset: 0x30DB5, size: 0x8, addend: 0x0, symName: __ZSt18uninitialized_copyIPiS0_ET0_T_S2_S1_, symObjAddr: 0x5A2C, symBinAddr: 0x100006214, symSize: 0x3C }
  - { offset: 0x30E30, size: 0x8, addend: 0x0, symName: __ZSt13__copy_move_aILb0EPiS0_ET1_T0_S2_S1_, symObjAddr: 0x59CC, symBinAddr: 0x1000061B4, symSize: 0x60 }
  - { offset: 0x30E98, size: 0x8, addend: 0x0, symName: __ZSt12__miter_baseIPiET_S1_, symObjAddr: 0x59B8, symBinAddr: 0x1000061A0, symSize: 0x14 }
  - { offset: 0x30ECB, size: 0x8, addend: 0x0, symName: __ZN11__gnu_debug13__can_advanceIPilEEbT_RKSt4pairIT0_NS_19_Distance_precisionEEi, symObjAddr: 0x599C, symBinAddr: 0x100006184, symSize: 0x1C }
  - { offset: 0x30F15, size: 0x8, addend: 0x0, symName: __ZN11__gnu_debug16_Error_formatter11_M_iteratorIPiEERS0_RKT_PKc, symObjAddr: 0x5900, symBinAddr: 0x1000060E8, symSize: 0x9C }
  - { offset: 0x30F69, size: 0x8, addend: 0x0, symName: __ZN11__gnu_debug13__valid_rangeIPiEEbT_S2_RNS_16_Distance_traitsIS2_NSt12__is_integerIS2_E6__typeEE6__typeE, symObjAddr: 0x58D4, symBinAddr: 0x1000060BC, symSize: 0x2C }
  - { offset: 0x30FBB, size: 0x8, addend: 0x0, symName: __ZSt8_DestroyIN9__gnu_cxx17__normal_iteratorIPiNSt9__cxx19986vectorIiSaIiEEEEEEvT_S8_, symObjAddr: 0x58AC, symBinAddr: 0x100006094, symSize: 0x28 }
  - { offset: 0x30FFD, size: 0x8, addend: 0x0, symName: __ZSt13__copy_move_aILb0EN9__gnu_cxx17__normal_iteratorIPKiNSt9__cxx19986vectorIiSaIiEEEEENS1_IPiS7_EEET1_T0_SC_SB_, symObjAddr: 0x584C, symBinAddr: 0x100006034, symSize: 0x60 }
  - { offset: 0x31065, size: 0x8, addend: 0x0, symName: __ZSt12__miter_baseIN9__gnu_cxx17__normal_iteratorIPKiNSt9__cxx19986vectorIiSaIiEEEEEET_S9_, symObjAddr: 0x5838, symBinAddr: 0x100006020, symSize: 0x14 }
  - { offset: 0x3109C, size: 0x8, addend: 0x0, symName: __ZN11__gnu_debug16_Error_formatter11_M_iteratorIN9__gnu_cxx17__normal_iteratorIPiNSt9__cxx19986vectorIiSaIiEEEEEEERS0_RKT_PKc, symObjAddr: 0x579C, symBinAddr: 0x100005F84, symSize: 0x9C }
  - { offset: 0x310F0, size: 0x8, addend: 0x0, symName: __ZN11__gnu_debug13__can_advanceIN9__gnu_cxx17__normal_iteratorIPiNSt9__cxx19986vectorIiSaIiEEEEElEEbT_RKSt4pairIT0_NS_19_Distance_precisionEEi, symObjAddr: 0x5780, symBinAddr: 0x100005F68, symSize: 0x1C }
  - { offset: 0x3113A, size: 0x8, addend: 0x0, symName: __ZN11__gnu_debug16_Error_formatter11_M_iteratorIN9__gnu_cxx17__normal_iteratorIPKiNSt9__cxx19986vectorIiSaIiEEEEEEERS0_RKT_PKc, symObjAddr: 0x56E4, symBinAddr: 0x100005ECC, symSize: 0x9C }
  - { offset: 0x3118E, size: 0x8, addend: 0x0, symName: __ZN11__gnu_debug13__valid_rangeIN9__gnu_cxx17__normal_iteratorIPKiNSt9__cxx19986vectorIiSaIiEEEEEEEbT_SA_RNS_16_Distance_traitsISA_NSt12__is_integerISA_E6__typeEE6__typeE, symObjAddr: 0x56B8, symBinAddr: 0x100005EA0, symSize: 0x2C }
  - { offset: 0x3120C, size: 0x8, addend: 0x0, symName: __ZN9__gnu_cxx17__normal_iteratorIPiNSt9__cxx19986vectorIiSaIiEEEEC1ERKS1_, symObjAddr: 0x5690, symBinAddr: 0x100005E78, symSize: 0x28 }
  - { offset: 0x31237, size: 0x8, addend: 0x0, symName: __ZSt22__uninitialized_copy_aIN9__gnu_cxx17__normal_iteratorIPKiNSt9__cxx19986vectorIiSaIiEEEEEPiiET0_T_SB_SA_RSaIT1_E, symObjAddr: 0x5660, symBinAddr: 0x100005E48, symSize: 0x30 }
  - { offset: 0x312AB, size: 0x8, addend: 0x0, symName: __ZNSt9__cxx199812_Vector_baseIiSaIiEE11_M_allocateEm, symObjAddr: 0x5610, symBinAddr: 0x100005DF8, symSize: 0x50 }
  - { offset: 0x3133B, size: 0x8, addend: 0x0, symName: __ZN9__gnu_cxx17__normal_iteratorIPKiNSt9__cxx19986vectorIiSaIiEEEEC1ERKS2_, symObjAddr: 0x55E8, symBinAddr: 0x100005DD0, symSize: 0x28 }
  - { offset: 0x3136A, size: 0x8, addend: 0x0, symName: __ZNSt9__cxx19986vectorIiSaIiEE15_M_erase_at_endEPi, symObjAddr: 0x5560, symBinAddr: 0x100005D48, symSize: 0x88 }
  - { offset: 0x313FF, size: 0x8, addend: 0x0, symName: __ZNKSt7__debug6vectorIiSaIiEE8capacityEv, symObjAddr: 0x551C, symBinAddr: 0x100005D04, symSize: 0x44 }
  - { offset: 0x31443, size: 0x8, addend: 0x0, symName: __ZNSt9__cxx19986vectorIiSaIiEE17_M_realloc_appendIJRKiEEEvDpOT_, symObjAddr: 0x5360, symBinAddr: 0x100005B48, symSize: 0x1BC }
  - { offset: 0x315C7, size: 0x8, addend: 0x0, symName: __ZZNSt9__cxx19986vectorIiSaIiEE17_M_realloc_appendIJRKiEEEvDpOT_EN6_GuardC1EPimRS1_, symObjAddr: 0x52BC, symBinAddr: 0x100005AA4, symSize: 0x44 }
  - { offset: 0x3160C, size: 0x8, addend: 0x0, symName: __ZZNSt9__cxx19986vectorIiSaIiEE17_M_realloc_appendIJRKiEEEvDpOT_EN6_GuardD1Ev, symObjAddr: 0x5300, symBinAddr: 0x100005AE8, symSize: 0x60 }
  - { offset: 0x31743, size: 0x8, addend: 0x0, symName: __ZNK11__gnu_debug14_Safe_iteratorINSt8__detail14_Node_iteratorISt4pairIKiiELb0ELb0EEENSt7__debug13unordered_mapIiiSt4hashIiESt8equal_toIiESaIS5_EEESt20forward_iterator_tagE18_M_is_before_beginEv, symObjAddr: 0x52A0, symBinAddr: 0x100005A88, symSize: 0x1C }
  - { offset: 0x3176D, size: 0x8, addend: 0x0, symName: __ZNK11__gnu_debug14_Safe_iteratorINSt8__detail14_Node_iteratorISt4pairIKiiELb0ELb0EEENSt7__debug13unordered_mapIiiSt4hashIiESt8equal_toIiESaIS5_EEESt20forward_iterator_tagE9_M_is_endEv, symObjAddr: 0x5254, symBinAddr: 0x100005A3C, symSize: 0x4C }
  - { offset: 0x31797, size: 0x8, addend: 0x0, symName: __ZNSt8__detail19_Node_iterator_baseISt4pairIKiiELb0EE7_M_incrEv, symObjAddr: 0x5224, symBinAddr: 0x100005A0C, symSize: 0x30 }
  - { offset: 0x31817, size: 0x8, addend: 0x0, symName: __ZN11__gnu_debug16_Error_formatter10_ParameterC1INSt8__detail14_Node_iteratorISt4pairIKiiELb0ELb0EEENSt7__debug13unordered_mapIiiSt4hashIiESt8equal_toIiESaIS7_EEESt20forward_iterator_tagEERKNS_14_Safe_iteratorIT_T0_T1_EEPKcNS0_12_Is_iteratorE, symObjAddr: 0x50BC, symBinAddr: 0x1000058A4, symSize: 0x168 }
  - { offset: 0x31875, size: 0x8, addend: 0x0, symName: __ZNSt8__detaileqERKNS_19_Node_iterator_baseISt4pairIKiiELb0EEES6_, symObjAddr: 0x508C, symBinAddr: 0x100005874, symSize: 0x30 }
  - { offset: 0x318CE, size: 0x8, addend: 0x0, symName: __ZNSt8__detail19_Node_iterator_baseISt4pairIKiiELb0EEC2Ev, symObjAddr: 0x5070, symBinAddr: 0x100005858, symSize: 0x1C }
  - { offset: 0x318F4, size: 0x8, addend: 0x0, symName: __ZNSt10_HashtableIiSt4pairIKiiESaIS2_ENSt8__detail10_Select1stESt8equal_toIiESt4hashIiENS4_18_Mod_range_hashingENS4_20_Default_ranged_hashENS4_20_Prime_rehash_policyENS4_17_Hashtable_traitsILb0ELb0ELb1EEEE3endEv, symObjAddr: 0x504C, symBinAddr: 0x100005834, symSize: 0x24 }
  - { offset: 0x3191A, size: 0x8, addend: 0x0, symName: __ZN11__gnu_debug14_Safe_iteratorINSt8__detail14_Node_iteratorISt4pairIKiiELb0ELb0EEENSt7__debug13unordered_mapIiiSt4hashIiESt8equal_toIiESaIS5_EEESt20forward_iterator_tagE11_S_constantEv, symObjAddr: 0x5044, symBinAddr: 0x10000582C, symSize: 0x8 }
  - { offset: 0x31936, size: 0x8, addend: 0x0, symName: __ZNSt10_HashtableIiSt4pairIKiiESaIS2_ENSt8__detail10_Select1stESt8equal_toIiESt4hashIiENS4_18_Mod_range_hashingENS4_20_Default_ranged_hashENS4_20_Prime_rehash_policyENS4_17_Hashtable_traitsILb0ELb0ELb1EEEE5beginEv, symObjAddr: 0x5018, symBinAddr: 0x100005800, symSize: 0x2C }
  - { offset: 0x31960, size: 0x8, addend: 0x0, symName: __ZNK11__gnu_debug12_Safe_vectorINSt7__debug6vectorIiSaIiEEENSt9__cxx19986vectorIiS3_EEE6_M_seqEv, symObjAddr: 0x5000, symBinAddr: 0x1000057E8, symSize: 0x18 }
  - { offset: 0x319BC, size: 0x8, addend: 0x0, symName: __ZNKSt8__detail14_Node_iteratorISt4pairIKiiELb0ELb0EEptEv, symObjAddr: 0x4FD0, symBinAddr: 0x1000057B8, symSize: 0x30 }
  - { offset: 0x31A0A, size: 0x8, addend: 0x0, symName: __ZNSt10_HashtableIiSt4pairIKiiESaIS2_ENSt8__detail10_Select1stESt8equal_toIiESt4hashIiENS4_18_Mod_range_hashingENS4_20_Default_ranged_hashENS4_20_Prime_rehash_policyENS4_17_Hashtable_traitsILb0ELb0ELb1EEEE21_M_insert_unique_nodeEmmPNS4_10_Hash_nodeIS2_Lb0EEEm, symObjAddr: 0x4EC0, symBinAddr: 0x1000056A8, symSize: 0x110 }
  - { offset: 0x31AC1, size: 0x8, addend: 0x0, symName: __ZNSt10_HashtableIiSt4pairIKiiESaIS2_ENSt8__detail10_Select1stESt8equal_toIiESt4hashIiENS4_18_Mod_range_hashingENS4_20_Default_ranged_hashENS4_20_Prime_rehash_policyENS4_17_Hashtable_traitsILb0ELb0ELb1EEEE12_Scoped_nodeD1Ev, symObjAddr: 0x4E7C, symBinAddr: 0x100005664, symSize: 0x44 }
  - { offset: 0x31B3A, size: 0x8, addend: 0x0, symName: __ZNSt10_HashtableIiSt4pairIKiiESaIS2_ENSt8__detail10_Select1stESt8equal_toIiESt4hashIiENS4_18_Mod_range_hashingENS4_20_Default_ranged_hashENS4_20_Prime_rehash_policyENS4_17_Hashtable_traitsILb0ELb0ELb1EEEE12_Scoped_nodeC1IJRKSt21piecewise_construct_tSt5tupleIJRS1_EESL_IJEEEEEPNS4_16_Hashtable_allocISaINS4_10_Hash_nodeIS2_Lb0EEEEEEDpOT_, symObjAddr: 0x4DF4, symBinAddr: 0x1000055DC, symSize: 0x88 }
  - { offset: 0x31BD2, size: 0x8, addend: 0x0, symName: __ZNSt5tupleIJRKiEEC1ILb1ELb1EEES1_, symObjAddr: 0x4DCC, symBinAddr: 0x1000055B4, symSize: 0x28 }
  - { offset: 0x31C21, size: 0x8, addend: 0x0, symName: __ZNKSt10_HashtableIiSt4pairIKiiESaIS2_ENSt8__detail10_Select1stESt8equal_toIiESt4hashIiENS4_18_Mod_range_hashingENS4_20_Default_ranged_hashENS4_20_Prime_rehash_policyENS4_17_Hashtable_traitsILb0ELb0ELb1EEEE12_M_find_nodeEmRS1_m, symObjAddr: 0x4D78, symBinAddr: 0x100005560, symSize: 0x54 }
  - { offset: 0x31C8F, size: 0x8, addend: 0x0, symName: __ZNKSt10_HashtableIiSt4pairIKiiESaIS2_ENSt8__detail10_Select1stESt8equal_toIiESt4hashIiENS4_18_Mod_range_hashingENS4_20_Default_ranged_hashENS4_20_Prime_rehash_policyENS4_17_Hashtable_traitsILb0ELb0ELb1EEEE15_M_bucket_indexEm, symObjAddr: 0x4D48, symBinAddr: 0x100005530, symSize: 0x30 }
  - { offset: 0x31CCA, size: 0x8, addend: 0x0, symName: __ZNKSt8__detail15_Hash_code_baseIiSt4pairIKiiENS_10_Select1stESt4hashIiENS_18_Mod_range_hashingENS_20_Default_ranged_hashELb0EE12_M_hash_codeERS2_, symObjAddr: 0x4D10, symBinAddr: 0x1000054F8, symSize: 0x38 }
  - { offset: 0x31D05, size: 0x8, addend: 0x0, symName: __ZNKSt10_HashtableIiSt4pairIKiiESaIS2_ENSt8__detail10_Select1stESt8equal_toIiESt4hashIiENS4_18_Mod_range_hashingENS4_20_Default_ranged_hashENS4_20_Prime_rehash_policyENS4_17_Hashtable_traitsILb0ELb0ELb1EEEE4findERS1_, symObjAddr: 0x4C18, symBinAddr: 0x100005400, symSize: 0xF8 }
  - { offset: 0x31D86, size: 0x8, addend: 0x0, symName: __ZNSt10_HashtableIiSt4pairIKiiESaIS2_ENSt8__detail10_Select1stESt8equal_toIiESt4hashIiENS4_18_Mod_range_hashingENS4_20_Default_ranged_hashENS4_20_Prime_rehash_policyENS4_17_Hashtable_traitsILb0ELb0ELb1EEEE6rehashEm, symObjAddr: 0x4B50, symBinAddr: 0x100005338, symSize: 0xC8 }
  - { offset: 0x31DD2, size: 0x8, addend: 0x0, symName: __ZNKSt10_HashtableIiSt4pairIKiiESaIS2_ENSt8__detail10_Select1stESt8equal_toIiESt4hashIiENS4_18_Mod_range_hashingENS4_20_Default_ranged_hashENS4_20_Prime_rehash_policyENS4_17_Hashtable_traitsILb0ELb0ELb1EEEE15__rehash_policyEv, symObjAddr: 0x4B38, symBinAddr: 0x100005320, symSize: 0x18 }
  - { offset: 0x31DFC, size: 0x8, addend: 0x0, symName: __ZNSt10_HashtableIiSt4pairIKiiESaIS2_ENSt8__detail10_Select1stESt8equal_toIiESt4hashIiENS4_18_Mod_range_hashingENS4_20_Default_ranged_hashENS4_20_Prime_rehash_policyENS4_17_Hashtable_traitsILb0ELb0ELb1EEEE21_M_deallocate_bucketsEPPNS4_15_Hash_node_baseEm, symObjAddr: 0x4AEC, symBinAddr: 0x1000052D4, symSize: 0x4C }
  - { offset: 0x31E48, size: 0x8, addend: 0x0, symName: __ZNSt8__detail16_Hashtable_allocISaINS_10_Hash_nodeISt4pairIKiiELb0EEEEE19_M_deallocate_nodesEPS5_, symObjAddr: 0x4A9C, symBinAddr: 0x100005284, symSize: 0x50 }
  - { offset: 0x31EA7, size: 0x8, addend: 0x0, symName: __ZNKSt10_HashtableIiSt4pairIKiiESaIS2_ENSt8__detail10_Select1stESt8equal_toIiESt4hashIiENS4_18_Mod_range_hashingENS4_20_Default_ranged_hashENS4_20_Prime_rehash_policyENS4_17_Hashtable_traitsILb0ELb0ELb1EEEE8_M_beginEv, symObjAddr: 0x4A84, symBinAddr: 0x10000526C, symSize: 0x18 }
  - { offset: 0x31F2B, size: 0x8, addend: 0x0, symName: __ZN11__gnu_debug16_Error_formatter10_ParameterC1INSt7__debug6vectorIiSaIiEEEEERKT_PKcNS0_12_Is_sequenceE, symObjAddr: 0x4A10, symBinAddr: 0x1000051F8, symSize: 0x74 }
  - { offset: 0x31F71, size: 0x8, addend: 0x0, symName: __ZSt8_DestroyIPiEvT_S1_, symObjAddr: 0x49E8, symBinAddr: 0x1000051D0, symSize: 0x28 }
  - { offset: 0x31FB7, size: 0x8, addend: 0x0, symName: __ZNSt9__cxx19986vectorIiSaIiEE21_M_default_initializeEm, symObjAddr: 0x4998, symBinAddr: 0x100005180, symSize: 0x50 }
  - { offset: 0x32028, size: 0x8, addend: 0x0, symName: __ZNSt9__cxx199812_Vector_baseIiSaIiEEC2EmRKS1_, symObjAddr: 0x4944, symBinAddr: 0x10000512C, symSize: 0x54 }
  - { offset: 0x3205C, size: 0x8, addend: 0x0, symName: __ZNSt9__cxx19986vectorIiSaIiEE17_S_check_init_lenEmRKS1_, symObjAddr: 0x48C0, symBinAddr: 0x1000050A8, symSize: 0x84 }
  - { offset: 0x3210E, size: 0x8, addend: 0x0, symName: __ZSt11__bit_widthImEiT_, symObjAddr: 0x4890, symBinAddr: 0x100005078, symSize: 0x30 }
  - { offset: 0x32156, size: 0x8, addend: 0x0, symName: __ZNSt9__cxx19985dequeIiSaIiEE5clearEv, symObjAddr: 0x4858, symBinAddr: 0x100005040, symSize: 0x38 }
  - { offset: 0x32180, size: 0x8, addend: 0x0, symName: __ZNSt9__cxx19985dequeIiSaIiEE9push_backERKi, symObjAddr: 0x478C, symBinAddr: 0x100004F74, symSize: 0xCC }
  - { offset: 0x32227, size: 0x8, addend: 0x0, symName: __ZNSt9__cxx19985dequeIiSaIiEE9pop_frontEv, symObjAddr: 0x46C0, symBinAddr: 0x100004EA8, symSize: 0xCC }
  - { offset: 0x322D3, size: 0x8, addend: 0x0, symName: __ZN11__gnu_debug14_Safe_sequenceINSt7__debug5dequeIiSaIiEEEE16_M_invalidate_ifINS_9_Equal_toINSt9__cxx199815_Deque_iteratorIiRKiPSA_EEEEEEvT_, symObjAddr: 0x4524, symBinAddr: 0x100004D0C, symSize: 0x19C }
  - { offset: 0x32401, size: 0x8, addend: 0x0, symName: __ZN11__gnu_debug9_Equal_toINSt9__cxx199815_Deque_iteratorIiRKiPS3_EEEC1ERKS6_, symObjAddr: 0x44FC, symBinAddr: 0x100004CE4, symSize: 0x28 }
  - { offset: 0x32460, size: 0x8, addend: 0x0, symName: __ZNSt9__cxx199815_Deque_iteratorIiRKiPS1_EC1INS0_IiRiPiEEvEERKT_, symObjAddr: 0x44A4, symBinAddr: 0x100004C8C, symSize: 0x58 }
  - { offset: 0x32498, size: 0x8, addend: 0x0, symName: __ZNKSt9__cxx19985dequeIiSaIiEE5emptyEv, symObjAddr: 0x4474, symBinAddr: 0x100004C5C, symSize: 0x30 }
  - { offset: 0x324C2, size: 0x8, addend: 0x0, symName: __ZNSt9__cxx19985dequeIiSaIiEEixEm, symObjAddr: 0x43F4, symBinAddr: 0x100004BDC, symSize: 0x80 }
  - { offset: 0x3251A, size: 0x8, addend: 0x0, symName: __ZN11__gnu_debug16_Error_formatter11_M_sequenceINSt7__debug5dequeIiSaIiEEEEERS0_RKT_PKc, symObjAddr: 0x4358, symBinAddr: 0x100004B40, symSize: 0x9C }
  - { offset: 0x3256E, size: 0x8, addend: 0x0, symName: __ZNSt9__cxx1998miERKNS_15_Deque_iteratorIiRiPiEES5_, symObjAddr: 0x42C4, symBinAddr: 0x100004AAC, symSize: 0x94 }
  - { offset: 0x325AD, size: 0x8, addend: 0x0, symName: __ZNSt9__cxx19985dequeIiSaIiEE15_M_destroy_dataENS_15_Deque_iteratorIiRiPiEES6_RKS1_, symObjAddr: 0x42A4, symBinAddr: 0x100004A8C, symSize: 0x20 }
  - { offset: 0x32608, size: 0x8, addend: 0x0, symName: __ZNSt9__cxx199811_Deque_baseIiSaIiEE19_M_get_Tp_allocatorEv, symObjAddr: 0x4290, symBinAddr: 0x100004A78, symSize: 0x14 }
  - { offset: 0x32632, size: 0x8, addend: 0x0, symName: __ZNSt9__cxx19985dequeIiSaIiEE3endEv, symObjAddr: 0x4258, symBinAddr: 0x100004A40, symSize: 0x38 }
  - { offset: 0x3265C, size: 0x8, addend: 0x0, symName: __ZNSt9__cxx19985dequeIiSaIiEE5beginEv, symObjAddr: 0x4220, symBinAddr: 0x100004A08, symSize: 0x38 }
  - { offset: 0x32686, size: 0x8, addend: 0x0, symName: __ZNSt9__cxx199811_Deque_baseIiSaIiEE17_M_deallocate_mapEPPim, symObjAddr: 0x41C0, symBinAddr: 0x1000049A8, symSize: 0x60 }
  - { offset: 0x32737, size: 0x8, addend: 0x0, symName: __ZNSt9__cxx199811_Deque_baseIiSaIiEE16_M_destroy_nodesEPPiS4_, symObjAddr: 0x4160, symBinAddr: 0x100004948, symSize: 0x60 }
  - { offset: 0x327A7, size: 0x8, addend: 0x0, symName: __ZNSt9__cxx199811_Deque_baseIiSaIiEE17_M_initialize_mapEm, symObjAddr: 0x3FD4, symBinAddr: 0x1000047BC, symSize: 0x18C }
  - { offset: 0x3282F, size: 0x8, addend: 0x0, symName: __ZNSt9__cxx199811_Deque_baseIiSaIiEE11_Deque_implC1Ev, symObjAddr: 0x3F9C, symBinAddr: 0x100004784, symSize: 0x38 }
  - { offset: 0x32898, size: 0x8, addend: 0x0, symName: __ZSt6__sortIN11__gnu_debug14_Safe_iteratorIN9__gnu_cxx17__normal_iteratorIPiNSt9__cxx19986vectorIiSaIiEEEEENSt7__debug6vectorIiS7_EESt26random_access_iterator_tagEENS2_5__ops15_Iter_less_iterEEvT_SH_T0_, symObjAddr: 0x3E9C, symBinAddr: 0x100004684, symSize: 0x100 }
  - { offset: 0x32927, size: 0x8, addend: 0x0, symName: __ZN11__gnu_debug14_Safe_iteratorIN9__gnu_cxx17__normal_iteratorIPiNSt9__cxx19986vectorIiSaIiEEEEENSt7__debug6vectorIiS6_EESt26random_access_iterator_tagEC1ERKSD_, symObjAddr: 0x3E74, symBinAddr: 0x10000465C, symSize: 0x28 }
  - { offset: 0x32956, size: 0x8, addend: 0x0, symName: __ZN11__gnu_debug16_Error_formatter22_M_iterator_value_typeINS_14_Safe_iteratorIN9__gnu_cxx17__normal_iteratorIPiNSt9__cxx19986vectorIiSaIiEEEEENSt7__debug6vectorIiS8_EESt26random_access_iterator_tagEEEERS0_RKT_PKc, symObjAddr: 0x3DD8, symBinAddr: 0x1000045C0, symSize: 0x9C }
  - { offset: 0x329AE, size: 0x8, addend: 0x0, symName: __ZNK11__gnu_debug14_Safe_iteratorIN9__gnu_cxx17__normal_iteratorIPiNSt9__cxx19986vectorIiSaIiEEEEENSt7__debug6vectorIiS6_EESt20forward_iterator_tagEdeEv, symObjAddr: 0x3D38, symBinAddr: 0x100004520, symSize: 0xA0 }
  - { offset: 0x32A0C, size: 0x8, addend: 0x0, symName: __ZN11__gnu_debugeqERKNS_14_Safe_iteratorIN9__gnu_cxx17__normal_iteratorIPiNSt9__cxx19986vectorIiSaIiEEEEENSt7__debug6vectorIiS6_EESt26random_access_iterator_tagEESF_, symObjAddr: 0x3B48, symBinAddr: 0x100004330, symSize: 0x1F0 }
  - { offset: 0x32A6F, size: 0x8, addend: 0x0, symName: __ZN11__gnu_debug16_Error_formatter11_M_iteratorINS_14_Safe_iteratorIN9__gnu_cxx17__normal_iteratorIPiNSt9__cxx19986vectorIiSaIiEEEEENSt7__debug6vectorIiS8_EESt26random_access_iterator_tagEEEERS0_RKT_PKc, symObjAddr: 0x3AAC, symBinAddr: 0x100004294, symSize: 0x9C }
  - { offset: 0x32AC3, size: 0x8, addend: 0x0, symName: __ZN11__gnu_debug13__valid_rangeIN9__gnu_cxx17__normal_iteratorIPiNSt9__cxx19986vectorIiSaIiEEEEENSt7__debug6vectorIiS6_EESt26random_access_iterator_tagEEbRKNS_14_Safe_iteratorIT_T0_T1_EESJ_, symObjAddr: 0x3A7C, symBinAddr: 0x100004264, symSize: 0x30 }
  - { offset: 0x32B64, size: 0x8, addend: 0x0, symName: __ZN11__gnu_debug14_Safe_iteratorIN9__gnu_cxx17__normal_iteratorIPiNSt9__cxx19986vectorIiSaIiEEEEENSt7__debug6vectorIiS6_EESt26random_access_iterator_tagEC1ES8_PKNS_19_Safe_sequence_baseE, symObjAddr: 0x3A4C, symBinAddr: 0x100004234, symSize: 0x30 }
  - { offset: 0x32B98, size: 0x8, addend: 0x0, symName: __ZSt22__uninitialized_copy_aIPiS0_iET0_T_S2_S1_RSaIT1_E, symObjAddr: 0x3A1C, symBinAddr: 0x100004204, symSize: 0x30 }
  - { offset: 0x32C08, size: 0x8, addend: 0x0, symName: __ZSt4copyIPiS0_ET0_T_S2_S1_, symObjAddr: 0x38BC, symBinAddr: 0x1000040A4, symSize: 0x160 }
  - { offset: 0x32CE6, size: 0x8, addend: 0x0, symName: __ZNSt9__cxx19986vectorIiSaIiEE3endEv, symObjAddr: 0x3894, symBinAddr: 0x10000407C, symSize: 0x28 }
  - { offset: 0x32D0C, size: 0x8, addend: 0x0, symName: __ZSt4copyIN9__gnu_cxx17__normal_iteratorIPKiNSt9__cxx19986vectorIiSaIiEEEEENS1_IPiS7_EEET0_T_SC_SB_, symObjAddr: 0x3730, symBinAddr: 0x100003F18, symSize: 0x164 }
  - { offset: 0x32DAF, size: 0x8, addend: 0x0, symName: __ZNSt9__cxx19986vectorIiSaIiEE5beginEv, symObjAddr: 0x370C, symBinAddr: 0x100003EF4, symSize: 0x24 }
  - { offset: 0x32DD9, size: 0x8, addend: 0x0, symName: __ZNSt9__cxx19986vectorIiSaIiEE20_M_allocate_and_copyIN9__gnu_cxx17__normal_iteratorIPKiS2_EEEEPimT_SA_, symObjAddr: 0x3688, symBinAddr: 0x100003E70, symSize: 0x84 }
  - { offset: 0x32E50, size: 0x8, addend: 0x0, symName: __ZNKSt9__cxx19986vectorIiSaIiEE3endEv, symObjAddr: 0x3660, symBinAddr: 0x100003E48, symSize: 0x28 }
  - { offset: 0x32E7A, size: 0x8, addend: 0x0, symName: __ZNKSt9__cxx19986vectorIiSaIiEE5beginEv, symObjAddr: 0x363C, symBinAddr: 0x100003E24, symSize: 0x24 }
  - { offset: 0x32EA4, size: 0x8, addend: 0x0, symName: __ZNKSt9__cxx19986vectorIiSaIiEE8capacityEv, symObjAddr: 0x3614, symBinAddr: 0x100003DFC, symSize: 0x28 }
  - { offset: 0x32EFB, size: 0x8, addend: 0x0, symName: __ZNSt9__cxx19986vectorIiSaIiEE5clearEv, symObjAddr: 0x35E8, symBinAddr: 0x100003DD0, symSize: 0x2C }
  - { offset: 0x32F37, size: 0x8, addend: 0x0, symName: __ZNKSt9__cxx199812_Vector_baseIiSaIiEE19_M_get_Tp_allocatorEv, symObjAddr: 0x35D4, symBinAddr: 0x100003DBC, symSize: 0x14 }
  - { offset: 0x32F61, size: 0x8, addend: 0x0, symName: __ZNK11__gnu_debug12_Safe_vectorINSt7__debug6vectorIiSaIiEEENSt9__cxx19986vectorIiS3_EEE24_M_requires_reallocationEm, symObjAddr: 0x359C, symBinAddr: 0x100003D84, symSize: 0x38 }
  - { offset: 0x32F9B, size: 0x8, addend: 0x0, symName: __ZNSt9__cxx19986vectorIiSaIiEE9push_backERKi, symObjAddr: 0x34D4, symBinAddr: 0x100003CBC, symSize: 0xC8 }
  - { offset: 0x33042, size: 0x8, addend: 0x0, symName: __ZNKSt8__detail14_Node_iteratorISt4pairIKiiELb0ELb0EEdeEv, symObjAddr: 0x3498, symBinAddr: 0x100003C80, symSize: 0x3C }
  - { offset: 0x330B4, size: 0x8, addend: 0x0, symName: __ZNK11__gnu_debug14_Safe_iteratorINSt8__detail14_Node_iteratorISt4pairIKiiELb0ELb0EEENSt7__debug13unordered_mapIiiSt4hashIiESt8equal_toIiESaIS5_EEESt20forward_iterator_tagE18_M_dereferenceableEv, symObjAddr: 0x3420, symBinAddr: 0x100003C08, symSize: 0x78 }
  - { offset: 0x330DE, size: 0x8, addend: 0x0, symName: __ZNK11__gnu_debug14_Safe_iteratorINSt8__detail14_Node_iteratorISt4pairIKiiELb0ELb0EEENSt7__debug13unordered_mapIiiSt4hashIiESt8equal_toIiESaIS5_EEESt20forward_iterator_tagE16_M_incrementableEv, symObjAddr: 0x33C4, symBinAddr: 0x100003BAC, symSize: 0x5C }
  - { offset: 0x33108, size: 0x8, addend: 0x0, symName: __ZNSt8__detail14_Node_iteratorISt4pairIKiiELb0ELb0EEppEv, symObjAddr: 0x33A4, symBinAddr: 0x100003B8C, symSize: 0x20 }
  - { offset: 0x33132, size: 0x8, addend: 0x0, symName: __ZN11__gnu_debug14_Safe_iteratorINSt8__detail14_Node_iteratorISt4pairIKiiELb0ELb0EEENSt7__debug13unordered_mapIiiSt4hashIiESt8equal_toIiESaIS5_EEESt20forward_iterator_tagE4baseEv, symObjAddr: 0x3390, symBinAddr: 0x100003B78, symSize: 0x14 }
  - { offset: 0x33158, size: 0x8, addend: 0x0, symName: __ZNSt8__detailneERKNS_19_Node_iterator_baseISt4pairIKiiELb0EEES6_, symObjAddr: 0x3360, symBinAddr: 0x100003B48, symSize: 0x30 }
  - { offset: 0x33197, size: 0x8, addend: 0x0, symName: __ZNK11__gnu_debug14_Safe_iteratorINSt8__detail14_Node_iteratorISt4pairIKiiELb0ELb0EEENSt7__debug13unordered_mapIiiSt4hashIiESt8equal_toIiESaIS5_EEESt20forward_iterator_tagE4baseEv, symObjAddr: 0x334C, symBinAddr: 0x100003B34, symSize: 0x14 }
  - { offset: 0x331C1, size: 0x8, addend: 0x0, symName: __ZN11__gnu_debug16_Error_formatter11_M_iteratorINS_14_Safe_iteratorINSt8__detail14_Node_iteratorISt4pairIKiiELb0ELb0EEENSt7__debug13unordered_mapIiiSt4hashIiESt8equal_toIiESaIS7_EEESt20forward_iterator_tagEEEERS0_RKT_PKc, symObjAddr: 0x32B0, symBinAddr: 0x100003A98, symSize: 0x9C }
  - { offset: 0x33219, size: 0x8, addend: 0x0, symName: __ZNK11__gnu_debug14_Safe_iteratorINSt8__detail14_Node_iteratorISt4pairIKiiELb0ELb0EEENSt7__debug13unordered_mapIiiSt4hashIiESt8equal_toIiESaIS5_EEESt20forward_iterator_tagE20_M_value_initializedEv, symObjAddr: 0x3244, symBinAddr: 0x100003A2C, symSize: 0x6C }
  - { offset: 0x3325D, size: 0x8, addend: 0x0, symName: __ZNSt8__detail14_Node_iteratorISt4pairIKiiELb0ELb0EEC1Ev, symObjAddr: 0x3224, symBinAddr: 0x100003A0C, symSize: 0x20 }
  - { offset: 0x33283, size: 0x8, addend: 0x0, symName: __ZNSt9__cxx199813unordered_mapIiiSt4hashIiESt8equal_toIiESaISt4pairIKiiEEE3endEv, symObjAddr: 0x3208, symBinAddr: 0x1000039F0, symSize: 0x1C }
  - { offset: 0x332E1, size: 0x8, addend: 0x0, symName: __ZN11__gnu_debug14_Safe_iteratorINSt8__detail14_Node_iteratorISt4pairIKiiELb0ELb0EEENSt7__debug13unordered_mapIiiSt4hashIiESt8equal_toIiESaIS5_EEESt20forward_iterator_tagEC1ES6_PKNS_19_Safe_sequence_baseE, symObjAddr: 0x31B8, symBinAddr: 0x1000039A0, symSize: 0x50 }
  - { offset: 0x33319, size: 0x8, addend: 0x0, symName: __ZNSt9__cxx199813unordered_mapIiiSt4hashIiESt8equal_toIiESaISt4pairIKiiEEE5beginEv, symObjAddr: 0x319C, symBinAddr: 0x100003984, symSize: 0x1C }
  - { offset: 0x33343, size: 0x8, addend: 0x0, symName: __ZN11__gnu_debug12_Safe_vectorINSt7__debug6vectorIiSaIiEEENSt9__cxx19986vectorIiS3_EEE29_M_update_guaranteed_capacityEv, symObjAddr: 0x3134, symBinAddr: 0x10000391C, symSize: 0x68 }
  - { offset: 0x3336D, size: 0x8, addend: 0x0, symName: __ZNSt9__cxx199812_Vector_baseIiSaIiEE13_M_deallocateEPim, symObjAddr: 0x30DC, symBinAddr: 0x1000038C4, symSize: 0x58 }
  - { offset: 0x33409, size: 0x8, addend: 0x0, symName: __ZNSt9__cxx199812_Vector_baseIiSaIiEE17_Vector_impl_dataC2Ev, symObjAddr: 0x30B0, symBinAddr: 0x100003898, symSize: 0x2C }
  - { offset: 0x3342F, size: 0x8, addend: 0x0, symName: __ZNSt8__detail9_Map_baseIiSt4pairIKiiESaIS3_ENS_10_Select1stESt8equal_toIiESt4hashIiENS_18_Mod_range_hashingENS_20_Default_ranged_hashENS_20_Prime_rehash_policyENS_17_Hashtable_traitsILb0ELb0ELb1EEELb1EEixERS2_, symObjAddr: 0x2F90, symBinAddr: 0x100003778, symSize: 0x120 }
  - { offset: 0x33535, size: 0x8, addend: 0x0, symName: __ZNKSt10_HashtableIiSt4pairIKiiESaIS2_ENSt8__detail10_Select1stESt8equal_toIiESt4hashIiENS4_18_Mod_range_hashingENS4_20_Default_ranged_hashENS4_20_Prime_rehash_policyENS4_17_Hashtable_traitsILb0ELb0ELb1EEEE5countERS1_, symObjAddr: 0x2F50, symBinAddr: 0x100003738, symSize: 0x40 }
  - { offset: 0x335A0, size: 0x8, addend: 0x0, symName: __ZNSt8__detail12_Rehash_baseIiSt4pairIKiiESaIS3_ENS_10_Select1stESt8equal_toIiESt4hashIiENS_18_Mod_range_hashingENS_20_Default_ranged_hashENS_20_Prime_rehash_policyENS_17_Hashtable_traitsILb0ELb0ELb1EEESt17integral_constantIbLb1EEE7reserveEm, symObjAddr: 0x2F04, symBinAddr: 0x1000036EC, symSize: 0x4C }
  - { offset: 0x335F2, size: 0x8, addend: 0x0, symName: __ZNSt10_HashtableIiSt4pairIKiiESaIS2_ENSt8__detail10_Select1stESt8equal_toIiESt4hashIiENS4_18_Mod_range_hashingENS4_20_Default_ranged_hashENS4_20_Prime_rehash_policyENS4_17_Hashtable_traitsILb0ELb0ELb1EEEE21_M_deallocate_bucketsEv, symObjAddr: 0x2ED0, symBinAddr: 0x1000036B8, symSize: 0x34 }
  - { offset: 0x3361C, size: 0x8, addend: 0x0, symName: __ZNSt10_HashtableIiSt4pairIKiiESaIS2_ENSt8__detail10_Select1stESt8equal_toIiESt4hashIiENS4_18_Mod_range_hashingENS4_20_Default_ranged_hashENS4_20_Prime_rehash_policyENS4_17_Hashtable_traitsILb0ELb0ELb1EEEE5clearEv, symObjAddr: 0x2E70, symBinAddr: 0x100003658, symSize: 0x60 }
  - { offset: 0x3366A, size: 0x8, addend: 0x0, symName: __ZNSt15__new_allocatorINSt8__detail10_Hash_nodeISt4pairIKiiELb0EEEED2Ev, symObjAddr: 0x2E5C, symBinAddr: 0x100003644, symSize: 0x14 }
  - { offset: 0x336A6, size: 0x8, addend: 0x0, symName: __ZNSt9__cxx19986vectorIiSaIiEEixEm, symObjAddr: 0x2DD8, symBinAddr: 0x1000035C0, symSize: 0x84 }
  - { offset: 0x336FE, size: 0x8, addend: 0x0, symName: __ZN11__gnu_debug16_Error_formatter11_M_sequenceINSt7__debug6vectorIiSaIiEEEEERS0_RKT_PKc, symObjAddr: 0x2D3C, symBinAddr: 0x100003524, symSize: 0x9C }
  - { offset: 0x33791, size: 0x8, addend: 0x0, symName: __ZNSt9__cxx199812_Vector_baseIiSaIiEE19_M_get_Tp_allocatorEv, symObjAddr: 0x2D28, symBinAddr: 0x100003510, symSize: 0x14 }
  - { offset: 0x337E2, size: 0x8, addend: 0x0, symName: __ZN11__gnu_debug12_Safe_vectorINSt7__debug6vectorIiSaIiEEENSt9__cxx19986vectorIiS3_EEEC2Em, symObjAddr: 0x2D04, symBinAddr: 0x1000034EC, symSize: 0x24 }
  - { offset: 0x33847, size: 0x8, addend: 0x0, symName: __ZNSt9__cxx19986vectorIiSaIiEEC2EmRKS1_, symObjAddr: 0x2C9C, symBinAddr: 0x100003484, symSize: 0x68 }
  - { offset: 0x338A3, size: 0x8, addend: 0x0, symName: __ZNSt15__new_allocatorIiED2Ev, symObjAddr: 0x2C88, symBinAddr: 0x100003470, symSize: 0x14 }
  - { offset: 0x338E1, size: 0x8, addend: 0x0, symName: __ZSt7forwardImEOT_RNSt16remove_referenceIS0_E4typeE, symObjAddr: 0x2C74, symBinAddr: 0x10000345C, symSize: 0x14 }
  - { offset: 0x33917, size: 0x8, addend: 0x0, symName: __ZNSt7__debug5dequeIiSaIiEE5clearEv, symObjAddr: 0x2C48, symBinAddr: 0x100003430, symSize: 0x2C }
  - { offset: 0x33941, size: 0x8, addend: 0x0, symName: __ZNSt7__debug5dequeIiSaIiEE9push_backERKi, symObjAddr: 0x2C14, symBinAddr: 0x1000033FC, symSize: 0x34 }
  - { offset: 0x3397C, size: 0x8, addend: 0x0, symName: __ZNSt7__debug5dequeIiSaIiEE9pop_frontEv, symObjAddr: 0x2B44, symBinAddr: 0x10000332C, symSize: 0xD0 }
  - { offset: 0x339C4, size: 0x8, addend: 0x0, symName: __ZNSt7__debug5dequeIiSaIiEEixEm, symObjAddr: 0x2A60, symBinAddr: 0x100003248, symSize: 0xE4 }
  - { offset: 0x33A1C, size: 0x8, addend: 0x0, symName: __ZNKSt9__cxx19985dequeIiSaIiEE4sizeEv, symObjAddr: 0x2A30, symBinAddr: 0x100003218, symSize: 0x30 }
  - { offset: 0x33A46, size: 0x8, addend: 0x0, symName: __ZNKSt9__cxx19986vectorIiSaIiEE4sizeEv, symObjAddr: 0x2A08, symBinAddr: 0x1000031F0, symSize: 0x28 }
  - { offset: 0x33A94, size: 0x8, addend: 0x0, symName: __ZNSt9__cxx19985dequeIiSaIiEED2Ev, symObjAddr: 0x29A0, symBinAddr: 0x100003188, symSize: 0x68 }
  - { offset: 0x33ADF, size: 0x8, addend: 0x0, symName: __ZNSt9__cxx199811_Deque_baseIiSaIiEED2Ev, symObjAddr: 0x2934, symBinAddr: 0x10000311C, symSize: 0x6C }
  - { offset: 0x33B1F, size: 0x8, addend: 0x0, symName: __ZNSt9__cxx199811_Deque_baseIiSaIiEEC2Ev, symObjAddr: 0x28EC, symBinAddr: 0x1000030D4, symSize: 0x48 }
  - { offset: 0x33B6D, size: 0x8, addend: 0x0, symName: __ZNSt9__cxx199811_Deque_baseIiSaIiEE11_Deque_implD1Ev, symObjAddr: 0x28C0, symBinAddr: 0x1000030A8, symSize: 0x2C }
  - { offset: 0x33BB3, size: 0x8, addend: 0x0, symName: __ZSt4sortIN11__gnu_debug14_Safe_iteratorIN9__gnu_cxx17__normal_iteratorIPiNSt9__cxx19986vectorIiSaIiEEEEENSt7__debug6vectorIiS7_EESt26random_access_iterator_tagEEEvT_SF_, symObjAddr: 0x270C, symBinAddr: 0x100002EF4, symSize: 0x1B4 }
  - { offset: 0x33C1C, size: 0x8, addend: 0x0, symName: __ZNSt7__debug6vectorIiSaIiEE3endEv, symObjAddr: 0x26C8, symBinAddr: 0x100002EB0, symSize: 0x44 }
  - { offset: 0x33C46, size: 0x8, addend: 0x0, symName: __ZNSt7__debug6vectorIiSaIiEE5beginEv, symObjAddr: 0x2684, symBinAddr: 0x100002E6C, symSize: 0x44 }
  - { offset: 0x33C70, size: 0x8, addend: 0x0, symName: __ZN11__gnu_debug12_Safe_vectorINSt7__debug6vectorIiSaIiEEENSt9__cxx19986vectorIiS3_EEEaSERKS8_, symObjAddr: 0x2660, symBinAddr: 0x100002E48, symSize: 0x24 }
  - { offset: 0x33CA3, size: 0x8, addend: 0x0, symName: __ZNSt9__cxx19986vectorIiSaIiEEaSERKS2_, symObjAddr: 0x2318, symBinAddr: 0x100002B00, symSize: 0x348 }
  - { offset: 0x33E27, size: 0x8, addend: 0x0, symName: __ZSt11__addressofIKNSt9__cxx19986vectorIiSaIiEEEEPT_RS5_, symObjAddr: 0x2304, symBinAddr: 0x100002AEC, symSize: 0x14 }
  - { offset: 0x33E5D, size: 0x8, addend: 0x0, symName: __ZN11__gnu_debug15_Safe_containerINSt7__debug6vectorIiSaIiEEES3_NS_14_Safe_sequenceELb1EEaSERKS6_, symObjAddr: 0x22C8, symBinAddr: 0x100002AB0, symSize: 0x3C }
  - { offset: 0x33EA9, size: 0x8, addend: 0x0, symName: __ZNSt7__debug6vectorIiSaIiEE9push_backERKi, symObjAddr: 0x2228, symBinAddr: 0x100002A10, symSize: 0xA0 }
  - { offset: 0x33F0F, size: 0x8, addend: 0x0, symName: __ZNK11__gnu_debug14_Safe_iteratorINSt8__detail14_Node_iteratorISt4pairIKiiELb0ELb0EEENSt7__debug13unordered_mapIiiSt4hashIiESt8equal_toIiESaIS5_EEESt20forward_iterator_tagEdeEv, symObjAddr: 0x2188, symBinAddr: 0x100002970, symSize: 0xA0 }
  - { offset: 0x33F71, size: 0x8, addend: 0x0, symName: __ZN11__gnu_debug14_Safe_iteratorINSt8__detail14_Node_iteratorISt4pairIKiiELb0ELb0EEENSt7__debug13unordered_mapIiiSt4hashIiESt8equal_toIiESaIS5_EEESt20forward_iterator_tagEppEv, symObjAddr: 0x20B8, symBinAddr: 0x1000028A0, symSize: 0xD0 }
  - { offset: 0x33FF9, size: 0x8, addend: 0x0, symName: __ZN11__gnu_debugneERKNS_14_Safe_iteratorINSt8__detail14_Node_iteratorISt4pairIKiiELb0ELb0EEENSt7__debug13unordered_mapIiiSt4hashIiESt8equal_toIiESaIS5_EEESt20forward_iterator_tagEESI_, symObjAddr: 0x1EC8, symBinAddr: 0x1000026B0, symSize: 0x1F0 }
  - { offset: 0x34070, size: 0x8, addend: 0x0, symName: __ZNSt7__debug13unordered_mapIiiSt4hashIiESt8equal_toIiESaISt4pairIKiiEEE3endEv, symObjAddr: 0x1E84, symBinAddr: 0x10000266C, symSize: 0x44 }
  - { offset: 0x3409A, size: 0x8, addend: 0x0, symName: __ZNSt7__debug13unordered_mapIiiSt4hashIiESt8equal_toIiESaISt4pairIKiiEEE5beginEv, symObjAddr: 0x1E40, symBinAddr: 0x100002628, symSize: 0x44 }
  - { offset: 0x340DE, size: 0x8, addend: 0x0, symName: __ZN11__gnu_debug12_Safe_vectorINSt7__debug6vectorIiSaIiEEENSt9__cxx19986vectorIiS3_EEEC2Ev, symObjAddr: 0x1E18, symBinAddr: 0x100002600, symSize: 0x28 }
  - { offset: 0x34128, size: 0x8, addend: 0x0, symName: __ZNSt9__cxx199812_Vector_baseIiSaIiEED2Ev, symObjAddr: 0x1DC8, symBinAddr: 0x1000025B0, symSize: 0x50 }
  - { offset: 0x34168, size: 0x8, addend: 0x0, symName: __ZNSt9__cxx199812_Vector_baseIiSaIiEE12_Vector_implC1Ev, symObjAddr: 0x1D90, symBinAddr: 0x100002578, symSize: 0x38 }
  - { offset: 0x341D4, size: 0x8, addend: 0x0, symName: __ZNSt9__cxx199813unordered_mapIiiSt4hashIiESt8equal_toIiESaISt4pairIKiiEEEixERS6_, symObjAddr: 0x1D6C, symBinAddr: 0x100002554, symSize: 0x24 }
  - { offset: 0x3420F, size: 0x8, addend: 0x0, symName: __ZNKSt9__cxx199813unordered_mapIiiSt4hashIiESt8equal_toIiESaISt4pairIKiiEEE5countERS6_, symObjAddr: 0x1D48, symBinAddr: 0x100002530, symSize: 0x24 }
  - { offset: 0x3424A, size: 0x8, addend: 0x0, symName: __ZNSt9__cxx199813unordered_mapIiiSt4hashIiESt8equal_toIiESaISt4pairIKiiEEE7reserveEm, symObjAddr: 0x1D20, symBinAddr: 0x100002508, symSize: 0x28 }
  - { offset: 0x342A9, size: 0x8, addend: 0x0, symName: __ZNSt10_HashtableIiSt4pairIKiiESaIS2_ENSt8__detail10_Select1stESt8equal_toIiESt4hashIiENS4_18_Mod_range_hashingENS4_20_Default_ranged_hashENS4_20_Prime_rehash_policyENS4_17_Hashtable_traitsILb0ELb0ELb1EEEED1Ev, symObjAddr: 0x1CF0, symBinAddr: 0x1000024D8, symSize: 0x30 }
  - { offset: 0x34309, size: 0x8, addend: 0x0, symName: __ZNSt8__detail21_Hashtable_ebo_helperILi0ESaINS_10_Hash_nodeISt4pairIKiiELb0EEEELb1EEC2Ev, symObjAddr: 0x1CC4, symBinAddr: 0x1000024AC, symSize: 0x2C }
  - { offset: 0x34390, size: 0x8, addend: 0x0, symName: __ZNSt8__detail21_Hashtable_ebo_helperILi0ESt8equal_toIiELb1EEC2Ev, symObjAddr: 0x1CB0, symBinAddr: 0x100002498, symSize: 0x14 }
  - { offset: 0x343D0, size: 0x8, addend: 0x0, symName: __ZNSt8__detail21_Hashtable_ebo_helperILi1ESt4hashIiELb1EEC2Ev, symObjAddr: 0x1C9C, symBinAddr: 0x100002484, symSize: 0x14 }
  - { offset: 0x343F6, size: 0x8, addend: 0x0, symName: __ZNSt7__debug6vectorIiSaIiEEixEm, symObjAddr: 0x1BB8, symBinAddr: 0x1000023A0, symSize: 0xE4 }
  - { offset: 0x34472, size: 0x8, addend: 0x0, symName: __ZNSt9__cxx19986vectorIiSaIiEED2Ev, symObjAddr: 0x1B5C, symBinAddr: 0x100002344, symSize: 0x5C }
  - { offset: 0x34502, size: 0x8, addend: 0x0, symName: __ZNSt7__debug6vectorIiSaIiEEC1EmRKS1_, symObjAddr: 0x1AF4, symBinAddr: 0x1000022DC, symSize: 0x68 }
  - { offset: 0x34572, size: 0x8, addend: 0x0, symName: __ZSt7forwardIiEOT_RNSt16remove_referenceIS0_E4typeE, symObjAddr: 0x1AE0, symBinAddr: 0x1000022C8, symSize: 0x14 }
  - { offset: 0x345A4, size: 0x8, addend: 0x0, symName: __ZSt3maxImERKT_S2_S2_, symObjAddr: 0x1AA8, symBinAddr: 0x100002290, symSize: 0x38 }
  - { offset: 0x345EF, size: 0x8, addend: 0x0, symName: _main, symObjAddr: 0x1A38, symBinAddr: 0x100002220, symSize: 0x70 }
  - { offset: 0x3461F, size: 0x8, addend: 0x0, symName: __Z5solvev, symObjAddr: 0x1140, symBinAddr: 0x100001928, symSize: 0x8F8 }
  - { offset: 0x348D9, size: 0x8, addend: 0x0, symName: __ZNSt7__debug5dequeIiSaIiEED1Ev, symObjAddr: 0x1114, symBinAddr: 0x1000018FC, symSize: 0x2C }
  - { offset: 0x34919, size: 0x8, addend: 0x0, symName: __ZNSt7__debug5dequeIiSaIiEEC1Ev, symObjAddr: 0x10CC, symBinAddr: 0x1000018B4, symSize: 0x48 }
  - { offset: 0x34959, size: 0x8, addend: 0x0, symName: __ZNSt9__cxx19985dequeIiSaIiEEC2Ev, symObjAddr: 0x10AC, symBinAddr: 0x100001894, symSize: 0x20 }
  - { offset: 0x349A6, size: 0x8, addend: 0x0, symName: __ZN11__gnu_debug15_Safe_containerINSt7__debug5dequeIiSaIiEEES3_NS_14_Safe_sequenceELb1EED2Ev, symObjAddr: 0x108C, symBinAddr: 0x100001874, symSize: 0x20 }
  - { offset: 0x349E6, size: 0x8, addend: 0x0, symName: __ZN11__gnu_debug15_Safe_containerINSt7__debug5dequeIiSaIiEEES3_NS_14_Safe_sequenceELb1EEC2Ev, symObjAddr: 0x106C, symBinAddr: 0x100001854, symSize: 0x20 }
  - { offset: 0x34A33, size: 0x8, addend: 0x0, symName: __ZN11__gnu_debug14_Safe_sequenceINSt7__debug5dequeIiSaIiEEEED2Ev, symObjAddr: 0x104C, symBinAddr: 0x100001834, symSize: 0x20 }
  - { offset: 0x34A76, size: 0x8, addend: 0x0, symName: __ZN11__gnu_debug14_Safe_sequenceINSt7__debug5dequeIiSaIiEEEEC2Ev, symObjAddr: 0x102C, symBinAddr: 0x100001814, symSize: 0x20 }
  - { offset: 0x34AC4, size: 0x8, addend: 0x0, symName: __ZN11__gnu_debug14_Safe_iteratorIN9__gnu_cxx17__normal_iteratorIPiNSt9__cxx19986vectorIiSaIiEEEEENSt7__debug6vectorIiS6_EESt26random_access_iterator_tagED1Ev, symObjAddr: 0x100C, symBinAddr: 0x1000017F4, symSize: 0x20 }
  - { offset: 0x34B12, size: 0x8, addend: 0x0, symName: __ZN11__gnu_debug14_Safe_iteratorIN9__gnu_cxx17__normal_iteratorIPiNSt9__cxx19986vectorIiSaIiEEEEENSt7__debug6vectorIiS6_EESt26bidirectional_iterator_tagED2Ev, symObjAddr: 0xFEC, symBinAddr: 0x1000017D4, symSize: 0x20 }
  - { offset: 0x34B5F, size: 0x8, addend: 0x0, symName: __ZN11__gnu_debug14_Safe_iteratorIN9__gnu_cxx17__normal_iteratorIPiNSt9__cxx19986vectorIiSaIiEEEEENSt7__debug6vectorIiS6_EESt20forward_iterator_tagED2Ev, symObjAddr: 0xFC8, symBinAddr: 0x1000017B0, symSize: 0x24 }
  - { offset: 0x34B85, size: 0x8, addend: 0x0, symName: __ZNSt7__debug6vectorIiSaIiEEaSERKS2_, symObjAddr: 0xF68, symBinAddr: 0x100001750, symSize: 0x60 }
  - { offset: 0x34BB4, size: 0x8, addend: 0x0, symName: __ZNSt10__pair_getILm1EE11__const_getIKiiEERKT0_RKSt4pairIT_S3_E, symObjAddr: 0xF50, symBinAddr: 0x100001738, symSize: 0x18 }
  - { offset: 0x34BF6, size: 0x8, addend: 0x0, symName: __ZSt3getILm1EKiiERKNSt13tuple_elementIXT_ESt4pairIT0_T1_EE4typeERKS5_, symObjAddr: 0xF34, symBinAddr: 0x10000171C, symSize: 0x1C }
  - { offset: 0x34C3C, size: 0x8, addend: 0x0, symName: __ZNSt10__pair_getILm0EE11__const_getIKiiEERKT_RKSt4pairIS3_T0_E, symObjAddr: 0xF20, symBinAddr: 0x100001708, symSize: 0x14 }
  - { offset: 0x34C7E, size: 0x8, addend: 0x0, symName: __ZSt3getILm0EKiiERKNSt13tuple_elementIXT_ESt4pairIT0_T1_EE4typeERKS5_, symObjAddr: 0xF04, symBinAddr: 0x1000016EC, symSize: 0x1C }
  - { offset: 0x34CEF, size: 0x8, addend: 0x0, symName: __ZN11__gnu_debug14_Safe_iteratorINSt8__detail14_Node_iteratorISt4pairIKiiELb0ELb0EEENSt7__debug13unordered_mapIiiSt4hashIiESt8equal_toIiESaIS5_EEESt20forward_iterator_tagED1Ev, symObjAddr: 0xEE0, symBinAddr: 0x1000016C8, symSize: 0x24 }
  - { offset: 0x34D2F, size: 0x8, addend: 0x0, symName: __ZNSt7__debug6vectorIiSaIiEEC1Ev, symObjAddr: 0xEA8, symBinAddr: 0x100001690, symSize: 0x38 }
  - { offset: 0x34D6F, size: 0x8, addend: 0x0, symName: __ZNSt9__cxx19986vectorIiSaIiEEC2Ev, symObjAddr: 0xE88, symBinAddr: 0x100001670, symSize: 0x20 }
  - { offset: 0x34DAF, size: 0x8, addend: 0x0, symName: __ZNSt9__cxx199812_Vector_baseIiSaIiEEC2Ev, symObjAddr: 0xE68, symBinAddr: 0x100001650, symSize: 0x20 }
  - { offset: 0x34DFC, size: 0x8, addend: 0x0, symName: __ZNSt9__cxx199812_Vector_baseIiSaIiEE12_Vector_implD1Ev, symObjAddr: 0xE3C, symBinAddr: 0x100001624, symSize: 0x2C }
  - { offset: 0x34E5F, size: 0x8, addend: 0x0, symName: __ZN11__gnu_debug15_Safe_containerINSt7__debug6vectorIiSaIiEEES3_NS_14_Safe_sequenceELb1EEC2Ev, symObjAddr: 0xE1C, symBinAddr: 0x100001604, symSize: 0x20 }
  - { offset: 0x34EAD, size: 0x8, addend: 0x0, symName: __ZN11__gnu_debug14_Safe_sequenceINSt7__debug6vectorIiSaIiEEEEC2Ev, symObjAddr: 0xDFC, symBinAddr: 0x1000015E4, symSize: 0x20 }
  - { offset: 0x34EF7, size: 0x8, addend: 0x0, symName: __ZNSt7__debug13unordered_mapIiiSt4hashIiESt8equal_toIiESaISt4pairIKiiEEED1Ev, symObjAddr: 0xDD0, symBinAddr: 0x1000015B8, symSize: 0x2C }
  - { offset: 0x34F37, size: 0x8, addend: 0x0, symName: __ZNSt7__debug13unordered_mapIiiSt4hashIiESt8equal_toIiESaISt4pairIKiiEEEC1Ev, symObjAddr: 0xDA4, symBinAddr: 0x10000158C, symSize: 0x2C }
  - { offset: 0x34F84, size: 0x8, addend: 0x0, symName: __ZNSt9__cxx199813unordered_mapIiiSt4hashIiESt8equal_toIiESaISt4pairIKiiEEED2Ev, symObjAddr: 0xD84, symBinAddr: 0x10000156C, symSize: 0x20 }
  - { offset: 0x34FC4, size: 0x8, addend: 0x0, symName: __ZNSt9__cxx199813unordered_mapIiiSt4hashIiESt8equal_toIiESaISt4pairIKiiEEEC2Ev, symObjAddr: 0xD64, symBinAddr: 0x10000154C, symSize: 0x20 }
  - { offset: 0x35004, size: 0x8, addend: 0x0, symName: __ZNSt10_HashtableIiSt4pairIKiiESaIS2_ENSt8__detail10_Select1stESt8equal_toIiESt4hashIiENS4_18_Mod_range_hashingENS4_20_Default_ranged_hashENS4_20_Prime_rehash_policyENS4_17_Hashtable_traitsILb0ELb0ELb1EEEEC1Ev, symObjAddr: 0xCF4, symBinAddr: 0x1000014DC, symSize: 0x70 }
  - { offset: 0x35052, size: 0x8, addend: 0x0, symName: __ZNSt8__detail16_Hashtable_allocISaINS_10_Hash_nodeISt4pairIKiiELb0EEEEED2Ev, symObjAddr: 0xCD4, symBinAddr: 0x1000014BC, symSize: 0x20 }
  - { offset: 0x35092, size: 0x8, addend: 0x0, symName: __ZNSt8__detail16_Hashtable_allocISaINS_10_Hash_nodeISt4pairIKiiELb0EEEEEC2Ev, symObjAddr: 0xCB4, symBinAddr: 0x10000149C, symSize: 0x20 }
  - { offset: 0x350E0, size: 0x8, addend: 0x0, symName: __ZNSt8__detail21_Hashtable_ebo_helperILi0ESaINS_10_Hash_nodeISt4pairIKiiELb0EEEELb1EED2Ev, symObjAddr: 0xC88, symBinAddr: 0x100001470, symSize: 0x2C }
  - { offset: 0x35144, size: 0x8, addend: 0x0, symName: __ZNSt8__detail15_Hashtable_baseIiSt4pairIKiiENS_10_Select1stESt8equal_toIiESt4hashIiENS_18_Mod_range_hashingENS_20_Default_ranged_hashENS_17_Hashtable_traitsILb0ELb0ELb1EEEEC2Ev, symObjAddr: 0xC60, symBinAddr: 0x100001448, symSize: 0x28 }
  - { offset: 0x35184, size: 0x8, addend: 0x0, symName: __ZNSt8__detail15_Hash_code_baseIiSt4pairIKiiENS_10_Select1stESt4hashIiENS_18_Mod_range_hashingENS_20_Default_ranged_hashELb0EEC2Ev, symObjAddr: 0xC40, symBinAddr: 0x100001428, symSize: 0x20 }
  - { offset: 0x351D1, size: 0x8, addend: 0x0, symName: __ZN11__gnu_debug15_Safe_containerINSt7__debug13unordered_mapIiiSt4hashIiESt8equal_toIiESaISt4pairIKiiEEEESA_NS_25_Safe_unordered_containerELb1EED2Ev, symObjAddr: 0xC20, symBinAddr: 0x100001408, symSize: 0x20 }
  - { offset: 0x35211, size: 0x8, addend: 0x0, symName: __ZN11__gnu_debug15_Safe_containerINSt7__debug13unordered_mapIiiSt4hashIiESt8equal_toIiESaISt4pairIKiiEEEESA_NS_25_Safe_unordered_containerELb1EEC2Ev, symObjAddr: 0xC00, symBinAddr: 0x1000013E8, symSize: 0x20 }
  - { offset: 0x3525E, size: 0x8, addend: 0x0, symName: __ZN11__gnu_debug25_Safe_unordered_containerINSt7__debug13unordered_mapIiiSt4hashIiESt8equal_toIiESaISt4pairIKiiEEEEED2Ev, symObjAddr: 0xBE0, symBinAddr: 0x1000013C8, symSize: 0x20 }
  - { offset: 0x352A1, size: 0x8, addend: 0x0, symName: __ZN11__gnu_debug25_Safe_unordered_containerINSt7__debug13unordered_mapIiiSt4hashIiESt8equal_toIiESaISt4pairIKiiEEEEEC2Ev, symObjAddr: 0xBC0, symBinAddr: 0x1000013A8, symSize: 0x20 }
  - { offset: 0x352EB, size: 0x8, addend: 0x0, symName: __ZNSt7__debug6vectorIiSaIiEED1Ev, symObjAddr: 0xB94, symBinAddr: 0x10000137C, symSize: 0x2C }
  - { offset: 0x35338, size: 0x8, addend: 0x0, symName: __ZN11__gnu_debug15_Safe_containerINSt7__debug6vectorIiSaIiEEES3_NS_14_Safe_sequenceELb1EED2Ev, symObjAddr: 0xB74, symBinAddr: 0x10000135C, symSize: 0x20 }
  - { offset: 0x35385, size: 0x8, addend: 0x0, symName: __ZN11__gnu_debug14_Safe_sequenceINSt7__debug6vectorIiSaIiEEEED2Ev, symObjAddr: 0xB54, symBinAddr: 0x10000133C, symSize: 0x20 }
  - { offset: 0x353B2, size: 0x8, addend: 0x0, symName: __Z10modInversex, symObjAddr: 0xB30, symBinAddr: 0x100001318, symSize: 0x24 }
  - { offset: 0x353E6, size: 0x8, addend: 0x0, symName: __Z9fastPowerxx, symObjAddr: 0x9E4, symBinAddr: 0x1000011CC, symSize: 0x14C }
  - { offset: 0x3542F, size: 0x8, addend: 0x0, symName: __ZNSt9__cxx199816__deque_buf_sizeEm, symObjAddr: 0x9B4, symBinAddr: 0x10000119C, symSize: 0x30 }
  - { offset: 0x35480, size: 0x8, addend: 0x0, symName: __ZN11__gnu_debug30_Safe_unordered_container_baseD2Ev, symObjAddr: 0x98C, symBinAddr: 0x100001174, symSize: 0x28 }
  - { offset: 0x354C0, size: 0x8, addend: 0x0, symName: __ZN11__gnu_debug30_Safe_unordered_container_baseC2Ev, symObjAddr: 0x95C, symBinAddr: 0x100001144, symSize: 0x30 }
  - { offset: 0x354E2, size: 0x8, addend: 0x0, symName: __ZSt3minImERKT_S2_S2_, symObjAddr: 0x924, symBinAddr: 0x10000110C, symSize: 0x38 }
  - { offset: 0x35528, size: 0x8, addend: 0x0, symName: __ZNSt8__detail20_Prime_rehash_policy8_M_resetEm, symObjAddr: 0x900, symBinAddr: 0x1000010E8, symSize: 0x24 }
  - { offset: 0x35563, size: 0x8, addend: 0x0, symName: __ZNKSt8__detail20_Prime_rehash_policy8_M_stateEv, symObjAddr: 0x8E8, symBinAddr: 0x1000010D0, symSize: 0x18 }
  - { offset: 0x3558D, size: 0x8, addend: 0x0, symName: __ZNKSt8__detail20_Prime_rehash_policy19_M_bkt_for_elementsEm, symObjAddr: 0x8B0, symBinAddr: 0x100001098, symSize: 0x38 }
  - { offset: 0x355F0, size: 0x8, addend: 0x0, symName: __ZNSt8__detail20_Prime_rehash_policyC1Ef, symObjAddr: 0x884, symBinAddr: 0x10000106C, symSize: 0x2C }
  - { offset: 0x3561F, size: 0x8, addend: 0x0, symName: __ZNKSt8__detail18_Mod_range_hashingclEmm, symObjAddr: 0x854, symBinAddr: 0x10000103C, symSize: 0x30 }
  - { offset: 0x35685, size: 0x8, addend: 0x0, symName: __ZNSt8__detail15_Hash_node_baseC1Ev, symObjAddr: 0x838, symBinAddr: 0x100001020, symSize: 0x1C }
  - { offset: 0x356AF, size: 0x8, addend: 0x0, symName: __ZNSt8__detail15_Hash_node_baseC2Ev, symObjAddr: 0x81C, symBinAddr: 0x100001004, symSize: 0x1C }
  - { offset: 0x356D5, size: 0x8, addend: 0x0, symName: __ZNK11__gnu_debug19_Safe_sequence_base17_M_invalidate_allEv, symObjAddr: 0x7C8, symBinAddr: 0x100000FB0, symSize: 0x54 }
  - { offset: 0x35723, size: 0x8, addend: 0x0, symName: __ZN11__gnu_debug19_Safe_sequence_baseD2Ev, symObjAddr: 0x790, symBinAddr: 0x100000F78, symSize: 0x38 }
  - { offset: 0x3577C, size: 0x8, addend: 0x0, symName: __ZN11__gnu_debug19_Safe_sequence_baseC2Ev, symObjAddr: 0x760, symBinAddr: 0x100000F48, symSize: 0x30 }
  - { offset: 0x357A2, size: 0x8, addend: 0x0, symName: __ZN11__gnu_debug19_Safe_iterator_base13_M_invalidateEv, symObjAddr: 0x744, symBinAddr: 0x100000F2C, symSize: 0x1C }
  - { offset: 0x357F0, size: 0x8, addend: 0x0, symName: __ZN11__gnu_debug19_Safe_iterator_baseD2Ev, symObjAddr: 0x70C, symBinAddr: 0x100000EF4, symSize: 0x38 }
  - { offset: 0x35863, size: 0x8, addend: 0x0, symName: __ZN11__gnu_debug19_Safe_iterator_baseC2EPKNS_19_Safe_sequence_baseEb, symObjAddr: 0x69C, symBinAddr: 0x100000E84, symSize: 0x70 }
  - { offset: 0x358CE, size: 0x8, addend: 0x0, symName: __ZN11__gnu_debug19_Safe_iterator_baseC2Ev, symObjAddr: 0x668, symBinAddr: 0x100000E50, symSize: 0x34 }
  - { offset: 0x35918, size: 0x8, addend: 0x0, symName: __ZN9__gnu_cxx13__scoped_lockD1Ev, symObjAddr: 0x644, symBinAddr: 0x100000E2C, symSize: 0x24 }
  - { offset: 0x35965, size: 0x8, addend: 0x0, symName: __ZN9__gnu_cxx13__scoped_lockC1ERNS_7__mutexE, symObjAddr: 0x610, symBinAddr: 0x100000DF8, symSize: 0x34 }
  - { offset: 0x35994, size: 0x8, addend: 0x0, symName: __ZN9__gnu_cxx7__mutex6unlockEv, symObjAddr: 0x5B8, symBinAddr: 0x100000DA0, symSize: 0x58 }
  - { offset: 0x359BE, size: 0x8, addend: 0x0, symName: __ZN9__gnu_cxx7__mutex4lockEv, symObjAddr: 0x560, symBinAddr: 0x100000D48, symSize: 0x58 }
  - { offset: 0x359E4, size: 0x8, addend: 0x0, symName: __ZN9__gnu_cxx32__throw_concurrence_unlock_errorEv, symObjAddr: 0x524, symBinAddr: 0x100000D0C, symSize: 0x3C }
  - { offset: 0x35A27, size: 0x8, addend: 0x0, symName: __ZN9__gnu_cxx26__concurrence_unlock_errorD0Ev, symObjAddr: 0x4FC, symBinAddr: 0x100000CE4, symSize: 0x28 }
  - { offset: 0x35A51, size: 0x8, addend: 0x0, symName: __ZN9__gnu_cxx26__concurrence_unlock_errorD1Ev, symObjAddr: 0x4C8, symBinAddr: 0x100000CB0, symSize: 0x34 }
  - { offset: 0x35A94, size: 0x8, addend: 0x0, symName: __ZN9__gnu_cxx26__concurrence_unlock_errorC1Ev, symObjAddr: 0x494, symBinAddr: 0x100000C7C, symSize: 0x34 }
  - { offset: 0x35AB6, size: 0x8, addend: 0x0, symName: __ZN9__gnu_cxx30__throw_concurrence_lock_errorEv, symObjAddr: 0x458, symBinAddr: 0x100000C40, symSize: 0x3C }
  - { offset: 0x35AF9, size: 0x8, addend: 0x0, symName: __ZN9__gnu_cxx24__concurrence_lock_errorD0Ev, symObjAddr: 0x430, symBinAddr: 0x100000C18, symSize: 0x28 }
  - { offset: 0x35B23, size: 0x8, addend: 0x0, symName: __ZN9__gnu_cxx24__concurrence_lock_errorD1Ev, symObjAddr: 0x3FC, symBinAddr: 0x100000BE4, symSize: 0x34 }
  - { offset: 0x35B66, size: 0x8, addend: 0x0, symName: __ZN9__gnu_cxx24__concurrence_lock_errorC1Ev, symObjAddr: 0x3C8, symBinAddr: 0x100000BB0, symSize: 0x34 }
  - { offset: 0x35B8C, size: 0x8, addend: 0x0, symName: __ZNK9__gnu_cxx26__concurrence_unlock_error4whatEv, symObjAddr: 0x3B0, symBinAddr: 0x100000B98, symSize: 0x18 }
  - { offset: 0x35BB6, size: 0x8, addend: 0x0, symName: __ZNK9__gnu_cxx24__concurrence_lock_error4whatEv, symObjAddr: 0x398, symBinAddr: 0x100000B80, symSize: 0x18 }
  - { offset: 0x35BE4, size: 0x8, addend: 0x0, symName: __ZL22__gthread_mutex_unlockP23_opaque_pthread_mutex_t, symObjAddr: 0x358, symBinAddr: 0x100000B40, symSize: 0x40 }
  - { offset: 0x35C16, size: 0x8, addend: 0x0, symName: __ZL20__gthread_mutex_lockP23_opaque_pthread_mutex_t, symObjAddr: 0x318, symBinAddr: 0x100000B00, symSize: 0x40 }
  - { offset: 0x35C48, size: 0x8, addend: 0x0, symName: __ZL18__gthread_active_pv, symObjAddr: 0x310, symBinAddr: 0x100000AF8, symSize: 0x8 }
  - { offset: 0x35C64, size: 0x8, addend: 0x0, symName: __ZNKSt4hashIiEclEi, symObjAddr: 0x2F8, symBinAddr: 0x100000AE0, symSize: 0x18 }
  - { offset: 0x35CA1, size: 0x8, addend: 0x0, symName: __ZdlPvS_, symObjAddr: 0x2E0, symBinAddr: 0x100000AC8, symSize: 0x18 }
  - { offset: 0x35CD7, size: 0x8, addend: 0x0, symName: __ZnwmPv, symObjAddr: 0x2C8, symBinAddr: 0x100000AB0, symSize: 0x18 }
  - { offset: 0x35D09, size: 0x8, addend: 0x0, symName: __ZSt17__size_to_integerm, symObjAddr: 0x2B4, symBinAddr: 0x100000A9C, symSize: 0x14 }
  - { offset: 0x35D33, size: 0x8, addend: 0x0, symName: __ZN9__gnu_cxx5__ops15__val_comp_iterENS0_15_Iter_less_iterE, symObjAddr: 0x29C, symBinAddr: 0x100000A84, symSize: 0x18 }
  - { offset: 0x35D78, size: 0x8, addend: 0x0, symName: __ZN9__gnu_cxx5__ops14_Iter_less_valC1ENS0_15_Iter_less_iterE, symObjAddr: 0x284, symBinAddr: 0x100000A6C, symSize: 0x18 }
  - { offset: 0x35DA3, size: 0x8, addend: 0x0, symName: __ZN9__gnu_cxx5__ops16__iter_less_iterEv, symObjAddr: 0x27C, symBinAddr: 0x100000A64, symSize: 0x8 }
  - { offset: 0x35DBB, size: 0x8, addend: 0x0, symName: __ZN11__gnu_debug16_Error_formatter5_S_atEPKcjS2_, symObjAddr: 0x1E8, symBinAddr: 0x1000009D0, symSize: 0x94 }
  - { offset: 0x35E14, size: 0x8, addend: 0x0, symName: __ZZN11__gnu_debug16_Error_formatter5_S_atEPKcjS2_E11__formatter, symObjAddr: 0xE2B8, symBinAddr: 0x100020000, symSize: 0x0 }
  - { offset: 0x35E6B, size: 0x8, addend: 0x0, symName: __ZN11__gnu_debug16_Error_formatterC1EPKcjS2_, symObjAddr: 0x15C, symBinAddr: 0x100000944, symSize: 0x8C }
  - { offset: 0x35EAC, size: 0x8, addend: 0x0, symName: __ZN11__gnu_debug16_Error_formatter10_M_integerElPKc, symObjAddr: 0xC0, symBinAddr: 0x1000008A8, symSize: 0x9C }
  - { offset: 0x35F31, size: 0x8, addend: 0x0, symName: __ZN11__gnu_debug16_Error_formatter10_ParameterC1ElPKc, symObjAddr: 0x6C, symBinAddr: 0x100000854, symSize: 0x54 }
  - { offset: 0x35F83, size: 0x8, addend: 0x0, symName: __ZN11__gnu_debug16_Error_formatter10_ParameterC1Ev, symObjAddr: 0x3C, symBinAddr: 0x100000824, symSize: 0x30 }
  - { offset: 0x35FC3, size: 0x8, addend: 0x0, symName: __ZNSt9exceptionC2Ev, symObjAddr: 0x14, symBinAddr: 0x1000007FC, symSize: 0x28 }
  - { offset: 0x35FE5, size: 0x8, addend: 0x0, symName: __ZN11__gnu_debug20__check_singular_auxEPKv, symObjAddr: 0x0, symBinAddr: 0x1000007E8, symSize: 0x14 }
...
