---
triple:          'arm64-apple-darwin'
binary-path:     '/Users/mengchengxi/Documents/code/C++C/competition/F. Skibidus and Slay'
relocations:
  - { offset: 0x25BCE, size: 0x8, addend: 0x0, symName: __ZStL8__ioinit, symObjAddr: 0xD3810, symBinAddr: 0x100018228, symSize: 0x0 }
  - { offset: 0x26131, size: 0x8, addend: 0x0, symName: __ZL3INF, symObjAddr: 0x8014, symBinAddr: 0x100009D9C, symSize: 0x0 }
  - { offset: 0x26148, size: 0x8, addend: 0x0, symName: __ZL3mod, symObjAddr: 0x8018, symBinAddr: 0x100009DA0, symSize: 0x0 }
  - { offset: 0x2615F, size: 0x8, addend: 0x0, symName: _nodes, symObjAddr: 0xD3818, symBinAddr: 0x100018230, symSize: 0x0 }
  - { offset: 0x26364, size: 0x8, addend: 0x0, symName: _tree, symObjAddr: 0xD3850, symBinAddr: 0x100018268, symSize: 0x0 }
  - { offset: 0x2637B, size: 0x8, addend: 0x0, symName: _finished, symObjAddr: 0xD3888, symBinAddr: 0x1000182A0, symSize: 0x0 }
  - { offset: 0x266F8, size: 0x8, addend: 0x0, symName: __GLOBAL__sub_I_F._Skibidus_and_Slay.cpp, symObjAddr: 0x94FC, symBinAddr: 0x1000088F8, symSize: 0x14 }
  - { offset: 0x26710, size: 0x8, addend: 0x0, symName: __Z41__static_initialization_and_destruction_0v, symObjAddr: 0x9448, symBinAddr: 0x100008844, symSize: 0xB4 }
  - { offset: 0x26728, size: 0x8, addend: 0x0, symName: __ZNSt10_Head_baseILm0ERKiLb0EE7_M_headERS2_, symObjAddr: 0x7FF4, symBinAddr: 0x10000882C, symSize: 0x18 }
  - { offset: 0x26751, size: 0x8, addend: 0x0, symName: __ZNSt11_Tuple_implILm0EJRKiEE7_M_headERS2_, symObjAddr: 0x7FD8, symBinAddr: 0x100008810, symSize: 0x1C }
  - { offset: 0x2677B, size: 0x8, addend: 0x0, symName: __ZSt9__fill_a1IPiiEN9__gnu_cxx11__enable_ifIXsrSt11__is_scalarIT0_E7__valueEvE6__typeET_S8_RKS4_, symObjAddr: 0x7F80, symBinAddr: 0x1000087B8, symSize: 0x58 }
  - { offset: 0x267EA, size: 0x8, addend: 0x0, symName: __ZSt12__get_helperILm0ERKiJEERT0_RSt11_Tuple_implIXT_EJS2_DpT1_EE, symObjAddr: 0x7F64, symBinAddr: 0x10000879C, symSize: 0x1C }
  - { offset: 0x26842, size: 0x8, addend: 0x0, symName: __ZSt8__fill_aIPiiEvT_S1_RKT0_, symObjAddr: 0x7F34, symBinAddr: 0x10000876C, symSize: 0x30 }
  - { offset: 0x268A0, size: 0x8, addend: 0x0, symName: __ZN11__gnu_debug13__can_advanceIPimEEbT_T0_, symObjAddr: 0x7F1C, symBinAddr: 0x100008754, symSize: 0x18 }
  - { offset: 0x268DD, size: 0x8, addend: 0x0, symName: __ZSt3getILm0EJRKiEERNSt13tuple_elementIXT_ESt5tupleIJDpT0_EEE4typeERS6_, symObjAddr: 0x7F00, symBinAddr: 0x100008738, symSize: 0x1C }
  - { offset: 0x26938, size: 0x8, addend: 0x0, symName: __ZSt7forwardIRKNSt7__debug6vectorIiSaIiEEEEOT_RNSt16remove_referenceIS6_E4typeE, symObjAddr: 0x7EEC, symBinAddr: 0x100008724, symSize: 0x14 }
  - { offset: 0x269B6, size: 0x8, addend: 0x0, symName: __ZNSt4pairIlN11__gnu_debug19_Distance_precisionEEC1IlS1_Lb1EEEOT_OT0_, symObjAddr: 0x7EA4, symBinAddr: 0x1000086DC, symSize: 0x48 }
  - { offset: 0x269FC, size: 0x8, addend: 0x0, symName: __ZSt10__fill_n_aIPimiET_S1_T0_RKT1_St26random_access_iterator_tag, symObjAddr: 0x7DB8, symBinAddr: 0x1000085F0, symSize: 0xEC }
  - { offset: 0x26AF4, size: 0x8, addend: 0x0, symName: __ZNSt4pairIKiiEC1IJRS0_EJLm0EEJEJEEERSt5tupleIJDpT_EERS4_IJDpT1_EESt12_Index_tupleIJXspT0_EEESD_IJXspT2_EEE, symObjAddr: 0x7D70, symBinAddr: 0x1000085A8, symSize: 0x48 }
  - { offset: 0x26B67, size: 0x8, addend: 0x0, symName: __ZNSt15__new_allocatorIPNSt8__detail15_Hash_node_baseEE8allocateEmPKv, symObjAddr: 0x7CF4, symBinAddr: 0x10000852C, symSize: 0x7C }
  - { offset: 0x26BEF, size: 0x8, addend: 0x0, symName: __ZSt11__addressofINSt8__detail10_Hash_nodeISt4pairIKiiELb0EEEEPT_RS6_, symObjAddr: 0x7CE0, symBinAddr: 0x100008518, symSize: 0x14 }
  - { offset: 0x26C44, size: 0x8, addend: 0x0, symName: __ZN11__gnu_debug12_Safe_vectorINSt7__debug6vectorIiSaIiEEENSt9__cxx19986vectorIiS3_EEEC2ERKS8_, symObjAddr: 0x7CB4, symBinAddr: 0x1000084EC, symSize: 0x2C }
  - { offset: 0x26C9B, size: 0x8, addend: 0x0, symName: __ZNSt9__cxx19986vectorIiSaIiEEC2ERKS2_, symObjAddr: 0x7BA0, symBinAddr: 0x1000083D8, symSize: 0x114 }
  - { offset: 0x26DB1, size: 0x8, addend: 0x0, symName: __ZSt7forwardIRNSt7__debug6vectorIiSaIiEEEEOT_RNSt16remove_referenceIS5_E4typeE, symObjAddr: 0x7B8C, symBinAddr: 0x1000083C4, symSize: 0x14 }
  - { offset: 0x26DEA, size: 0x8, addend: 0x0, symName: __ZN9__gnu_cxxmiIPKNSt7__debug6vectorIiSaIiEEENSt9__cxx19986vectorIS4_SaIS4_EEEEENS_17__normal_iteratorIT_T0_E15difference_typeERKSE_SH_, symObjAddr: 0x7B38, symBinAddr: 0x100008370, symSize: 0x54 }
  - { offset: 0x26E37, size: 0x8, addend: 0x0, symName: __ZSt10_ConstructINSt7__debug6vectorIiSaIiEEEJRKS3_EEvPT_DpOT0_, symObjAddr: 0x7ABC, symBinAddr: 0x1000082F4, symSize: 0x7C }
  - { offset: 0x26E87, size: 0x8, addend: 0x0, symName: __ZNK9__gnu_cxx17__normal_iteratorIPKNSt7__debug6vectorIiSaIiEEENSt9__cxx19986vectorIS4_SaIS4_EEEEdeEv, symObjAddr: 0x7AA4, symBinAddr: 0x1000082DC, symSize: 0x18 }
  - { offset: 0x26EB1, size: 0x8, addend: 0x0, symName: __ZN9__gnu_cxx17__normal_iteratorIPKNSt7__debug6vectorIiSaIiEEENSt9__cxx19986vectorIS4_SaIS4_EEEEppEv, symObjAddr: 0x7A7C, symBinAddr: 0x1000082B4, symSize: 0x28 }
  - { offset: 0x26ED7, size: 0x8, addend: 0x0, symName: __ZN9__gnu_cxxneIPKNSt7__debug6vectorIiSaIiEEENSt9__cxx19986vectorIS4_SaIS4_EEEEEbRKNS_17__normal_iteratorIT_T0_EESG_, symObjAddr: 0x7A38, symBinAddr: 0x100008270, symSize: 0x44 }
  - { offset: 0x26F24, size: 0x8, addend: 0x0, symName: __ZNSt11__copy_moveILb0ELb0ESt26random_access_iterator_tagE12__assign_oneIiiEEvPT_PT0_, symObjAddr: 0x7A10, symBinAddr: 0x100008248, symSize: 0x28 }
  - { offset: 0x26F71, size: 0x8, addend: 0x0, symName: __ZNSt11__copy_moveILb0ELb0ESt26random_access_iterator_tagE12__assign_oneIiKiEEvPT_PT0_, symObjAddr: 0x79E8, symBinAddr: 0x100008220, symSize: 0x28 }
  - { offset: 0x26FBE, size: 0x8, addend: 0x0, symName: __ZSt9make_pairIlN11__gnu_debug19_Distance_precisionEESt4pairINSt25__strip_reference_wrapperINSt5decayIT_E4typeEE6__typeENS3_INS4_IT0_E4typeEE6__typeEEOS5_OSA_, symObjAddr: 0x799C, symBinAddr: 0x1000081D4, symSize: 0x4C }
  - { offset: 0x27012, size: 0x8, addend: 0x0, symName: __ZN9__gnu_cxxmiIPKiNSt9__cxx19986vectorIiSaIiEEEEENS_17__normal_iteratorIT_T0_E15difference_typeERKSA_SD_, symObjAddr: 0x795C, symBinAddr: 0x100008194, symSize: 0x40 }
  - { offset: 0x2705F, size: 0x8, addend: 0x0, symName: __ZSt13__copy_move_aILb0EN9__gnu_cxx17__normal_iteratorIPKiNSt9__cxx19986vectorIiSaIiEEEEEPiET1_T0_SB_SA_, symObjAddr: 0x78FC, symBinAddr: 0x100008134, symSize: 0x60 }
  - { offset: 0x270C7, size: 0x8, addend: 0x0, symName: __ZSt10_ConstructINSt7__debug6vectorIiSaIiEEEJEEvPT_DpOT0_, symObjAddr: 0x78AC, symBinAddr: 0x1000080E4, symSize: 0x50 }
  - { offset: 0x27103, size: 0x8, addend: 0x0, symName: __ZSt6fill_nIPimiET_S1_T0_RKT1_, symObjAddr: 0x7864, symBinAddr: 0x10000809C, symSize: 0x48 }
  - { offset: 0x2718B, size: 0x8, addend: 0x0, symName: __ZSt10_ConstructIiJEEvPT_DpOT0_, symObjAddr: 0x7838, symBinAddr: 0x100008070, symSize: 0x2C }
  - { offset: 0x271C7, size: 0x8, addend: 0x0, symName: __ZSt11__addressofIiEPT_RS0_, symObjAddr: 0x7824, symBinAddr: 0x10000805C, symSize: 0x14 }
  - { offset: 0x27201, size: 0x8, addend: 0x0, symName: __ZNK9__gnu_cxx16__aligned_bufferISt4pairIKiiEE7_M_addrEv, symObjAddr: 0x7810, symBinAddr: 0x100008048, symSize: 0x14 }
  - { offset: 0x27276, size: 0x8, addend: 0x0, symName: __ZNSt4pairIKiiEC1IJRS0_EJEEESt21piecewise_construct_tSt5tupleIJDpT_EES5_IJDpT0_EE, symObjAddr: 0x77D4, symBinAddr: 0x10000800C, symSize: 0x3C }
  - { offset: 0x272F0, size: 0x8, addend: 0x0, symName: __ZNSt11_Tuple_implILm0EJRKiEEC2EOS2_, symObjAddr: 0x77AC, symBinAddr: 0x100007FE4, symSize: 0x28 }
  - { offset: 0x2731B, size: 0x8, addend: 0x0, symName: __ZSt12__to_addressIPNSt8__detail15_Hash_node_baseEEPT_S4_, symObjAddr: 0x7798, symBinAddr: 0x100007FD0, symSize: 0x14 }
  - { offset: 0x27371, size: 0x8, addend: 0x0, symName: __ZSt11__addressofIPNSt8__detail15_Hash_node_baseEEPT_RS3_, symObjAddr: 0x7784, symBinAddr: 0x100007FBC, symSize: 0x14 }
  - { offset: 0x273A3, size: 0x8, addend: 0x0, symName: __ZSt9addressofINSt8__detail10_Hash_nodeISt4pairIKiiELb0EEEEPT_RS6_, symObjAddr: 0x7768, symBinAddr: 0x100007FA0, symSize: 0x1C }
  - { offset: 0x273D5, size: 0x8, addend: 0x0, symName: __ZSt14__relocate_a_1IiiENSt9enable_ifIXsrSt24__is_bitwise_relocatableIT_vE5valueEPS2_E4typeES4_S4_S4_RSaIT0_E, symObjAddr: 0x7704, symBinAddr: 0x100007F3C, symSize: 0x64 }
  - { offset: 0x27455, size: 0x8, addend: 0x0, symName: __ZSt10_ConstructINSt7__debug6vectorIiSaIiEEEJRS3_EEvPT_DpOT0_, symObjAddr: 0x7688, symBinAddr: 0x100007EC0, symSize: 0x7C }
  - { offset: 0x274C4, size: 0x8, addend: 0x0, symName: __ZNSt7__debug6vectorIiSaIiEEC1ERKS2_, symObjAddr: 0x760C, symBinAddr: 0x100007E44, symSize: 0x7C }
  - { offset: 0x27512, size: 0x8, addend: 0x0, symName: __ZN11__gnu_debug15_Safe_containerINSt7__debug6vectorIiSaIiEEES3_NS_14_Safe_sequenceELb1EEC2ERKS6_, symObjAddr: 0x75E4, symBinAddr: 0x100007E1C, symSize: 0x28 }
  - { offset: 0x27575, size: 0x8, addend: 0x0, symName: __ZN11__gnu_debug14_Safe_sequenceINSt7__debug6vectorIiSaIiEEEEC2ERKS5_, symObjAddr: 0x75BC, symBinAddr: 0x100007DF4, symSize: 0x28 }
  - { offset: 0x275A0, size: 0x8, addend: 0x0, symName: __ZNSt11__copy_moveILb0ELb0ESt26random_access_iterator_tagE8__copy_mIPNSt7__debug6vectorIiSaIiEEES7_EET0_T_S9_S8_, symObjAddr: 0x7534, symBinAddr: 0x100007D6C, symSize: 0x88 }
  - { offset: 0x2762F, size: 0x8, addend: 0x0, symName: __ZN11__gnu_debug14__get_distanceIPNSt7__debug6vectorIiSaIiEEEEENS_16_Distance_traitsIT_NSt12__is_integerIS7_E6__typeEE6__typeES7_S7_St26random_access_iterator_tag, symObjAddr: 0x74DC, symBinAddr: 0x100007D14, symSize: 0x58 }
  - { offset: 0x27690, size: 0x8, addend: 0x0, symName: __ZNSt11__copy_moveILb0ELb0ESt26random_access_iterator_tagE8__copy_mIPKNSt7__debug6vectorIiSaIiEEEPS6_EET0_T_SB_SA_, symObjAddr: 0x7454, symBinAddr: 0x100007C8C, symSize: 0x88 }
  - { offset: 0x27725, size: 0x8, addend: 0x0, symName: __ZSt11__addressofIKPKNSt7__debug6vectorIiSaIiEEEEPT_RS7_, symObjAddr: 0x7440, symBinAddr: 0x100007C78, symSize: 0x14 }
  - { offset: 0x27757, size: 0x8, addend: 0x0, symName: __ZN11__gnu_debug14__get_distanceIN9__gnu_cxx17__normal_iteratorIPKNSt7__debug6vectorIiSaIiEEENSt9__cxx19986vectorIS6_SaIS6_EEEEEEENS_16_Distance_traitsIT_NSt12__is_integerISF_E6__typeEE6__typeESF_SF_St26random_access_iterator_tag, symObjAddr: 0x7400, symBinAddr: 0x100007C38, symSize: 0x40 }
  - { offset: 0x277B8, size: 0x8, addend: 0x0, symName: __ZSt11__addressofIKN9__gnu_cxx17__normal_iteratorIPKNSt7__debug6vectorIiSaIiEEENSt9__cxx19986vectorIS5_SaIS5_EEEEEEPT_RSE_, symObjAddr: 0x73EC, symBinAddr: 0x100007C24, symSize: 0x14 }
  - { offset: 0x277EA, size: 0x8, addend: 0x0, symName: __ZN9__gnu_cxxeqIPKNSt7__debug6vectorIiSaIiEEENSt9__cxx19986vectorIS4_SaIS4_EEEEEbRKNS_17__normal_iteratorIT_T0_EESG_, symObjAddr: 0x73A8, symBinAddr: 0x100007BE0, symSize: 0x44 }
  - { offset: 0x27837, size: 0x8, addend: 0x0, symName: __ZSt16__do_uninit_copyIN9__gnu_cxx17__normal_iteratorIPKNSt7__debug6vectorIiSaIiEEENSt9__cxx19986vectorIS5_SaIS5_EEEEEPS5_ET0_T_SF_SE_, symObjAddr: 0x7300, symBinAddr: 0x100007B38, symSize: 0xA8 }
  - { offset: 0x278A2, size: 0x8, addend: 0x0, symName: __ZNSt11__copy_moveILb0ELb1ESt26random_access_iterator_tagE8__copy_mIiiEEPT0_PT_S6_S4_, symObjAddr: 0x7270, symBinAddr: 0x100007AA8, symSize: 0x90 }
  - { offset: 0x27911, size: 0x8, addend: 0x0, symName: __ZN11__gnu_debug14__get_distanceIPiEENS_16_Distance_traitsIT_NSt12__is_integerIS3_E6__typeEE6__typeES3_S3_St26random_access_iterator_tag, symObjAddr: 0x722C, symBinAddr: 0x100007A64, symSize: 0x44 }
  - { offset: 0x27972, size: 0x8, addend: 0x0, symName: __ZNSt11__copy_moveILb0ELb1ESt26random_access_iterator_tagE8__copy_mIKiiEEPT0_PT_S7_S5_, symObjAddr: 0x719C, symBinAddr: 0x1000079D4, symSize: 0x90 }
  - { offset: 0x279E7, size: 0x8, addend: 0x0, symName: __ZSt11__addressofIKPKiEPT_RS3_, symObjAddr: 0x7188, symBinAddr: 0x1000079C0, symSize: 0x14 }
  - { offset: 0x27A20, size: 0x8, addend: 0x0, symName: __ZSt7forwardIN11__gnu_debug19_Distance_precisionEEOT_RNSt16remove_referenceIS2_E4typeE, symObjAddr: 0x7174, symBinAddr: 0x1000079AC, symSize: 0x14 }
  - { offset: 0x27A59, size: 0x8, addend: 0x0, symName: __ZSt7forwardIlEOT_RNSt16remove_referenceIS0_E4typeE, symObjAddr: 0x7160, symBinAddr: 0x100007998, symSize: 0x14 }
  - { offset: 0x27A8B, size: 0x8, addend: 0x0, symName: __ZN11__gnu_debug14__get_distanceIN9__gnu_cxx17__normal_iteratorIPKiNSt9__cxx19986vectorIiSaIiEEEEEEENS_16_Distance_traitsIT_NSt12__is_integerISB_E6__typeEE6__typeESB_SB_St26random_access_iterator_tag, symObjAddr: 0x7120, symBinAddr: 0x100007958, symSize: 0x40 }
  - { offset: 0x27AEC, size: 0x8, addend: 0x0, symName: __ZSt11__addressofIKN9__gnu_cxx17__normal_iteratorIPKiNSt9__cxx19986vectorIiSaIiEEEEEEPT_RSA_, symObjAddr: 0x710C, symBinAddr: 0x100007944, symSize: 0x14 }
  - { offset: 0x27B1E, size: 0x8, addend: 0x0, symName: __ZN9__gnu_cxxeqIPKiNSt9__cxx19986vectorIiSaIiEEEEEbRKNS_17__normal_iteratorIT_T0_EESC_, symObjAddr: 0x70C8, symBinAddr: 0x100007900, symSize: 0x44 }
  - { offset: 0x27B6B, size: 0x8, addend: 0x0, symName: __ZSt4copyIN9__gnu_cxx17__normal_iteratorIPKiNSt9__cxx19986vectorIiSaIiEEEEEPiET0_T_SB_SA_, symObjAddr: 0x6F64, symBinAddr: 0x10000779C, symSize: 0x164 }
  - { offset: 0x27C08, size: 0x8, addend: 0x0, symName: __ZNSt27__uninitialized_default_n_1ILb0EE18__uninit_default_nIPNSt7__debug6vectorIiSaIiEEEmEET_S7_T0_, symObjAddr: 0x6F0C, symBinAddr: 0x100007744, symSize: 0x58 }
  - { offset: 0x27C7C, size: 0x8, addend: 0x0, symName: __ZNSt27__uninitialized_default_n_1ILb1EE18__uninit_default_nIPimEET_S3_T0_, symObjAddr: 0x6EA8, symBinAddr: 0x1000076E0, symSize: 0x64 }
  - { offset: 0x27D0D, size: 0x8, addend: 0x0, symName: __ZNK9__gnu_cxx16__aligned_bufferISt4pairIKiiEE6_M_ptrEv, symObjAddr: 0x6E8C, symBinAddr: 0x1000076C4, symSize: 0x1C }
  - { offset: 0x27D37, size: 0x8, addend: 0x0, symName: __ZNKSt8__detail21_Hashtable_ebo_helperILi0ESt8equal_toIiELb1EE7_M_cgetEv, symObjAddr: 0x6E78, symBinAddr: 0x1000076B0, symSize: 0x14 }
  - { offset: 0x27D61, size: 0x8, addend: 0x0, symName: __ZNSt15__new_allocatorINSt8__detail10_Hash_nodeISt4pairIKiiELb0EEEE10deallocateEPS5_m, symObjAddr: 0x6E48, symBinAddr: 0x100007680, symSize: 0x30 }
  - { offset: 0x27E2E, size: 0x8, addend: 0x0, symName: __ZNSt5tupleIJRKiEEC1EOS2_, symObjAddr: 0x6E20, symBinAddr: 0x100007658, symSize: 0x28 }
  - { offset: 0x27E5D, size: 0x8, addend: 0x0, symName: __ZNSt15__new_allocatorINSt8__detail10_Hash_nodeISt4pairIKiiELb0EEEE8allocateEmPKv, symObjAddr: 0x6DA4, symBinAddr: 0x1000075DC, symSize: 0x7C }
  - { offset: 0x27EED, size: 0x8, addend: 0x0, symName: __ZN9__gnu_cxx16__aligned_bufferISt4pairIKiiEE7_M_addrEv, symObjAddr: 0x6D90, symBinAddr: 0x1000075C8, symSize: 0x14 }
  - { offset: 0x27F13, size: 0x8, addend: 0x0, symName: __ZNSt8__detail15_Hashtable_baseIiSt4pairIKiiENS_10_Select1stESt8equal_toIiESt4hashIiENS_18_Mod_range_hashingENS_20_Default_ranged_hashENS_17_Hashtable_traitsILb0ELb0ELb1EEEE9_S_equalsEmRKNS_21_Hash_node_code_cacheILb0EEE, symObjAddr: 0x6D78, symBinAddr: 0x1000075B0, symSize: 0x18 }
  - { offset: 0x27F42, size: 0x8, addend: 0x0, symName: __ZNSt8__detail16_Hashtable_allocISaINS_10_Hash_nodeISt4pairIKiiELb0EEEEE19_M_allocate_bucketsEm, symObjAddr: 0x6CC8, symBinAddr: 0x100007500, symSize: 0xB0 }
  - { offset: 0x28069, size: 0x8, addend: 0x0, symName: __ZNSt15__new_allocatorIPNSt8__detail15_Hash_node_baseEE10deallocateEPS2_m, symObjAddr: 0x6C98, symBinAddr: 0x1000074D0, symSize: 0x30 }
  - { offset: 0x280D7, size: 0x8, addend: 0x0, symName: __ZNSt15__new_allocatorIPNSt8__detail15_Hash_node_baseEED2Ev, symObjAddr: 0x6C84, symBinAddr: 0x1000074BC, symSize: 0x14 }
  - { offset: 0x2810F, size: 0x8, addend: 0x0, symName: __ZSt9addressofIPNSt8__detail15_Hash_node_baseEEPT_RS3_, symObjAddr: 0x6C68, symBinAddr: 0x1000074A0, symSize: 0x1C }
  - { offset: 0x28141, size: 0x8, addend: 0x0, symName: __ZNSt19__ptr_traits_ptr_toIPNSt8__detail10_Hash_nodeISt4pairIKiiELb0EEES5_Lb0EE10pointer_toERS5_, symObjAddr: 0x6C4C, symBinAddr: 0x100007484, symSize: 0x1C }
  - { offset: 0x2819A, size: 0x8, addend: 0x0, symName: __ZNSt8__detail21_Hashtable_ebo_helperILi0ESaINS_10_Hash_nodeISt4pairIKiiELb0EEEELb1EE6_M_getEv, symObjAddr: 0x6C38, symBinAddr: 0x100007470, symSize: 0x14 }
  - { offset: 0x281C0, size: 0x8, addend: 0x0, symName: __ZSt12__relocate_aIPiS0_SaIiEET0_T_S3_S2_RT1_, symObjAddr: 0x6BDC, symBinAddr: 0x100007414, symSize: 0x5C }
  - { offset: 0x2823C, size: 0x8, addend: 0x0, symName: __ZNKSt9__cxx19986vectorIiSaIiEE8max_sizeEv, symObjAddr: 0x6BBC, symBinAddr: 0x1000073F4, symSize: 0x20 }
  - { offset: 0x28262, size: 0x8, addend: 0x0, symName: __ZSt16__do_uninit_copyIPNSt7__debug6vectorIiSaIiEEES4_ET0_T_S6_S5_, symObjAddr: 0x6B28, symBinAddr: 0x100007360, symSize: 0x94 }
  - { offset: 0x282CD, size: 0x8, addend: 0x0, symName: __ZSt14__copy_move_a2ILb0EPNSt7__debug6vectorIiSaIiEEES4_ET1_T0_S6_S5_, symObjAddr: 0x6AFC, symBinAddr: 0x100007334, symSize: 0x2C }
  - { offset: 0x2833B, size: 0x8, addend: 0x0, symName: __ZSt11__addressofIKPNSt7__debug6vectorIiSaIiEEEEPT_RS6_, symObjAddr: 0x6AE8, symBinAddr: 0x100007320, symSize: 0x14 }
  - { offset: 0x2836D, size: 0x8, addend: 0x0, symName: __ZN11__gnu_debug14__get_distanceIPNSt7__debug6vectorIiSaIiEEEEENS_16_Distance_traitsIT_NSt12__is_integerIS7_E6__typeEE6__typeES7_S7_, symObjAddr: 0x6AC0, symBinAddr: 0x1000072F8, symSize: 0x28 }
  - { offset: 0x283CF, size: 0x8, addend: 0x0, symName: __ZN11__gnu_debug17__valid_range_auxIPNSt7__debug6vectorIiSaIiEEEEEbT_S6_St18input_iterator_tag, symObjAddr: 0x6A50, symBinAddr: 0x100007288, symSize: 0x70 }
  - { offset: 0x2841A, size: 0x8, addend: 0x0, symName: __ZN11__gnu_debug16__check_singularINSt7__debug6vectorIiSaIiEEEEEbRKPT_, symObjAddr: 0x6A2C, symBinAddr: 0x100007264, symSize: 0x24 }
  - { offset: 0x28450, size: 0x8, addend: 0x0, symName: __ZNK9__gnu_cxx17__normal_iteratorIPNSt7__debug6vectorIiSaIiEEENSt9__cxx19986vectorIS4_SaIS4_EEEEdeEv, symObjAddr: 0x6A14, symBinAddr: 0x10000724C, symSize: 0x18 }
  - { offset: 0x2847A, size: 0x8, addend: 0x0, symName: __ZN9__gnu_cxx17__normal_iteratorIPNSt7__debug6vectorIiSaIiEEENSt9__cxx19986vectorIS4_SaIS4_EEEEppEv, symObjAddr: 0x69EC, symBinAddr: 0x100007224, symSize: 0x28 }
  - { offset: 0x284A7, size: 0x8, addend: 0x0, symName: __ZN9__gnu_cxxneIPNSt7__debug6vectorIiSaIiEEENSt9__cxx19986vectorIS4_SaIS4_EEEEEbRKNS_17__normal_iteratorIT_T0_EESF_, symObjAddr: 0x69A8, symBinAddr: 0x1000071E0, symSize: 0x44 }
  - { offset: 0x284F8, size: 0x8, addend: 0x0, symName: __ZNK9__gnu_cxx17__normal_iteratorIPNSt7__debug6vectorIiSaIiEEENSt9__cxx19986vectorIS4_SaIS4_EEEEplEl, symObjAddr: 0x695C, symBinAddr: 0x100007194, symSize: 0x4C }
  - { offset: 0x2852F, size: 0x8, addend: 0x0, symName: __ZSt14__copy_move_a2ILb0EPKNSt7__debug6vectorIiSaIiEEEPS3_ET1_T0_S8_S7_, symObjAddr: 0x6930, symBinAddr: 0x100007168, symSize: 0x2C }
  - { offset: 0x2859B, size: 0x8, addend: 0x0, symName: __ZNK9__gnu_cxx17__normal_iteratorIPNSt7__debug6vectorIiSaIiEEENSt9__cxx19986vectorIS4_SaIS4_EEEE4baseEv, symObjAddr: 0x691C, symBinAddr: 0x100007154, symSize: 0x14 }
  - { offset: 0x28609, size: 0x8, addend: 0x0, symName: __ZN11__gnu_debug16_Error_formatter10_ParameterC1INSt7__debug6vectorIiSaIiEEEEERKPKT_PKcNS0_12_Is_iteratorE, symObjAddr: 0x686C, symBinAddr: 0x1000070A4, symSize: 0xB0 }
  - { offset: 0x28653, size: 0x8, addend: 0x0, symName: __ZNK9__gnu_cxx17__normal_iteratorIPKNSt7__debug6vectorIiSaIiEEENSt9__cxx19986vectorIS4_SaIS4_EEEE4baseEv, symObjAddr: 0x6858, symBinAddr: 0x100007090, symSize: 0x14 }
  - { offset: 0x28679, size: 0x8, addend: 0x0, symName: __ZN11__gnu_debug14__get_distanceIN9__gnu_cxx17__normal_iteratorIPKNSt7__debug6vectorIiSaIiEEENSt9__cxx19986vectorIS6_SaIS6_EEEEEEENS_16_Distance_traitsIT_NSt12__is_integerISF_E6__typeEE6__typeESF_SF_, symObjAddr: 0x6830, symBinAddr: 0x100007068, symSize: 0x28 }
  - { offset: 0x286DB, size: 0x8, addend: 0x0, symName: __ZN11__gnu_debug17__valid_range_auxIN9__gnu_cxx17__normal_iteratorIPKNSt7__debug6vectorIiSaIiEEENSt9__cxx19986vectorIS6_SaIS6_EEEEEEEbT_SE_St18input_iterator_tag, symObjAddr: 0x67B8, symBinAddr: 0x100006FF0, symSize: 0x78 }
  - { offset: 0x28726, size: 0x8, addend: 0x0, symName: __ZN11__gnu_debug16__check_singularIN9__gnu_cxx17__normal_iteratorIPKNSt7__debug6vectorIiSaIiEEENSt9__cxx19986vectorIS6_SaIS6_EEEEEEEbRKT_, symObjAddr: 0x6768, symBinAddr: 0x100006FA0, symSize: 0x50 }
  - { offset: 0x28771, size: 0x8, addend: 0x0, symName: __ZNSt20__uninitialized_copyILb0EE13__uninit_copyIN9__gnu_cxx17__normal_iteratorIPKNSt7__debug6vectorIiSaIiEEENSt9__cxx19986vectorIS7_SaIS7_EEEEEPS7_EET0_T_SH_SG_, symObjAddr: 0x673C, symBinAddr: 0x100006F74, symSize: 0x2C }
  - { offset: 0x287D0, size: 0x8, addend: 0x0, symName: __ZNSt15__new_allocatorINSt7__debug6vectorIiSaIiEEEE8allocateEmPKv, symObjAddr: 0x66A4, symBinAddr: 0x100006EDC, symSize: 0x98 }
  - { offset: 0x28858, size: 0x8, addend: 0x0, symName: __ZSt14__copy_move_a2ILb0EPiS0_ET1_T0_S2_S1_, symObjAddr: 0x6678, symBinAddr: 0x100006EB0, symSize: 0x2C }
  - { offset: 0x288C6, size: 0x8, addend: 0x0, symName: __ZSt11__addressofIKPiEPT_RS2_, symObjAddr: 0x6664, symBinAddr: 0x100006E9C, symSize: 0x14 }
  - { offset: 0x288F8, size: 0x8, addend: 0x0, symName: __ZN11__gnu_debug14__get_distanceIPiEENS_16_Distance_traitsIT_NSt12__is_integerIS3_E6__typeEE6__typeES3_S3_, symObjAddr: 0x663C, symBinAddr: 0x100006E74, symSize: 0x28 }
  - { offset: 0x2895A, size: 0x8, addend: 0x0, symName: __ZN11__gnu_debug17__valid_range_auxIPiEEbT_S2_St18input_iterator_tag, symObjAddr: 0x65CC, symBinAddr: 0x100006E04, symSize: 0x70 }
  - { offset: 0x289A5, size: 0x8, addend: 0x0, symName: __ZN11__gnu_debug16__check_singularIiEEbRKPT_, symObjAddr: 0x65A8, symBinAddr: 0x100006DE0, symSize: 0x24 }
  - { offset: 0x289DB, size: 0x8, addend: 0x0, symName: __ZNK9__gnu_cxx17__normal_iteratorIPiNSt9__cxx19986vectorIiSaIiEEEEplEl, symObjAddr: 0x6568, symBinAddr: 0x100006DA0, symSize: 0x40 }
  - { offset: 0x28A12, size: 0x8, addend: 0x0, symName: __ZSt14__copy_move_a2ILb0EPKiPiET1_T0_S4_S3_, symObjAddr: 0x653C, symBinAddr: 0x100006D74, symSize: 0x2C }
  - { offset: 0x28A7E, size: 0x8, addend: 0x0, symName: __ZNK9__gnu_cxx17__normal_iteratorIPiNSt9__cxx19986vectorIiSaIiEEEE4baseEv, symObjAddr: 0x6528, symBinAddr: 0x100006D60, symSize: 0x14 }
  - { offset: 0x28AEC, size: 0x8, addend: 0x0, symName: __ZN11__gnu_debug16_Error_formatter10_ParameterC1IiEERKPKT_PKcNS0_12_Is_iteratorE, symObjAddr: 0x6478, symBinAddr: 0x100006CB0, symSize: 0xB0 }
  - { offset: 0x28B36, size: 0x8, addend: 0x0, symName: __ZNK9__gnu_cxx17__normal_iteratorIPKiNSt9__cxx19986vectorIiSaIiEEEE4baseEv, symObjAddr: 0x6464, symBinAddr: 0x100006C9C, symSize: 0x14 }
  - { offset: 0x28B60, size: 0x8, addend: 0x0, symName: __ZNSt4pairIlN11__gnu_debug19_Distance_precisionEEaSEOS2_, symObjAddr: 0x641C, symBinAddr: 0x100006C54, symSize: 0x48 }
  - { offset: 0x28B97, size: 0x8, addend: 0x0, symName: __ZN11__gnu_debug14__get_distanceIN9__gnu_cxx17__normal_iteratorIPKiNSt9__cxx19986vectorIiSaIiEEEEEEENS_16_Distance_traitsIT_NSt12__is_integerISB_E6__typeEE6__typeESB_SB_, symObjAddr: 0x63F4, symBinAddr: 0x100006C2C, symSize: 0x28 }
  - { offset: 0x28BF9, size: 0x8, addend: 0x0, symName: __ZN11__gnu_debug17__valid_range_auxIN9__gnu_cxx17__normal_iteratorIPKiNSt9__cxx19986vectorIiSaIiEEEEEEEbT_SA_St18input_iterator_tag, symObjAddr: 0x637C, symBinAddr: 0x100006BB4, symSize: 0x78 }
  - { offset: 0x28C44, size: 0x8, addend: 0x0, symName: __ZN11__gnu_debug16__check_singularIN9__gnu_cxx17__normal_iteratorIPKiNSt9__cxx19986vectorIiSaIiEEEEEEEbRKT_, symObjAddr: 0x632C, symBinAddr: 0x100006B64, symSize: 0x50 }
  - { offset: 0x28C8F, size: 0x8, addend: 0x0, symName: __ZNSt20__uninitialized_copyILb1EE13__uninit_copyIN9__gnu_cxx17__normal_iteratorIPKiNSt9__cxx19986vectorIiSaIiEEEEEPiEET0_T_SD_SC_, symObjAddr: 0x6300, symBinAddr: 0x100006B38, symSize: 0x2C }
  - { offset: 0x28CEE, size: 0x8, addend: 0x0, symName: __ZNSt15__new_allocatorIiE8allocateEmPKv, symObjAddr: 0x6284, symBinAddr: 0x100006ABC, symSize: 0x7C }
  - { offset: 0x28D76, size: 0x8, addend: 0x0, symName: __ZSt25__uninitialized_default_nIPNSt7__debug6vectorIiSaIiEEEmET_S5_T0_, symObjAddr: 0x6258, symBinAddr: 0x100006A90, symSize: 0x2C }
  - { offset: 0x28E05, size: 0x8, addend: 0x0, symName: __ZSt25__uninitialized_default_nIPimET_S1_T0_, symObjAddr: 0x622C, symBinAddr: 0x100006A64, symSize: 0x2C }
  - { offset: 0x28E9B, size: 0x8, addend: 0x0, symName: __ZSt7forwardIRKSt4pairIKiiEEOT_RNSt16remove_referenceIS5_E4typeE, symObjAddr: 0x6218, symBinAddr: 0x100006A50, symSize: 0x14 }
  - { offset: 0x28EE7, size: 0x8, addend: 0x0, symName: __ZNKSt8equal_toIiEclERKiS2_, symObjAddr: 0x61E4, symBinAddr: 0x100006A1C, symSize: 0x34 }
  - { offset: 0x28F33, size: 0x8, addend: 0x0, symName: __ZNKSt8__detail15_Hashtable_baseIiSt4pairIKiiENS_10_Select1stESt8equal_toIiESt4hashIiENS_18_Mod_range_hashingENS_20_Default_ranged_hashENS_17_Hashtable_traitsILb0ELb0ELb1EEEE5_M_eqEv, symObjAddr: 0x61C8, symBinAddr: 0x100006A00, symSize: 0x1C }
  - { offset: 0x28F59, size: 0x8, addend: 0x0, symName: __ZNSt8__detail22_Hashtable_hash_traitsISt4hashIiEE22__small_size_thresholdEv, symObjAddr: 0x61C0, symBinAddr: 0x1000069F8, symSize: 0x8 }
  - { offset: 0x28F9D, size: 0x8, addend: 0x0, symName: __ZNSt8__detail19_Node_iterator_baseISt4pairIKiiELb0EEC2EPNS_10_Hash_nodeIS3_Lb0EEE, symObjAddr: 0x619C, symBinAddr: 0x1000069D4, symSize: 0x24 }
  - { offset: 0x29052, size: 0x8, addend: 0x0, symName: __ZSt12__to_addressINSt8__detail10_Hash_nodeISt4pairIKiiELb0EEEEPT_S7_, symObjAddr: 0x6188, symBinAddr: 0x1000069C0, symSize: 0x14 }
  - { offset: 0x290D3, size: 0x8, addend: 0x0, symName: __ZNSt10_Head_baseILm0ERKiLb0EEC2ES1_, symObjAddr: 0x6164, symBinAddr: 0x10000699C, symSize: 0x24 }
  - { offset: 0x29102, size: 0x8, addend: 0x0, symName: __ZN9__gnu_cxx16__aligned_bufferISt4pairIKiiEE6_M_ptrEv, symObjAddr: 0x6148, symBinAddr: 0x100006980, symSize: 0x1C }
  - { offset: 0x2912C, size: 0x8, addend: 0x0, symName: __ZNKSt10_HashtableIiSt4pairIKiiESaIS2_ENSt8__detail10_Select1stESt8equal_toIiESt4hashIiENS4_18_Mod_range_hashingENS4_20_Default_ranged_hashENS4_20_Prime_rehash_policyENS4_17_Hashtable_traitsILb0ELb0ELb1EEEE15_M_bucket_indexERKNS4_16_Hash_node_valueIS2_Lb0EEE, symObjAddr: 0x6118, symBinAddr: 0x100006950, symSize: 0x30 }
  - { offset: 0x29167, size: 0x8, addend: 0x0, symName: __ZNKSt8__detail15_Hashtable_baseIiSt4pairIKiiENS_10_Select1stESt8equal_toIiESt4hashIiENS_18_Mod_range_hashingENS_20_Default_ranged_hashENS_17_Hashtable_traitsILb0ELb0ELb1EEEE9_M_equalsERS2_mRKNS_16_Hash_node_valueIS3_Lb0EEE, symObjAddr: 0x60B8, symBinAddr: 0x1000068F0, symSize: 0x60 }
  - { offset: 0x291C4, size: 0x8, addend: 0x0, symName: __ZNKSt8__detail21_Hashtable_ebo_helperILi1ESt4hashIiELb1EE7_M_cgetEv, symObjAddr: 0x60A4, symBinAddr: 0x1000068DC, symSize: 0x14 }
  - { offset: 0x291EE, size: 0x8, addend: 0x0, symName: __ZNKSt8__detail15_Hash_code_baseIiSt4pairIKiiENS_10_Select1stESt4hashIiENS_18_Mod_range_hashingENS_20_Default_ranged_hashELb0EE15_M_bucket_indexERKNS_16_Hash_node_valueIS3_Lb0EEEm, symObjAddr: 0x6040, symBinAddr: 0x100006878, symSize: 0x64 }
  - { offset: 0x29282, size: 0x8, addend: 0x0, symName: __ZNSt10_HashtableIiSt4pairIKiiESaIS2_ENSt8__detail10_Select1stESt8equal_toIiESt4hashIiENS4_18_Mod_range_hashingENS4_20_Default_ranged_hashENS4_20_Prime_rehash_policyENS4_17_Hashtable_traitsILb0ELb0ELb1EEEE19_M_allocate_bucketsEm, symObjAddr: 0x5FE8, symBinAddr: 0x100006820, symSize: 0x58 }
  - { offset: 0x292B9, size: 0x8, addend: 0x0, symName: __ZSt11__addressofINSt8__detail20_Prime_rehash_policyEEPT_RS2_, symObjAddr: 0x5FD4, symBinAddr: 0x10000680C, symSize: 0x14 }
  - { offset: 0x29361, size: 0x8, addend: 0x0, symName: __ZNSt19__ptr_traits_ptr_toIPPNSt8__detail15_Hash_node_baseES2_Lb0EE10pointer_toERS2_, symObjAddr: 0x5FB8, symBinAddr: 0x1000067F0, symSize: 0x1C }
  - { offset: 0x2938E, size: 0x8, addend: 0x0, symName: __ZNSt8__detail16_Hashtable_allocISaINS_10_Hash_nodeISt4pairIKiiELb0EEEEE22_M_deallocate_node_ptrEPS5_, symObjAddr: 0x5F60, symBinAddr: 0x100006798, symSize: 0x58 }
  - { offset: 0x2943D, size: 0x8, addend: 0x0, symName: __ZNSt8__detail16_Hashtable_allocISaINS_10_Hash_nodeISt4pairIKiiELb0EEEEE17_M_node_allocatorEv, symObjAddr: 0x5F44, symBinAddr: 0x10000677C, symSize: 0x1C }
  - { offset: 0x29463, size: 0x8, addend: 0x0, symName: __ZSt8_DestroyINSt7__debug6vectorIiSaIiEEEEvPT_, symObjAddr: 0x5F24, symBinAddr: 0x10000675C, symSize: 0x20 }
  - { offset: 0x29495, size: 0x8, addend: 0x0, symName: __ZSt11__addressofINSt7__debug6vectorIiSaIiEEEEPT_RS4_, symObjAddr: 0x5F10, symBinAddr: 0x100006748, symSize: 0x14 }
  - { offset: 0x294C7, size: 0x8, addend: 0x0, symName: __ZNSt9__cxx19986vectorIiSaIiEE11_S_relocateEPiS3_S3_RS1_, symObjAddr: 0x5EDC, symBinAddr: 0x100006714, symSize: 0x34 }
  - { offset: 0x29524, size: 0x8, addend: 0x0, symName: __ZSt12__to_addressIiEPT_S1_, symObjAddr: 0x5EC8, symBinAddr: 0x100006700, symSize: 0x14 }
  - { offset: 0x29556, size: 0x8, addend: 0x0, symName: __ZN9__gnu_cxxmiIPiNSt9__cxx19986vectorIiSaIiEEEEENS_17__normal_iteratorIT_T0_E15difference_typeERKS9_SC_, symObjAddr: 0x5E88, symBinAddr: 0x1000066C0, symSize: 0x40 }
  - { offset: 0x295A7, size: 0x8, addend: 0x0, symName: __ZNKSt9__cxx19986vectorIiSaIiEE12_M_check_lenEmPKc, symObjAddr: 0x5DB8, symBinAddr: 0x1000065F0, symSize: 0xD0 }
  - { offset: 0x29649, size: 0x8, addend: 0x0, symName: __ZSt7forwardIRKiEOT_RNSt16remove_referenceIS2_E4typeE, symObjAddr: 0x5DA4, symBinAddr: 0x1000065DC, symSize: 0x14 }
  - { offset: 0x2967B, size: 0x8, addend: 0x0, symName: __ZNSt20__uninitialized_copyILb0EE13__uninit_copyIPNSt7__debug6vectorIiSaIiEEES6_EET0_T_S8_S7_, symObjAddr: 0x5D78, symBinAddr: 0x1000065B0, symSize: 0x2C }
  - { offset: 0x296D6, size: 0x8, addend: 0x0, symName: __ZSt12__niter_wrapIPNSt7__debug6vectorIiSaIiEEEET_RKS5_S5_, symObjAddr: 0x5D60, symBinAddr: 0x100006598, symSize: 0x18 }
  - { offset: 0x29712, size: 0x8, addend: 0x0, symName: __ZSt14__copy_move_a1ILb0EPNSt7__debug6vectorIiSaIiEEES4_ET1_T0_S6_S5_, symObjAddr: 0x5D34, symBinAddr: 0x10000656C, symSize: 0x2C }
  - { offset: 0x2977A, size: 0x8, addend: 0x0, symName: __ZSt12__niter_baseIPNSt7__debug6vectorIiSaIiEEEET_S5_, symObjAddr: 0x5D20, symBinAddr: 0x100006558, symSize: 0x14 }
  - { offset: 0x297F5, size: 0x8, addend: 0x0, symName: __ZN11__gnu_debug16_Error_formatter10_ParameterC1INSt7__debug6vectorIiSaIiEEEEERKPT_PKcNS0_12_Is_iteratorE, symObjAddr: 0x5C70, symBinAddr: 0x1000064A8, symSize: 0xB0 }
  - { offset: 0x29842, size: 0x8, addend: 0x0, symName: __ZN11__gnu_debug17__valid_range_auxIPNSt7__debug6vectorIiSaIiEEEEEbT_S6_RNS_16_Distance_traitsIS6_NSt12__is_integerIS6_E6__typeEE6__typeESt12__false_type, symObjAddr: 0x5B9C, symBinAddr: 0x1000063D4, symSize: 0xD4 }
  - { offset: 0x2989D, size: 0x8, addend: 0x0, symName: __ZNSt12_Destroy_auxILb0EE9__destroyIN9__gnu_cxx17__normal_iteratorIPNSt7__debug6vectorIiSaIiEEENSt9__cxx19986vectorIS7_SaIS7_EEEEEEEvT_SE_, symObjAddr: 0x5B48, symBinAddr: 0x100006380, symSize: 0x54 }
  - { offset: 0x298DF, size: 0x8, addend: 0x0, symName: __ZSt12__niter_wrapIN9__gnu_cxx17__normal_iteratorIPNSt7__debug6vectorIiSaIiEEENSt9__cxx19986vectorIS5_SaIS5_EEEEES6_ET_SC_T0_, symObjAddr: 0x5AEC, symBinAddr: 0x100006324, symSize: 0x5C }
  - { offset: 0x2992C, size: 0x8, addend: 0x0, symName: __ZSt14__copy_move_a1ILb0EPKNSt7__debug6vectorIiSaIiEEEPS3_ET1_T0_S8_S7_, symObjAddr: 0x5AC0, symBinAddr: 0x1000062F8, symSize: 0x2C }
  - { offset: 0x29994, size: 0x8, addend: 0x0, symName: __ZSt12__niter_baseIPNSt7__debug6vectorIiSaIiEEENSt9__cxx19986vectorIS3_SaIS3_EEEET_N9__gnu_cxx17__normal_iteratorIS9_T0_EE, symObjAddr: 0x5AA0, symBinAddr: 0x1000062D8, symSize: 0x20 }
  - { offset: 0x299D0, size: 0x8, addend: 0x0, symName: __ZSt12__niter_baseIPKNSt7__debug6vectorIiSaIiEEENSt9__cxx19986vectorIS3_SaIS3_EEEET_N9__gnu_cxx17__normal_iteratorISA_T0_EE, symObjAddr: 0x5A80, symBinAddr: 0x1000062B8, symSize: 0x20 }
  - { offset: 0x29A5D, size: 0x8, addend: 0x0, symName: __ZN11__gnu_debug16_Error_formatter10_ParameterC1IPNSt7__debug6vectorIiSaIiEEENSt9__cxx19986vectorIS6_SaIS6_EEEEERKN9__gnu_cxx17__normal_iteratorIT_T0_EEPKcNS0_12_Is_iteratorE, symObjAddr: 0x5A28, symBinAddr: 0x100006260, symSize: 0x58 }
  - { offset: 0x29AFD, size: 0x8, addend: 0x0, symName: __ZN11__gnu_debug16_Error_formatter10_ParameterC1IPKNSt7__debug6vectorIiSaIiEEENSt9__cxx19986vectorIS6_SaIS6_EEEEERKN9__gnu_cxx17__normal_iteratorIT_T0_EEPKcNS0_12_Is_iteratorE, symObjAddr: 0x59D0, symBinAddr: 0x100006208, symSize: 0x58 }
  - { offset: 0x29B53, size: 0x8, addend: 0x0, symName: __ZN11__gnu_debug17__valid_range_auxIN9__gnu_cxx17__normal_iteratorIPKNSt7__debug6vectorIiSaIiEEENSt9__cxx19986vectorIS6_SaIS6_EEEEEEEbT_SE_RNS_16_Distance_traitsISE_NSt12__is_integerISE_E6__typeEE6__typeESt12__false_type, symObjAddr: 0x58FC, symBinAddr: 0x100006134, symSize: 0xD4 }
  - { offset: 0x29BAE, size: 0x8, addend: 0x0, symName: __ZSt18uninitialized_copyIN9__gnu_cxx17__normal_iteratorIPKNSt7__debug6vectorIiSaIiEEENSt9__cxx19986vectorIS5_SaIS5_EEEEEPS5_ET0_T_SF_SE_, symObjAddr: 0x58C8, symBinAddr: 0x100006100, symSize: 0x34 }
  - { offset: 0x29C4D, size: 0x8, addend: 0x0, symName: __ZNSt20__uninitialized_copyILb1EE13__uninit_copyIPiS2_EET0_T_S4_S3_, symObjAddr: 0x589C, symBinAddr: 0x1000060D4, symSize: 0x2C }
  - { offset: 0x29CA8, size: 0x8, addend: 0x0, symName: __ZSt12__niter_wrapIPiET_RKS1_S1_, symObjAddr: 0x5884, symBinAddr: 0x1000060BC, symSize: 0x18 }
  - { offset: 0x29CE4, size: 0x8, addend: 0x0, symName: __ZSt14__copy_move_a1ILb0EPiS0_ET1_T0_S2_S1_, symObjAddr: 0x5858, symBinAddr: 0x100006090, symSize: 0x2C }
  - { offset: 0x29D4C, size: 0x8, addend: 0x0, symName: __ZSt12__niter_baseIPiET_S1_, symObjAddr: 0x5844, symBinAddr: 0x10000607C, symSize: 0x14 }
  - { offset: 0x29DC7, size: 0x8, addend: 0x0, symName: __ZN11__gnu_debug16_Error_formatter10_ParameterC1IiEERKPT_PKcNS0_12_Is_iteratorE, symObjAddr: 0x5794, symBinAddr: 0x100005FCC, symSize: 0xB0 }
  - { offset: 0x29E14, size: 0x8, addend: 0x0, symName: __ZN11__gnu_debug17__valid_range_auxIPiEEbT_S2_RNS_16_Distance_traitsIS2_NSt12__is_integerIS2_E6__typeEE6__typeESt12__false_type, symObjAddr: 0x56C0, symBinAddr: 0x100005EF8, symSize: 0xD4 }
  - { offset: 0x29E6F, size: 0x8, addend: 0x0, symName: __ZNSt12_Destroy_auxILb1EE9__destroyIN9__gnu_cxx17__normal_iteratorIPiNSt9__cxx19986vectorIiSaIiEEEEEEEvT_SA_, symObjAddr: 0x56A8, symBinAddr: 0x100005EE0, symSize: 0x18 }
  - { offset: 0x29EA3, size: 0x8, addend: 0x0, symName: __ZSt12__niter_wrapIN9__gnu_cxx17__normal_iteratorIPiNSt9__cxx19986vectorIiSaIiEEEEES2_ET_S8_T0_, symObjAddr: 0x5660, symBinAddr: 0x100005E98, symSize: 0x48 }
  - { offset: 0x29EF0, size: 0x8, addend: 0x0, symName: __ZSt14__copy_move_a1ILb0EPKiPiET1_T0_S4_S3_, symObjAddr: 0x5634, symBinAddr: 0x100005E6C, symSize: 0x2C }
  - { offset: 0x29F58, size: 0x8, addend: 0x0, symName: __ZSt12__niter_baseIPiNSt9__cxx19986vectorIiSaIiEEEET_N9__gnu_cxx17__normal_iteratorIS5_T0_EE, symObjAddr: 0x5614, symBinAddr: 0x100005E4C, symSize: 0x20 }
  - { offset: 0x29F94, size: 0x8, addend: 0x0, symName: __ZSt12__niter_baseIPKiNSt9__cxx19986vectorIiSaIiEEEET_N9__gnu_cxx17__normal_iteratorIS6_T0_EE, symObjAddr: 0x55F4, symBinAddr: 0x100005E2C, symSize: 0x20 }
  - { offset: 0x2A021, size: 0x8, addend: 0x0, symName: __ZN11__gnu_debug16_Error_formatter10_ParameterC1IPiNSt9__cxx19986vectorIiSaIiEEEEERKN9__gnu_cxx17__normal_iteratorIT_T0_EEPKcNS0_12_Is_iteratorE, symObjAddr: 0x559C, symBinAddr: 0x100005DD4, symSize: 0x58 }
  - { offset: 0x2A0C1, size: 0x8, addend: 0x0, symName: __ZN11__gnu_debug16_Error_formatter10_ParameterC1IPKiNSt9__cxx19986vectorIiSaIiEEEEERKN9__gnu_cxx17__normal_iteratorIT_T0_EEPKcNS0_12_Is_iteratorE, symObjAddr: 0x5544, symBinAddr: 0x100005D7C, symSize: 0x58 }
  - { offset: 0x2A117, size: 0x8, addend: 0x0, symName: __ZN11__gnu_debug17__valid_range_auxIN9__gnu_cxx17__normal_iteratorIPKiNSt9__cxx19986vectorIiSaIiEEEEEEEbT_SA_RNS_16_Distance_traitsISA_NSt12__is_integerISA_E6__typeEE6__typeESt12__false_type, symObjAddr: 0x5470, symBinAddr: 0x100005CA8, symSize: 0xD4 }
  - { offset: 0x2A172, size: 0x8, addend: 0x0, symName: __ZSt18uninitialized_copyIN9__gnu_cxx17__normal_iteratorIPKiNSt9__cxx19986vectorIiSaIiEEEEEPiET0_T_SB_SA_, symObjAddr: 0x5434, symBinAddr: 0x100005C6C, symSize: 0x3C }
  - { offset: 0x2A211, size: 0x8, addend: 0x0, symName: __ZSt27__uninitialized_default_n_aIPNSt7__debug6vectorIiSaIiEEEmS3_ET_S5_T0_RSaIT1_E, symObjAddr: 0x540C, symBinAddr: 0x100005C44, symSize: 0x28 }
  - { offset: 0x2A274, size: 0x8, addend: 0x0, symName: __ZNSt9__cxx199812_Vector_baseINSt7__debug6vectorIiSaIiEEESaIS4_EE17_M_create_storageEm, symObjAddr: 0x53A0, symBinAddr: 0x100005BD8, symSize: 0x6C }
  - { offset: 0x2A2D6, size: 0x8, addend: 0x0, symName: __ZNSt9__cxx199812_Vector_baseINSt7__debug6vectorIiSaIiEEESaIS4_EE12_Vector_implC1ERKS5_, symObjAddr: 0x5354, symBinAddr: 0x100005B8C, symSize: 0x4C }
  - { offset: 0x2A37C, size: 0x8, addend: 0x0, symName: __ZNSt9__cxx19986vectorINSt7__debug6vectorIiSaIiEEESaIS4_EE11_S_max_sizeERKS5_, symObjAddr: 0x52F0, symBinAddr: 0x100005B28, symSize: 0x64 }
  - { offset: 0x2A433, size: 0x8, addend: 0x0, symName: __ZSt27__uninitialized_default_n_aIPimiET_S1_T0_RSaIT1_E, symObjAddr: 0x52C8, symBinAddr: 0x100005B00, symSize: 0x28 }
  - { offset: 0x2A496, size: 0x8, addend: 0x0, symName: __ZNSt9__cxx199812_Vector_baseIiSaIiEE17_M_create_storageEm, symObjAddr: 0x5268, symBinAddr: 0x100005AA0, symSize: 0x60 }
  - { offset: 0x2A4F8, size: 0x8, addend: 0x0, symName: __ZNSt9__cxx199812_Vector_baseIiSaIiEE12_Vector_implC1ERKS1_, symObjAddr: 0x521C, symBinAddr: 0x100005A54, symSize: 0x4C }
  - { offset: 0x2A59E, size: 0x8, addend: 0x0, symName: __ZNSt9__cxx19986vectorIiSaIiEE11_S_max_sizeERKS1_, symObjAddr: 0x51C8, symBinAddr: 0x100005A00, symSize: 0x54 }
  - { offset: 0x2A664, size: 0x8, addend: 0x0, symName: __ZNKSt8__detail10_Select1stclIRKSt4pairIKiiEEEONS0_10__1st_typeIT_E4typeEOS8_, symObjAddr: 0x51A8, symBinAddr: 0x1000059E0, symSize: 0x20 }
  - { offset: 0x2A6BD, size: 0x8, addend: 0x0, symName: __ZNKSt10_HashtableIiSt4pairIKiiESaIS2_ENSt8__detail10_Select1stESt8equal_toIiESt4hashIiENS4_18_Mod_range_hashingENS4_20_Default_ranged_hashENS4_20_Prime_rehash_policyENS4_17_Hashtable_traitsILb0ELb0ELb1EEEE3endEv, symObjAddr: 0x5184, symBinAddr: 0x1000059BC, symSize: 0x24 }
  - { offset: 0x2A70F, size: 0x8, addend: 0x0, symName: __ZNSt8__detail20_Node_const_iteratorISt4pairIKiiELb0ELb0EEC1EPNS_10_Hash_nodeIS3_Lb0EEE, symObjAddr: 0x515C, symBinAddr: 0x100005994, symSize: 0x28 }
  - { offset: 0x2A73E, size: 0x8, addend: 0x0, symName: __ZNKSt8__detail15_Hashtable_baseIiSt4pairIKiiENS_10_Select1stESt8equal_toIiESt4hashIiENS_18_Mod_range_hashingENS_20_Default_ranged_hashENS_17_Hashtable_traitsILb0ELb0ELb1EEEE13_M_key_equalsERS2_RKNS_16_Hash_node_valueIS3_Lb0EEE, symObjAddr: 0x50F0, symBinAddr: 0x100005928, symSize: 0x6C }
  - { offset: 0x2A7CE, size: 0x8, addend: 0x0, symName: __ZNSt10_HashtableIiSt4pairIKiiESaIS2_ENSt8__detail10_Select1stESt8equal_toIiESt4hashIiENS4_18_Mod_range_hashingENS4_20_Default_ranged_hashENS4_20_Prime_rehash_policyENS4_17_Hashtable_traitsILb0ELb0ELb1EEEE22__small_size_thresholdEv, symObjAddr: 0x50DC, symBinAddr: 0x100005914, symSize: 0x14 }
  - { offset: 0x2A7EA, size: 0x8, addend: 0x0, symName: __ZNKSt10_HashtableIiSt4pairIKiiESaIS2_ENSt8__detail10_Select1stESt8equal_toIiESt4hashIiENS4_18_Mod_range_hashingENS4_20_Default_ranged_hashENS4_20_Prime_rehash_policyENS4_17_Hashtable_traitsILb0ELb0ELb1EEEE4sizeEv, symObjAddr: 0x50C4, symBinAddr: 0x1000058FC, symSize: 0x18 }
  - { offset: 0x2A83C, size: 0x8, addend: 0x0, symName: __ZNSt8__detail14_Node_iteratorISt4pairIKiiELb0ELb0EEC1EPNS_10_Hash_nodeIS3_Lb0EEE, symObjAddr: 0x509C, symBinAddr: 0x1000058D4, symSize: 0x28 }
  - { offset: 0x2A86B, size: 0x8, addend: 0x0, symName: __ZNSt10_HashtableIiSt4pairIKiiESaIS2_ENSt8__detail10_Select1stESt8equal_toIiESt4hashIiENS4_18_Mod_range_hashingENS4_20_Default_ranged_hashENS4_20_Prime_rehash_policyENS4_17_Hashtable_traitsILb0ELb0ELb1EEEE22_M_insert_bucket_beginEmPNS4_10_Hash_nodeIS2_Lb0EEE, symObjAddr: 0x4F90, symBinAddr: 0x1000057C8, symSize: 0x10C }
  - { offset: 0x2A8B7, size: 0x8, addend: 0x0, symName: __ZNKSt8__detail15_Hash_code_baseIiSt4pairIKiiENS_10_Select1stESt4hashIiENS_18_Mod_range_hashingENS_20_Default_ranged_hashELb0EE13_M_store_codeERNS_21_Hash_node_code_cacheILb0EEEm, symObjAddr: 0x4F74, symBinAddr: 0x1000057AC, symSize: 0x1C }
  - { offset: 0x2A8F3, size: 0x8, addend: 0x0, symName: __ZNSt8__detail16_Hashtable_allocISaINS_10_Hash_nodeISt4pairIKiiELb0EEEEE16_M_allocate_nodeIJRKSt21piecewise_construct_tSt5tupleIJRS3_EESC_IJEEEEEPS5_DpOT_, symObjAddr: 0x4D88, symBinAddr: 0x1000055C0, symSize: 0x1EC }
  - { offset: 0x2AAC3, size: 0x8, addend: 0x0, symName: __ZNSt8__detail10_Hash_nodeISt4pairIKiiELb0EEC1Ev, symObjAddr: 0x4D68, symBinAddr: 0x1000055A0, symSize: 0x20 }
  - { offset: 0x2AAEC, size: 0x8, addend: 0x0, symName: __ZSt7forwardISt5tupleIJEEEOT_RNSt16remove_referenceIS2_E4typeE, symObjAddr: 0x4D54, symBinAddr: 0x10000558C, symSize: 0x14 }
  - { offset: 0x2AB25, size: 0x8, addend: 0x0, symName: __ZSt7forwardISt5tupleIJRKiEEEOT_RNSt16remove_referenceIS4_E4typeE, symObjAddr: 0x4D40, symBinAddr: 0x100005578, symSize: 0x14 }
  - { offset: 0x2AB5E, size: 0x8, addend: 0x0, symName: __ZSt7forwardIRKSt21piecewise_construct_tEOT_RNSt16remove_referenceIS3_E4typeE, symObjAddr: 0x4D2C, symBinAddr: 0x100005564, symSize: 0x14 }
  - { offset: 0x2ABBC, size: 0x8, addend: 0x0, symName: __ZNSt11_Tuple_implILm0EJRKiEEC2ES1_, symObjAddr: 0x4D04, symBinAddr: 0x10000553C, symSize: 0x28 }
  - { offset: 0x2AC01, size: 0x8, addend: 0x0, symName: __ZNKSt10_HashtableIiSt4pairIKiiESaIS2_ENSt8__detail10_Select1stESt8equal_toIiESt4hashIiENS4_18_Mod_range_hashingENS4_20_Default_ranged_hashENS4_20_Prime_rehash_policyENS4_17_Hashtable_traitsILb0ELb0ELb1EEEE19_M_find_before_nodeEmRS1_m, symObjAddr: 0x4C08, symBinAddr: 0x100005440, symSize: 0xFC }
  - { offset: 0x2AC93, size: 0x8, addend: 0x0, symName: __ZNKSt8__detail15_Hash_code_baseIiSt4pairIKiiENS_10_Select1stESt4hashIiENS_18_Mod_range_hashingENS_20_Default_ranged_hashELb0EE15_M_bucket_indexEmm, symObjAddr: 0x4BDC, symBinAddr: 0x100005414, symSize: 0x2C }
  - { offset: 0x2ACDF, size: 0x8, addend: 0x0, symName: __ZNKSt8__detail15_Hash_code_baseIiSt4pairIKiiENS_10_Select1stESt4hashIiENS_18_Mod_range_hashingENS_20_Default_ranged_hashELb0EE7_M_hashEv, symObjAddr: 0x4BC0, symBinAddr: 0x1000053F8, symSize: 0x1C }
  - { offset: 0x2AD05, size: 0x8, addend: 0x0, symName: __ZSt11__addressofIKNSt7__debug6vectorIiSaIiEEEEPT_RS5_, symObjAddr: 0x4BAC, symBinAddr: 0x1000053E4, symSize: 0x14 }
  - { offset: 0x2AD3B, size: 0x8, addend: 0x0, symName: __ZNSt10_HashtableIiSt4pairIKiiESaIS2_ENSt8__detail10_Select1stESt8equal_toIiESt4hashIiENS4_18_Mod_range_hashingENS4_20_Default_ranged_hashENS4_20_Prime_rehash_policyENS4_17_Hashtable_traitsILb0ELb0ELb1EEEE9_M_rehashEmSt17integral_constantIbLb1EE, symObjAddr: 0x4A40, symBinAddr: 0x100005278, symSize: 0x16C }
  - { offset: 0x2AE0C, size: 0x8, addend: 0x0, symName: __ZNSt8__detail17_RehashStateGuardINS_20_Prime_rehash_policyEED1Ev, symObjAddr: 0x49FC, symBinAddr: 0x100005234, symSize: 0x44 }
  - { offset: 0x2AE5A, size: 0x8, addend: 0x0, symName: __ZNSt8__detail17_RehashStateGuardINS_20_Prime_rehash_policyEEC1ERS1_, symObjAddr: 0x49B8, symBinAddr: 0x1000051F0, symSize: 0x44 }
  - { offset: 0x2AE85, size: 0x8, addend: 0x0, symName: __ZSt11__addressofIKNSt7__debug6vectorINS1_IiSaIiEEESaIS3_EEEEPT_RS7_, symObjAddr: 0x49A4, symBinAddr: 0x1000051DC, symSize: 0x14 }
  - { offset: 0x2AEBB, size: 0x8, addend: 0x0, symName: __ZNSt8__detail16_Hashtable_allocISaINS_10_Hash_nodeISt4pairIKiiELb0EEEEE21_M_deallocate_bucketsEPPNS_15_Hash_node_baseEm, symObjAddr: 0x492C, symBinAddr: 0x100005164, symSize: 0x78 }
  - { offset: 0x2AFCB, size: 0x8, addend: 0x0, symName: __ZNKSt10_HashtableIiSt4pairIKiiESaIS2_ENSt8__detail10_Select1stESt8equal_toIiESt4hashIiENS4_18_Mod_range_hashingENS4_20_Default_ranged_hashENS4_20_Prime_rehash_policyENS4_17_Hashtable_traitsILb0ELb0ELb1EEEE21_M_uses_single_bucketEPPNS4_15_Hash_node_baseE, symObjAddr: 0x48F0, symBinAddr: 0x100005128, symSize: 0x3C }
  - { offset: 0x2B006, size: 0x8, addend: 0x0, symName: __ZNSt8__detail16_Hashtable_allocISaINS_10_Hash_nodeISt4pairIKiiELb0EEEEE18_M_deallocate_nodeEPS5_, symObjAddr: 0x487C, symBinAddr: 0x1000050B4, symSize: 0x74 }
  - { offset: 0x2B0BF, size: 0x8, addend: 0x0, symName: __ZNKSt8__detail10_Hash_nodeISt4pairIKiiELb0EE7_M_nextEv, symObjAddr: 0x4864, symBinAddr: 0x10000509C, symSize: 0x18 }
  - { offset: 0x2B0E5, size: 0x8, addend: 0x0, symName: __ZNSt12_Destroy_auxILb0EE9__destroyIPNSt7__debug6vectorIiSaIiEEEEEvT_S7_, symObjAddr: 0x4818, symBinAddr: 0x100005050, symSize: 0x4C }
  - { offset: 0x2B12B, size: 0x8, addend: 0x0, symName: __ZNSt15__new_allocatorINSt7__debug6vectorIiSaIiEEEE10deallocateEPS3_m, symObjAddr: 0x47DC, symBinAddr: 0x100005014, symSize: 0x3C }
  - { offset: 0x2B171, size: 0x8, addend: 0x0, symName: __ZNSt12_Destroy_auxILb1EE9__destroyIPiEEvT_S3_, symObjAddr: 0x47C4, symBinAddr: 0x100004FFC, symSize: 0x18 }
  - { offset: 0x2B1A9, size: 0x8, addend: 0x0, symName: __ZNSt15__new_allocatorIiE10deallocateEPim, symObjAddr: 0x4794, symBinAddr: 0x100004FCC, symSize: 0x30 }
  - { offset: 0x2B1F3, size: 0x8, addend: 0x0, symName: __ZNKSt7__debug6vectorIiSaIiEE8capacityEv, symObjAddr: 0x4750, symBinAddr: 0x100004F88, symSize: 0x44 }
  - { offset: 0x2B237, size: 0x8, addend: 0x0, symName: __ZNSt9__cxx19986vectorIiSaIiEE17_M_realloc_appendIJRKiEEEvDpOT_, symObjAddr: 0x4594, symBinAddr: 0x100004DCC, symSize: 0x1BC }
  - { offset: 0x2B3BC, size: 0x8, addend: 0x0, symName: __ZZNSt9__cxx19986vectorIiSaIiEE17_M_realloc_appendIJRKiEEEvDpOT_EN6_GuardC1EPimRS1_, symObjAddr: 0x44F0, symBinAddr: 0x100004D28, symSize: 0x44 }
  - { offset: 0x2B401, size: 0x8, addend: 0x0, symName: __ZZNSt9__cxx19986vectorIiSaIiEE17_M_realloc_appendIJRKiEEEvDpOT_EN6_GuardD1Ev, symObjAddr: 0x4534, symBinAddr: 0x100004D6C, symSize: 0x60 }
  - { offset: 0x2B534, size: 0x8, addend: 0x0, symName: __ZSt18uninitialized_copyIPNSt7__debug6vectorIiSaIiEEES4_ET0_T_S6_S5_, symObjAddr: 0x44BC, symBinAddr: 0x100004CF4, symSize: 0x34 }
  - { offset: 0x2B5AF, size: 0x8, addend: 0x0, symName: __ZSt13__copy_move_aILb0EPNSt7__debug6vectorIiSaIiEEES4_ET1_T0_S6_S5_, symObjAddr: 0x445C, symBinAddr: 0x100004C94, symSize: 0x60 }
  - { offset: 0x2B617, size: 0x8, addend: 0x0, symName: __ZSt12__miter_baseIPNSt7__debug6vectorIiSaIiEEEET_S5_, symObjAddr: 0x4448, symBinAddr: 0x100004C80, symSize: 0x14 }
  - { offset: 0x2B64A, size: 0x8, addend: 0x0, symName: __ZN11__gnu_debug13__can_advanceIPNSt7__debug6vectorIiSaIiEEElEEbT_RKSt4pairIT0_NS_19_Distance_precisionEEi, symObjAddr: 0x442C, symBinAddr: 0x100004C64, symSize: 0x1C }
  - { offset: 0x2B694, size: 0x8, addend: 0x0, symName: __ZN11__gnu_debug16_Error_formatter11_M_iteratorIPNSt7__debug6vectorIiSaIiEEEEERS0_RKT_PKc, symObjAddr: 0x4390, symBinAddr: 0x100004BC8, symSize: 0x9C }
  - { offset: 0x2B6E8, size: 0x8, addend: 0x0, symName: __ZN11__gnu_debug13__valid_rangeIPNSt7__debug6vectorIiSaIiEEEEEbT_S6_RNS_16_Distance_traitsIS6_NSt12__is_integerIS6_E6__typeEE6__typeE, symObjAddr: 0x4364, symBinAddr: 0x100004B9C, symSize: 0x2C }
  - { offset: 0x2B73A, size: 0x8, addend: 0x0, symName: __ZSt8_DestroyIN9__gnu_cxx17__normal_iteratorIPNSt7__debug6vectorIiSaIiEEENSt9__cxx19986vectorIS5_SaIS5_EEEEEEvT_SC_, symObjAddr: 0x433C, symBinAddr: 0x100004B74, symSize: 0x28 }
  - { offset: 0x2B77C, size: 0x8, addend: 0x0, symName: __ZSt13__copy_move_aILb0EN9__gnu_cxx17__normal_iteratorIPKNSt7__debug6vectorIiSaIiEEENSt9__cxx19986vectorIS5_SaIS5_EEEEENS1_IPS5_SB_EEET1_T0_SG_SF_, symObjAddr: 0x42DC, symBinAddr: 0x100004B14, symSize: 0x60 }
  - { offset: 0x2B7E4, size: 0x8, addend: 0x0, symName: __ZSt12__miter_baseIN9__gnu_cxx17__normal_iteratorIPKNSt7__debug6vectorIiSaIiEEENSt9__cxx19986vectorIS5_SaIS5_EEEEEET_SD_, symObjAddr: 0x42C8, symBinAddr: 0x100004B00, symSize: 0x14 }
  - { offset: 0x2B81B, size: 0x8, addend: 0x0, symName: __ZN11__gnu_debug16_Error_formatter11_M_iteratorIN9__gnu_cxx17__normal_iteratorIPNSt7__debug6vectorIiSaIiEEENSt9__cxx19986vectorIS7_SaIS7_EEEEEEERS0_RKT_PKc, symObjAddr: 0x422C, symBinAddr: 0x100004A64, symSize: 0x9C }
  - { offset: 0x2B86F, size: 0x8, addend: 0x0, symName: __ZN11__gnu_debug13__can_advanceIN9__gnu_cxx17__normal_iteratorIPNSt7__debug6vectorIiSaIiEEENSt9__cxx19986vectorIS6_SaIS6_EEEEElEEbT_RKSt4pairIT0_NS_19_Distance_precisionEEi, symObjAddr: 0x4210, symBinAddr: 0x100004A48, symSize: 0x1C }
  - { offset: 0x2B8B9, size: 0x8, addend: 0x0, symName: __ZN11__gnu_debug16_Error_formatter11_M_iteratorIN9__gnu_cxx17__normal_iteratorIPKNSt7__debug6vectorIiSaIiEEENSt9__cxx19986vectorIS7_SaIS7_EEEEEEERS0_RKT_PKc, symObjAddr: 0x4174, symBinAddr: 0x1000049AC, symSize: 0x9C }
  - { offset: 0x2B90D, size: 0x8, addend: 0x0, symName: __ZN11__gnu_debug13__valid_rangeIN9__gnu_cxx17__normal_iteratorIPKNSt7__debug6vectorIiSaIiEEENSt9__cxx19986vectorIS6_SaIS6_EEEEEEEbT_SE_RNS_16_Distance_traitsISE_NSt12__is_integerISE_E6__typeEE6__typeE, symObjAddr: 0x4148, symBinAddr: 0x100004980, symSize: 0x2C }
  - { offset: 0x2B98B, size: 0x8, addend: 0x0, symName: __ZN9__gnu_cxx17__normal_iteratorIPNSt7__debug6vectorIiSaIiEEENSt9__cxx19986vectorIS4_SaIS4_EEEEC1ERKS5_, symObjAddr: 0x4120, symBinAddr: 0x100004958, symSize: 0x28 }
  - { offset: 0x2B9B6, size: 0x8, addend: 0x0, symName: __ZSt22__uninitialized_copy_aIN9__gnu_cxx17__normal_iteratorIPKNSt7__debug6vectorIiSaIiEEENSt9__cxx19986vectorIS5_SaIS5_EEEEEPS5_S5_ET0_T_SF_SE_RSaIT1_E, symObjAddr: 0x40F0, symBinAddr: 0x100004928, symSize: 0x30 }
  - { offset: 0x2BA2A, size: 0x8, addend: 0x0, symName: __ZNSt9__cxx199812_Vector_baseINSt7__debug6vectorIiSaIiEEESaIS4_EE11_M_allocateEm, symObjAddr: 0x40A0, symBinAddr: 0x1000048D8, symSize: 0x50 }
  - { offset: 0x2BABA, size: 0x8, addend: 0x0, symName: __ZN9__gnu_cxx17__normal_iteratorIPKNSt7__debug6vectorIiSaIiEEENSt9__cxx19986vectorIS4_SaIS4_EEEEC1ERKS6_, symObjAddr: 0x4078, symBinAddr: 0x1000048B0, symSize: 0x28 }
  - { offset: 0x2BAE9, size: 0x8, addend: 0x0, symName: __ZNSt9__cxx19986vectorINSt7__debug6vectorIiSaIiEEESaIS4_EE15_M_erase_at_endEPS4_, symObjAddr: 0x3FDC, symBinAddr: 0x100004814, symSize: 0x9C }
  - { offset: 0x2BB7A, size: 0x8, addend: 0x0, symName: __ZSt18uninitialized_copyIPiS0_ET0_T_S2_S1_, symObjAddr: 0x3FA0, symBinAddr: 0x1000047D8, symSize: 0x3C }
  - { offset: 0x2BBF5, size: 0x8, addend: 0x0, symName: __ZSt13__copy_move_aILb0EPiS0_ET1_T0_S2_S1_, symObjAddr: 0x3F40, symBinAddr: 0x100004778, symSize: 0x60 }
  - { offset: 0x2BC5D, size: 0x8, addend: 0x0, symName: __ZSt12__miter_baseIPiET_S1_, symObjAddr: 0x3F2C, symBinAddr: 0x100004764, symSize: 0x14 }
  - { offset: 0x2BC90, size: 0x8, addend: 0x0, symName: __ZN11__gnu_debug13__can_advanceIPilEEbT_RKSt4pairIT0_NS_19_Distance_precisionEEi, symObjAddr: 0x3F10, symBinAddr: 0x100004748, symSize: 0x1C }
  - { offset: 0x2BCDA, size: 0x8, addend: 0x0, symName: __ZN11__gnu_debug16_Error_formatter11_M_iteratorIPiEERS0_RKT_PKc, symObjAddr: 0x3E74, symBinAddr: 0x1000046AC, symSize: 0x9C }
  - { offset: 0x2BD2E, size: 0x8, addend: 0x0, symName: __ZN11__gnu_debug13__valid_rangeIPiEEbT_S2_RNS_16_Distance_traitsIS2_NSt12__is_integerIS2_E6__typeEE6__typeE, symObjAddr: 0x3E48, symBinAddr: 0x100004680, symSize: 0x2C }
  - { offset: 0x2BD80, size: 0x8, addend: 0x0, symName: __ZSt8_DestroyIN9__gnu_cxx17__normal_iteratorIPiNSt9__cxx19986vectorIiSaIiEEEEEEvT_S8_, symObjAddr: 0x3E20, symBinAddr: 0x100004658, symSize: 0x28 }
  - { offset: 0x2BDC2, size: 0x8, addend: 0x0, symName: __ZSt13__copy_move_aILb0EN9__gnu_cxx17__normal_iteratorIPKiNSt9__cxx19986vectorIiSaIiEEEEENS1_IPiS7_EEET1_T0_SC_SB_, symObjAddr: 0x3DC0, symBinAddr: 0x1000045F8, symSize: 0x60 }
  - { offset: 0x2BE2A, size: 0x8, addend: 0x0, symName: __ZSt12__miter_baseIN9__gnu_cxx17__normal_iteratorIPKiNSt9__cxx19986vectorIiSaIiEEEEEET_S9_, symObjAddr: 0x3DAC, symBinAddr: 0x1000045E4, symSize: 0x14 }
  - { offset: 0x2BE61, size: 0x8, addend: 0x0, symName: __ZN11__gnu_debug16_Error_formatter11_M_iteratorIN9__gnu_cxx17__normal_iteratorIPiNSt9__cxx19986vectorIiSaIiEEEEEEERS0_RKT_PKc, symObjAddr: 0x3D10, symBinAddr: 0x100004548, symSize: 0x9C }
  - { offset: 0x2BEB5, size: 0x8, addend: 0x0, symName: __ZN11__gnu_debug13__can_advanceIN9__gnu_cxx17__normal_iteratorIPiNSt9__cxx19986vectorIiSaIiEEEEElEEbT_RKSt4pairIT0_NS_19_Distance_precisionEEi, symObjAddr: 0x3CF4, symBinAddr: 0x10000452C, symSize: 0x1C }
  - { offset: 0x2BEFF, size: 0x8, addend: 0x0, symName: __ZN11__gnu_debug16_Error_formatter11_M_iteratorIN9__gnu_cxx17__normal_iteratorIPKiNSt9__cxx19986vectorIiSaIiEEEEEEERS0_RKT_PKc, symObjAddr: 0x3C58, symBinAddr: 0x100004490, symSize: 0x9C }
  - { offset: 0x2BF53, size: 0x8, addend: 0x0, symName: __ZN11__gnu_debug13__valid_rangeIN9__gnu_cxx17__normal_iteratorIPKiNSt9__cxx19986vectorIiSaIiEEEEEEEbT_SA_RNS_16_Distance_traitsISA_NSt12__is_integerISA_E6__typeEE6__typeE, symObjAddr: 0x3C2C, symBinAddr: 0x100004464, symSize: 0x2C }
  - { offset: 0x2BFD1, size: 0x8, addend: 0x0, symName: __ZN9__gnu_cxx17__normal_iteratorIPiNSt9__cxx19986vectorIiSaIiEEEEC1ERKS1_, symObjAddr: 0x3C04, symBinAddr: 0x10000443C, symSize: 0x28 }
  - { offset: 0x2BFFC, size: 0x8, addend: 0x0, symName: __ZSt22__uninitialized_copy_aIN9__gnu_cxx17__normal_iteratorIPKiNSt9__cxx19986vectorIiSaIiEEEEEPiiET0_T_SB_SA_RSaIT1_E, symObjAddr: 0x3BD4, symBinAddr: 0x10000440C, symSize: 0x30 }
  - { offset: 0x2C070, size: 0x8, addend: 0x0, symName: __ZNSt9__cxx199812_Vector_baseIiSaIiEE11_M_allocateEm, symObjAddr: 0x3B84, symBinAddr: 0x1000043BC, symSize: 0x50 }
  - { offset: 0x2C100, size: 0x8, addend: 0x0, symName: __ZN9__gnu_cxx17__normal_iteratorIPKiNSt9__cxx19986vectorIiSaIiEEEEC1ERKS2_, symObjAddr: 0x3B5C, symBinAddr: 0x100004394, symSize: 0x28 }
  - { offset: 0x2C12F, size: 0x8, addend: 0x0, symName: __ZNSt9__cxx19986vectorIiSaIiEE15_M_erase_at_endEPi, symObjAddr: 0x3AD4, symBinAddr: 0x10000430C, symSize: 0x88 }
  - { offset: 0x2C1C4, size: 0x8, addend: 0x0, symName: __ZNSt9__cxx19986vectorINSt7__debug6vectorIiSaIiEEESaIS4_EE21_M_default_initializeEm, symObjAddr: 0x3A84, symBinAddr: 0x1000042BC, symSize: 0x50 }
  - { offset: 0x2C235, size: 0x8, addend: 0x0, symName: __ZNSt9__cxx199812_Vector_baseINSt7__debug6vectorIiSaIiEEESaIS4_EEC2EmRKS5_, symObjAddr: 0x3A30, symBinAddr: 0x100004268, symSize: 0x54 }
  - { offset: 0x2C269, size: 0x8, addend: 0x0, symName: __ZNSt9__cxx19986vectorINSt7__debug6vectorIiSaIiEEESaIS4_EE17_S_check_init_lenEmRKS5_, symObjAddr: 0x39AC, symBinAddr: 0x1000041E4, symSize: 0x84 }
  - { offset: 0x2C31F, size: 0x8, addend: 0x0, symName: __ZNSt9__cxx19986vectorIiSaIiEE21_M_default_initializeEm, symObjAddr: 0x395C, symBinAddr: 0x100004194, symSize: 0x50 }
  - { offset: 0x2C390, size: 0x8, addend: 0x0, symName: __ZNSt9__cxx199812_Vector_baseIiSaIiEEC2EmRKS1_, symObjAddr: 0x3908, symBinAddr: 0x100004140, symSize: 0x54 }
  - { offset: 0x2C3C4, size: 0x8, addend: 0x0, symName: __ZNSt9__cxx19986vectorIiSaIiEE17_S_check_init_lenEmRKS1_, symObjAddr: 0x3884, symBinAddr: 0x1000040BC, symSize: 0x84 }
  - { offset: 0x2C47A, size: 0x8, addend: 0x0, symName: __ZNKSt10_HashtableIiSt4pairIKiiESaIS2_ENSt8__detail10_Select1stESt8equal_toIiESt4hashIiENS4_18_Mod_range_hashingENS4_20_Default_ranged_hashENS4_20_Prime_rehash_policyENS4_17_Hashtable_traitsILb0ELb0ELb1EEEE4findERS1_, symObjAddr: 0x378C, symBinAddr: 0x100003FC4, symSize: 0xF8 }
  - { offset: 0x2C4FB, size: 0x8, addend: 0x0, symName: __ZNKSt8__detail14_Node_iteratorISt4pairIKiiELb0ELb0EEptEv, symObjAddr: 0x375C, symBinAddr: 0x100003F94, symSize: 0x30 }
  - { offset: 0x2C549, size: 0x8, addend: 0x0, symName: __ZNSt10_HashtableIiSt4pairIKiiESaIS2_ENSt8__detail10_Select1stESt8equal_toIiESt4hashIiENS4_18_Mod_range_hashingENS4_20_Default_ranged_hashENS4_20_Prime_rehash_policyENS4_17_Hashtable_traitsILb0ELb0ELb1EEEE21_M_insert_unique_nodeEmmPNS4_10_Hash_nodeIS2_Lb0EEEm, symObjAddr: 0x364C, symBinAddr: 0x100003E84, symSize: 0x110 }
  - { offset: 0x2C600, size: 0x8, addend: 0x0, symName: __ZNSt10_HashtableIiSt4pairIKiiESaIS2_ENSt8__detail10_Select1stESt8equal_toIiESt4hashIiENS4_18_Mod_range_hashingENS4_20_Default_ranged_hashENS4_20_Prime_rehash_policyENS4_17_Hashtable_traitsILb0ELb0ELb1EEEE12_Scoped_nodeD1Ev, symObjAddr: 0x3608, symBinAddr: 0x100003E40, symSize: 0x44 }
  - { offset: 0x2C679, size: 0x8, addend: 0x0, symName: __ZNSt10_HashtableIiSt4pairIKiiESaIS2_ENSt8__detail10_Select1stESt8equal_toIiESt4hashIiENS4_18_Mod_range_hashingENS4_20_Default_ranged_hashENS4_20_Prime_rehash_policyENS4_17_Hashtable_traitsILb0ELb0ELb1EEEE12_Scoped_nodeC1IJRKSt21piecewise_construct_tSt5tupleIJRS1_EESL_IJEEEEEPNS4_16_Hashtable_allocISaINS4_10_Hash_nodeIS2_Lb0EEEEEEDpOT_, symObjAddr: 0x3580, symBinAddr: 0x100003DB8, symSize: 0x88 }
  - { offset: 0x2C711, size: 0x8, addend: 0x0, symName: __ZNSt5tupleIJRKiEEC1ILb1ELb1EEES1_, symObjAddr: 0x3558, symBinAddr: 0x100003D90, symSize: 0x28 }
  - { offset: 0x2C760, size: 0x8, addend: 0x0, symName: __ZNKSt10_HashtableIiSt4pairIKiiESaIS2_ENSt8__detail10_Select1stESt8equal_toIiESt4hashIiENS4_18_Mod_range_hashingENS4_20_Default_ranged_hashENS4_20_Prime_rehash_policyENS4_17_Hashtable_traitsILb0ELb0ELb1EEEE12_M_find_nodeEmRS1_m, symObjAddr: 0x3504, symBinAddr: 0x100003D3C, symSize: 0x54 }
  - { offset: 0x2C7CE, size: 0x8, addend: 0x0, symName: __ZNKSt10_HashtableIiSt4pairIKiiESaIS2_ENSt8__detail10_Select1stESt8equal_toIiESt4hashIiENS4_18_Mod_range_hashingENS4_20_Default_ranged_hashENS4_20_Prime_rehash_policyENS4_17_Hashtable_traitsILb0ELb0ELb1EEEE15_M_bucket_indexEm, symObjAddr: 0x34D4, symBinAddr: 0x100003D0C, symSize: 0x30 }
  - { offset: 0x2C809, size: 0x8, addend: 0x0, symName: __ZNKSt8__detail15_Hash_code_baseIiSt4pairIKiiENS_10_Select1stESt4hashIiENS_18_Mod_range_hashingENS_20_Default_ranged_hashELb0EE12_M_hash_codeERS2_, symObjAddr: 0x349C, symBinAddr: 0x100003CD4, symSize: 0x38 }
  - { offset: 0x2C888, size: 0x8, addend: 0x0, symName: __ZN11__gnu_debug16_Error_formatter10_ParameterC1INSt7__debug6vectorIiSaIiEEEEERKT_PKcNS0_12_Is_sequenceE, symObjAddr: 0x3428, symBinAddr: 0x100003C60, symSize: 0x74 }
  - { offset: 0x2C8D2, size: 0x8, addend: 0x0, symName: __ZNSt10_HashtableIiSt4pairIKiiESaIS2_ENSt8__detail10_Select1stESt8equal_toIiESt4hashIiENS4_18_Mod_range_hashingENS4_20_Default_ranged_hashENS4_20_Prime_rehash_policyENS4_17_Hashtable_traitsILb0ELb0ELb1EEEE6rehashEm, symObjAddr: 0x3360, symBinAddr: 0x100003B98, symSize: 0xC8 }
  - { offset: 0x2C91E, size: 0x8, addend: 0x0, symName: __ZNKSt10_HashtableIiSt4pairIKiiESaIS2_ENSt8__detail10_Select1stESt8equal_toIiESt4hashIiENS4_18_Mod_range_hashingENS4_20_Default_ranged_hashENS4_20_Prime_rehash_policyENS4_17_Hashtable_traitsILb0ELb0ELb1EEEE15__rehash_policyEv, symObjAddr: 0x3348, symBinAddr: 0x100003B80, symSize: 0x18 }
  - { offset: 0x2C98C, size: 0x8, addend: 0x0, symName: __ZN11__gnu_debug16_Error_formatter10_ParameterC1INSt7__debug6vectorINS4_IiSaIiEEESaIS6_EEEEERKT_PKcNS0_12_Is_sequenceE, symObjAddr: 0x32D4, symBinAddr: 0x100003B0C, symSize: 0x74 }
  - { offset: 0x2C9D6, size: 0x8, addend: 0x0, symName: __ZNSt10_HashtableIiSt4pairIKiiESaIS2_ENSt8__detail10_Select1stESt8equal_toIiESt4hashIiENS4_18_Mod_range_hashingENS4_20_Default_ranged_hashENS4_20_Prime_rehash_policyENS4_17_Hashtable_traitsILb0ELb0ELb1EEEE21_M_deallocate_bucketsEPPNS4_15_Hash_node_baseEm, symObjAddr: 0x3288, symBinAddr: 0x100003AC0, symSize: 0x4C }
  - { offset: 0x2CA22, size: 0x8, addend: 0x0, symName: __ZNSt8__detail16_Hashtable_allocISaINS_10_Hash_nodeISt4pairIKiiELb0EEEEE19_M_deallocate_nodesEPS5_, symObjAddr: 0x3238, symBinAddr: 0x100003A70, symSize: 0x50 }
  - { offset: 0x2CA81, size: 0x8, addend: 0x0, symName: __ZNKSt10_HashtableIiSt4pairIKiiESaIS2_ENSt8__detail10_Select1stESt8equal_toIiESt4hashIiENS4_18_Mod_range_hashingENS4_20_Default_ranged_hashENS4_20_Prime_rehash_policyENS4_17_Hashtable_traitsILb0ELb0ELb1EEEE8_M_beginEv, symObjAddr: 0x3220, symBinAddr: 0x100003A58, symSize: 0x18 }
  - { offset: 0x2CAC1, size: 0x8, addend: 0x0, symName: __ZNK11__gnu_debug12_Safe_vectorINSt7__debug6vectorINS2_IiSaIiEEESaIS4_EEENSt9__cxx19986vectorIS4_S5_EEE6_M_seqEv, symObjAddr: 0x3208, symBinAddr: 0x100003A40, symSize: 0x18 }
  - { offset: 0x2CAE7, size: 0x8, addend: 0x0, symName: __ZSt8_DestroyIPNSt7__debug6vectorIiSaIiEEEEvT_S5_, symObjAddr: 0x31E0, symBinAddr: 0x100003A18, symSize: 0x28 }
  - { offset: 0x2CB5F, size: 0x8, addend: 0x0, symName: __ZNK11__gnu_debug12_Safe_vectorINSt7__debug6vectorIiSaIiEEENSt9__cxx19986vectorIiS3_EEE6_M_seqEv, symObjAddr: 0x31C8, symBinAddr: 0x100003A00, symSize: 0x18 }
  - { offset: 0x2CB85, size: 0x8, addend: 0x0, symName: __ZSt8_DestroyIPiEvT_S1_, symObjAddr: 0x31A0, symBinAddr: 0x1000039D8, symSize: 0x28 }
  - { offset: 0x2CBFD, size: 0x8, addend: 0x0, symName: __ZNK11__gnu_debug12_Safe_vectorINSt7__debug6vectorIiSaIiEEENSt9__cxx19986vectorIiS3_EEE24_M_requires_reallocationEm, symObjAddr: 0x3168, symBinAddr: 0x1000039A0, symSize: 0x38 }
  - { offset: 0x2CC37, size: 0x8, addend: 0x0, symName: __ZNSt9__cxx19986vectorIiSaIiEE9push_backERKi, symObjAddr: 0x30A0, symBinAddr: 0x1000038D8, symSize: 0xC8 }
  - { offset: 0x2CCDA, size: 0x8, addend: 0x0, symName: __ZSt22__uninitialized_copy_aIPNSt7__debug6vectorIiSaIiEEES4_S3_ET0_T_S6_S5_RSaIT1_E, symObjAddr: 0x3070, symBinAddr: 0x1000038A8, symSize: 0x30 }
  - { offset: 0x2CD4A, size: 0x8, addend: 0x0, symName: __ZSt4copyIPNSt7__debug6vectorIiSaIiEEES4_ET0_T_S6_S5_, symObjAddr: 0x2F10, symBinAddr: 0x100003748, symSize: 0x160 }
  - { offset: 0x2CE26, size: 0x8, addend: 0x0, symName: __ZNSt9__cxx19986vectorINSt7__debug6vectorIiSaIiEEESaIS4_EE3endEv, symObjAddr: 0x2EE8, symBinAddr: 0x100003720, symSize: 0x28 }
  - { offset: 0x2CE4C, size: 0x8, addend: 0x0, symName: __ZSt4copyIN9__gnu_cxx17__normal_iteratorIPKNSt7__debug6vectorIiSaIiEEENSt9__cxx19986vectorIS5_SaIS5_EEEEENS1_IPS5_SB_EEET0_T_SG_SF_, symObjAddr: 0x2D84, symBinAddr: 0x1000035BC, symSize: 0x164 }
  - { offset: 0x2CEEF, size: 0x8, addend: 0x0, symName: __ZNSt9__cxx19986vectorINSt7__debug6vectorIiSaIiEEESaIS4_EE5beginEv, symObjAddr: 0x2D60, symBinAddr: 0x100003598, symSize: 0x24 }
  - { offset: 0x2CF19, size: 0x8, addend: 0x0, symName: __ZNSt9__cxx19986vectorINSt7__debug6vectorIiSaIiEEESaIS4_EE20_M_allocate_and_copyIN9__gnu_cxx17__normal_iteratorIPKS4_S6_EEEEPS4_mT_SE_, symObjAddr: 0x2CDC, symBinAddr: 0x100003514, symSize: 0x84 }
  - { offset: 0x2CF90, size: 0x8, addend: 0x0, symName: __ZNKSt9__cxx19986vectorINSt7__debug6vectorIiSaIiEEESaIS4_EE3endEv, symObjAddr: 0x2CB4, symBinAddr: 0x1000034EC, symSize: 0x28 }
  - { offset: 0x2CFBA, size: 0x8, addend: 0x0, symName: __ZNKSt9__cxx19986vectorINSt7__debug6vectorIiSaIiEEESaIS4_EE5beginEv, symObjAddr: 0x2C90, symBinAddr: 0x1000034C8, symSize: 0x24 }
  - { offset: 0x2CFE4, size: 0x8, addend: 0x0, symName: __ZNKSt9__cxx19986vectorINSt7__debug6vectorIiSaIiEEESaIS4_EE8capacityEv, symObjAddr: 0x2C54, symBinAddr: 0x10000348C, symSize: 0x3C }
  - { offset: 0x2D03B, size: 0x8, addend: 0x0, symName: __ZNSt9__cxx19986vectorINSt7__debug6vectorIiSaIiEEESaIS4_EE5clearEv, symObjAddr: 0x2C28, symBinAddr: 0x100003460, symSize: 0x2C }
  - { offset: 0x2D077, size: 0x8, addend: 0x0, symName: __ZNKSt9__cxx199812_Vector_baseINSt7__debug6vectorIiSaIiEEESaIS4_EE19_M_get_Tp_allocatorEv, symObjAddr: 0x2C14, symBinAddr: 0x10000344C, symSize: 0x14 }
  - { offset: 0x2D09D, size: 0x8, addend: 0x0, symName: __ZSt22__uninitialized_copy_aIPiS0_iET0_T_S2_S1_RSaIT1_E, symObjAddr: 0x2BE4, symBinAddr: 0x10000341C, symSize: 0x30 }
  - { offset: 0x2D10D, size: 0x8, addend: 0x0, symName: __ZSt4copyIPiS0_ET0_T_S2_S1_, symObjAddr: 0x2A84, symBinAddr: 0x1000032BC, symSize: 0x160 }
  - { offset: 0x2D1E9, size: 0x8, addend: 0x0, symName: __ZNSt9__cxx19986vectorIiSaIiEE3endEv, symObjAddr: 0x2A5C, symBinAddr: 0x100003294, symSize: 0x28 }
  - { offset: 0x2D20F, size: 0x8, addend: 0x0, symName: __ZSt4copyIN9__gnu_cxx17__normal_iteratorIPKiNSt9__cxx19986vectorIiSaIiEEEEENS1_IPiS7_EEET0_T_SC_SB_, symObjAddr: 0x28F8, symBinAddr: 0x100003130, symSize: 0x164 }
  - { offset: 0x2D2B0, size: 0x8, addend: 0x0, symName: __ZNSt9__cxx19986vectorIiSaIiEE5beginEv, symObjAddr: 0x28D4, symBinAddr: 0x10000310C, symSize: 0x24 }
  - { offset: 0x2D2DA, size: 0x8, addend: 0x0, symName: __ZNSt9__cxx19986vectorIiSaIiEE20_M_allocate_and_copyIN9__gnu_cxx17__normal_iteratorIPKiS2_EEEEPimT_SA_, symObjAddr: 0x2850, symBinAddr: 0x100003088, symSize: 0x84 }
  - { offset: 0x2D351, size: 0x8, addend: 0x0, symName: __ZNKSt9__cxx19986vectorIiSaIiEE3endEv, symObjAddr: 0x2828, symBinAddr: 0x100003060, symSize: 0x28 }
  - { offset: 0x2D37B, size: 0x8, addend: 0x0, symName: __ZNKSt9__cxx19986vectorIiSaIiEE5beginEv, symObjAddr: 0x2804, symBinAddr: 0x10000303C, symSize: 0x24 }
  - { offset: 0x2D3A5, size: 0x8, addend: 0x0, symName: __ZNKSt9__cxx19986vectorIiSaIiEE8capacityEv, symObjAddr: 0x27DC, symBinAddr: 0x100003014, symSize: 0x28 }
  - { offset: 0x2D3FC, size: 0x8, addend: 0x0, symName: __ZNSt9__cxx19986vectorIiSaIiEE5clearEv, symObjAddr: 0x27B0, symBinAddr: 0x100002FE8, symSize: 0x2C }
  - { offset: 0x2D438, size: 0x8, addend: 0x0, symName: __ZNKSt9__cxx199812_Vector_baseIiSaIiEE19_M_get_Tp_allocatorEv, symObjAddr: 0x279C, symBinAddr: 0x100002FD4, symSize: 0x14 }
  - { offset: 0x2D489, size: 0x8, addend: 0x0, symName: __ZN11__gnu_debug12_Safe_vectorINSt7__debug6vectorINS2_IiSaIiEEESaIS4_EEENSt9__cxx19986vectorIS4_S5_EEEC2Em, symObjAddr: 0x2778, symBinAddr: 0x100002FB0, symSize: 0x24 }
  - { offset: 0x2D4EE, size: 0x8, addend: 0x0, symName: __ZNSt9__cxx19986vectorINSt7__debug6vectorIiSaIiEEESaIS4_EEC2EmRKS5_, symObjAddr: 0x2710, symBinAddr: 0x100002F48, symSize: 0x68 }
  - { offset: 0x2D563, size: 0x8, addend: 0x0, symName: __ZN11__gnu_debug12_Safe_vectorINSt7__debug6vectorIiSaIiEEENSt9__cxx19986vectorIiS3_EEEC2Em, symObjAddr: 0x26EC, symBinAddr: 0x100002F24, symSize: 0x24 }
  - { offset: 0x2D5C8, size: 0x8, addend: 0x0, symName: __ZNSt9__cxx19986vectorIiSaIiEEC2EmRKS1_, symObjAddr: 0x2684, symBinAddr: 0x100002EBC, symSize: 0x68 }
  - { offset: 0x2D616, size: 0x8, addend: 0x0, symName: __ZNKSt10_HashtableIiSt4pairIKiiESaIS2_ENSt8__detail10_Select1stESt8equal_toIiESt4hashIiENS4_18_Mod_range_hashingENS4_20_Default_ranged_hashENS4_20_Prime_rehash_policyENS4_17_Hashtable_traitsILb0ELb0ELb1EEEE5countERS1_, symObjAddr: 0x2644, symBinAddr: 0x100002E7C, symSize: 0x40 }
  - { offset: 0x2D681, size: 0x8, addend: 0x0, symName: __ZNSt8__detail9_Map_baseIiSt4pairIKiiESaIS3_ENS_10_Select1stESt8equal_toIiESt4hashIiENS_18_Mod_range_hashingENS_20_Default_ranged_hashENS_20_Prime_rehash_policyENS_17_Hashtable_traitsILb0ELb0ELb1EEELb1EEixERS2_, symObjAddr: 0x2524, symBinAddr: 0x100002D5C, symSize: 0x120 }
  - { offset: 0x2D787, size: 0x8, addend: 0x0, symName: __ZNSt9__cxx19986vectorIiSaIiEEixEm, symObjAddr: 0x24A0, symBinAddr: 0x100002CD8, symSize: 0x84 }
  - { offset: 0x2D7DD, size: 0x8, addend: 0x0, symName: __ZN11__gnu_debug16_Error_formatter11_M_sequenceINSt7__debug6vectorIiSaIiEEEEERS0_RKT_PKc, symObjAddr: 0x2404, symBinAddr: 0x100002C3C, symSize: 0x9C }
  - { offset: 0x2D835, size: 0x8, addend: 0x0, symName: __ZNSt8__detail12_Rehash_baseIiSt4pairIKiiESaIS3_ENS_10_Select1stESt8equal_toIiESt4hashIiENS_18_Mod_range_hashingENS_20_Default_ranged_hashENS_20_Prime_rehash_policyENS_17_Hashtable_traitsILb0ELb0ELb1EEESt17integral_constantIbLb1EEE7reserveEm, symObjAddr: 0x23B8, symBinAddr: 0x100002BF0, symSize: 0x4C }
  - { offset: 0x2D887, size: 0x8, addend: 0x0, symName: __ZNSt9__cxx19986vectorINSt7__debug6vectorIiSaIiEEESaIS4_EEixEm, symObjAddr: 0x2328, symBinAddr: 0x100002B60, symSize: 0x90 }
  - { offset: 0x2D8DF, size: 0x8, addend: 0x0, symName: __ZN11__gnu_debug16_Error_formatter11_M_sequenceINSt7__debug6vectorINS3_IiSaIiEEESaIS5_EEEEERS0_RKT_PKc, symObjAddr: 0x228C, symBinAddr: 0x100002AC4, symSize: 0x9C }
  - { offset: 0x2D937, size: 0x8, addend: 0x0, symName: __ZNKSt9__cxx19986vectorINSt7__debug6vectorIiSaIiEEESaIS4_EE4sizeEv, symObjAddr: 0x2250, symBinAddr: 0x100002A88, symSize: 0x3C }
  - { offset: 0x2D961, size: 0x8, addend: 0x0, symName: __ZNSt10_HashtableIiSt4pairIKiiESaIS2_ENSt8__detail10_Select1stESt8equal_toIiESt4hashIiENS4_18_Mod_range_hashingENS4_20_Default_ranged_hashENS4_20_Prime_rehash_policyENS4_17_Hashtable_traitsILb0ELb0ELb1EEEE21_M_deallocate_bucketsEv, symObjAddr: 0x221C, symBinAddr: 0x100002A54, symSize: 0x34 }
  - { offset: 0x2D98B, size: 0x8, addend: 0x0, symName: __ZNSt10_HashtableIiSt4pairIKiiESaIS2_ENSt8__detail10_Select1stESt8equal_toIiESt4hashIiENS4_18_Mod_range_hashingENS4_20_Default_ranged_hashENS4_20_Prime_rehash_policyENS4_17_Hashtable_traitsILb0ELb0ELb1EEEE5clearEv, symObjAddr: 0x21BC, symBinAddr: 0x1000029F4, symSize: 0x60 }
  - { offset: 0x2D9D9, size: 0x8, addend: 0x0, symName: __ZNSt15__new_allocatorINSt8__detail10_Hash_nodeISt4pairIKiiELb0EEEED2Ev, symObjAddr: 0x21A8, symBinAddr: 0x1000029E0, symSize: 0x14 }
  - { offset: 0x2DA15, size: 0x8, addend: 0x0, symName: __ZN11__gnu_debug12_Safe_vectorINSt7__debug6vectorINS2_IiSaIiEEESaIS4_EEENSt9__cxx19986vectorIS4_S5_EEE29_M_update_guaranteed_capacityEv, symObjAddr: 0x2140, symBinAddr: 0x100002978, symSize: 0x68 }
  - { offset: 0x2DA7A, size: 0x8, addend: 0x0, symName: __ZNSt9__cxx199812_Vector_baseINSt7__debug6vectorIiSaIiEEESaIS4_EE19_M_get_Tp_allocatorEv, symObjAddr: 0x212C, symBinAddr: 0x100002964, symSize: 0x14 }
  - { offset: 0x2DAA4, size: 0x8, addend: 0x0, symName: __ZNSt9__cxx199812_Vector_baseINSt7__debug6vectorIiSaIiEEESaIS4_EE13_M_deallocateEPS4_m, symObjAddr: 0x20D4, symBinAddr: 0x10000290C, symSize: 0x58 }
  - { offset: 0x2DB4A, size: 0x8, addend: 0x0, symName: __ZNSt15__new_allocatorINSt7__debug6vectorIiSaIiEEEED2Ev, symObjAddr: 0x20C0, symBinAddr: 0x1000028F8, symSize: 0x14 }
  - { offset: 0x2DB8A, size: 0x8, addend: 0x0, symName: __ZNSt9__cxx199812_Vector_baseINSt7__debug6vectorIiSaIiEEESaIS4_EE17_Vector_impl_dataC2Ev, symObjAddr: 0x2094, symBinAddr: 0x1000028CC, symSize: 0x2C }
  - { offset: 0x2DBB0, size: 0x8, addend: 0x0, symName: __ZN11__gnu_debug12_Safe_vectorINSt7__debug6vectorIiSaIiEEENSt9__cxx19986vectorIiS3_EEE29_M_update_guaranteed_capacityEv, symObjAddr: 0x202C, symBinAddr: 0x100002864, symSize: 0x68 }
  - { offset: 0x2DC15, size: 0x8, addend: 0x0, symName: __ZNSt9__cxx199812_Vector_baseIiSaIiEE19_M_get_Tp_allocatorEv, symObjAddr: 0x2018, symBinAddr: 0x100002850, symSize: 0x14 }
  - { offset: 0x2DC3F, size: 0x8, addend: 0x0, symName: __ZNSt9__cxx199812_Vector_baseIiSaIiEE13_M_deallocateEPim, symObjAddr: 0x1FC0, symBinAddr: 0x1000027F8, symSize: 0x58 }
  - { offset: 0x2DCE5, size: 0x8, addend: 0x0, symName: __ZNSt15__new_allocatorIiED2Ev, symObjAddr: 0x1FAC, symBinAddr: 0x1000027E4, symSize: 0x14 }
  - { offset: 0x2DD25, size: 0x8, addend: 0x0, symName: __ZNSt9__cxx199812_Vector_baseIiSaIiEE17_Vector_impl_dataC2Ev, symObjAddr: 0x1F80, symBinAddr: 0x1000027B8, symSize: 0x2C }
  - { offset: 0x2DD4B, size: 0x8, addend: 0x0, symName: __ZNSt7__debug6vectorIiSaIiEE9push_backERKi, symObjAddr: 0x1EE0, symBinAddr: 0x100002718, symSize: 0xA0 }
  - { offset: 0x2DDB1, size: 0x8, addend: 0x0, symName: __ZN11__gnu_debug12_Safe_vectorINSt7__debug6vectorINS2_IiSaIiEEESaIS4_EEENSt9__cxx19986vectorIS4_S5_EEEaSERKSA_, symObjAddr: 0x1EBC, symBinAddr: 0x1000026F4, symSize: 0x24 }
  - { offset: 0x2DDE4, size: 0x8, addend: 0x0, symName: __ZNSt9__cxx19986vectorINSt7__debug6vectorIiSaIiEEESaIS4_EEaSERKS6_, symObjAddr: 0x1B14, symBinAddr: 0x10000234C, symSize: 0x3A8 }
  - { offset: 0x2DF68, size: 0x8, addend: 0x0, symName: __ZSt11__addressofIKNSt9__cxx19986vectorINSt7__debug6vectorIiSaIiEEESaIS5_EEEEPT_RS9_, symObjAddr: 0x1B00, symBinAddr: 0x100002338, symSize: 0x14 }
  - { offset: 0x2DF9E, size: 0x8, addend: 0x0, symName: __ZN11__gnu_debug15_Safe_containerINSt7__debug6vectorINS2_IiSaIiEEESaIS4_EEES5_NS_14_Safe_sequenceELb1EEaSERKS8_, symObjAddr: 0x1AC4, symBinAddr: 0x1000022FC, symSize: 0x3C }
  - { offset: 0x2DFEA, size: 0x8, addend: 0x0, symName: __ZN11__gnu_debug12_Safe_vectorINSt7__debug6vectorIiSaIiEEENSt9__cxx19986vectorIiS3_EEEaSERKS8_, symObjAddr: 0x1AA0, symBinAddr: 0x1000022D8, symSize: 0x24 }
  - { offset: 0x2E01D, size: 0x8, addend: 0x0, symName: __ZNSt9__cxx19986vectorIiSaIiEEaSERKS2_, symObjAddr: 0x1758, symBinAddr: 0x100001F90, symSize: 0x348 }
  - { offset: 0x2E1A1, size: 0x8, addend: 0x0, symName: __ZSt11__addressofIKNSt9__cxx19986vectorIiSaIiEEEEPT_RS5_, symObjAddr: 0x1744, symBinAddr: 0x100001F7C, symSize: 0x14 }
  - { offset: 0x2E1D7, size: 0x8, addend: 0x0, symName: __ZN11__gnu_debug15_Safe_containerINSt7__debug6vectorIiSaIiEEES3_NS_14_Safe_sequenceELb1EEaSERKS6_, symObjAddr: 0x1708, symBinAddr: 0x100001F40, symSize: 0x3C }
  - { offset: 0x2E257, size: 0x8, addend: 0x0, symName: __ZNSt7__debug6vectorINS0_IiSaIiEEESaIS2_EEC1EmRKS3_, symObjAddr: 0x16A0, symBinAddr: 0x100001ED8, symSize: 0x68 }
  - { offset: 0x2E2D9, size: 0x8, addend: 0x0, symName: __ZNSt7__debug6vectorIiSaIiEEC1EmRKS1_, symObjAddr: 0x1638, symBinAddr: 0x100001E70, symSize: 0x68 }
  - { offset: 0x2E327, size: 0x8, addend: 0x0, symName: __ZNKSt9__cxx199813unordered_mapIiiSt4hashIiESt8equal_toIiESaISt4pairIKiiEEE5countERS6_, symObjAddr: 0x1614, symBinAddr: 0x100001E4C, symSize: 0x24 }
  - { offset: 0x2E362, size: 0x8, addend: 0x0, symName: __ZNSt9__cxx199813unordered_mapIiiSt4hashIiESt8equal_toIiESaISt4pairIKiiEEEixERS6_, symObjAddr: 0x15F0, symBinAddr: 0x100001E28, symSize: 0x24 }
  - { offset: 0x2E39D, size: 0x8, addend: 0x0, symName: __ZNSt7__debug6vectorIiSaIiEEixEm, symObjAddr: 0x150C, symBinAddr: 0x100001D44, symSize: 0xE4 }
  - { offset: 0x2E3F3, size: 0x8, addend: 0x0, symName: __ZNSt9__cxx199813unordered_mapIiiSt4hashIiESt8equal_toIiESaISt4pairIKiiEEE7reserveEm, symObjAddr: 0x14E4, symBinAddr: 0x100001D1C, symSize: 0x28 }
  - { offset: 0x2E42E, size: 0x8, addend: 0x0, symName: __ZNKSt9__cxx19986vectorIiSaIiEE4sizeEv, symObjAddr: 0x14BC, symBinAddr: 0x100001CF4, symSize: 0x28 }
  - { offset: 0x2E458, size: 0x8, addend: 0x0, symName: __ZNSt7__debug6vectorINS0_IiSaIiEEESaIS2_EEixEm, symObjAddr: 0x13D8, symBinAddr: 0x100001C10, symSize: 0xE4 }
  - { offset: 0x2E4D4, size: 0x8, addend: 0x0, symName: __ZNSt10_HashtableIiSt4pairIKiiESaIS2_ENSt8__detail10_Select1stESt8equal_toIiESt4hashIiENS4_18_Mod_range_hashingENS4_20_Default_ranged_hashENS4_20_Prime_rehash_policyENS4_17_Hashtable_traitsILb0ELb0ELb1EEEED1Ev, symObjAddr: 0x13A8, symBinAddr: 0x100001BE0, symSize: 0x30 }
  - { offset: 0x2E534, size: 0x8, addend: 0x0, symName: __ZNSt8__detail21_Hashtable_ebo_helperILi0ESaINS_10_Hash_nodeISt4pairIKiiELb0EEEELb1EEC2Ev, symObjAddr: 0x137C, symBinAddr: 0x100001BB4, symSize: 0x2C }
  - { offset: 0x2E5BB, size: 0x8, addend: 0x0, symName: __ZNSt8__detail21_Hashtable_ebo_helperILi0ESt8equal_toIiELb1EEC2Ev, symObjAddr: 0x1368, symBinAddr: 0x100001BA0, symSize: 0x14 }
  - { offset: 0x2E5FB, size: 0x8, addend: 0x0, symName: __ZNSt8__detail21_Hashtable_ebo_helperILi1ESt4hashIiELb1EEC2Ev, symObjAddr: 0x1354, symBinAddr: 0x100001B8C, symSize: 0x14 }
  - { offset: 0x2E63B, size: 0x8, addend: 0x0, symName: __ZN11__gnu_debug12_Safe_vectorINSt7__debug6vectorINS2_IiSaIiEEESaIS4_EEENSt9__cxx19986vectorIS4_S5_EEEC2Ev, symObjAddr: 0x132C, symBinAddr: 0x100001B64, symSize: 0x28 }
  - { offset: 0x2E685, size: 0x8, addend: 0x0, symName: __ZNSt9__cxx19986vectorINSt7__debug6vectorIiSaIiEEESaIS4_EED2Ev, symObjAddr: 0x12D0, symBinAddr: 0x100001B08, symSize: 0x5C }
  - { offset: 0x2E705, size: 0x8, addend: 0x0, symName: __ZNSt9__cxx199812_Vector_baseINSt7__debug6vectorIiSaIiEEESaIS4_EED2Ev, symObjAddr: 0x126C, symBinAddr: 0x100001AA4, symSize: 0x64 }
  - { offset: 0x2E765, size: 0x8, addend: 0x0, symName: __ZNSt9__cxx199812_Vector_baseINSt7__debug6vectorIiSaIiEEESaIS4_EE12_Vector_implC1Ev, symObjAddr: 0x1234, symBinAddr: 0x100001A6C, symSize: 0x38 }
  - { offset: 0x2E7EB, size: 0x8, addend: 0x0, symName: __ZN11__gnu_debug12_Safe_vectorINSt7__debug6vectorIiSaIiEEENSt9__cxx19986vectorIiS3_EEEC2Ev, symObjAddr: 0x120C, symBinAddr: 0x100001A44, symSize: 0x28 }
  - { offset: 0x2E835, size: 0x8, addend: 0x0, symName: __ZNSt9__cxx19986vectorIiSaIiEED2Ev, symObjAddr: 0x11B0, symBinAddr: 0x1000019E8, symSize: 0x5C }
  - { offset: 0x2E8B5, size: 0x8, addend: 0x0, symName: __ZNSt9__cxx199812_Vector_baseIiSaIiEED2Ev, symObjAddr: 0x1160, symBinAddr: 0x100001998, symSize: 0x50 }
  - { offset: 0x2E915, size: 0x8, addend: 0x0, symName: __ZNSt9__cxx199812_Vector_baseIiSaIiEE12_Vector_implC1Ev, symObjAddr: 0x1128, symBinAddr: 0x100001960, symSize: 0x38 }
  - { offset: 0x2E97D, size: 0x8, addend: 0x0, symName: __ZSt3maxImERKT_S2_S2_, symObjAddr: 0x10F0, symBinAddr: 0x100001928, symSize: 0x38 }
  - { offset: 0x2E9C8, size: 0x8, addend: 0x0, symName: _main, symObjAddr: 0x1080, symBinAddr: 0x1000018B8, symSize: 0x70 }
  - { offset: 0x2E9F8, size: 0x8, addend: 0x0, symName: __Z5solvev, symObjAddr: 0xD80, symBinAddr: 0x1000015B8, symSize: 0x300 }
  - { offset: 0x2EC80, size: 0x8, addend: 0x0, symName: __ZNSt7__debug6vectorINS0_IiSaIiEEESaIS2_EEaSERKS4_, symObjAddr: 0xD20, symBinAddr: 0x100001558, symSize: 0x60 }
  - { offset: 0x2ECB3, size: 0x8, addend: 0x0, symName: __ZNSt7__debug6vectorIiSaIiEEaSERKS2_, symObjAddr: 0xCC0, symBinAddr: 0x1000014F8, symSize: 0x60 }
  - { offset: 0x2ED0A, size: 0x8, addend: 0x0, symName: __ZNSt7__debug6vectorINS0_IiSaIiEEESaIS2_EED1Ev, symObjAddr: 0xC94, symBinAddr: 0x1000014CC, symSize: 0x2C }
  - { offset: 0x2ED54, size: 0x8, addend: 0x0, symName: __ZNSt7__debug6vectorIiSaIiEED1Ev, symObjAddr: 0xC68, symBinAddr: 0x1000014A0, symSize: 0x2C }
  - { offset: 0x2ED7D, size: 0x8, addend: 0x0, symName: __Z3dfsii, symObjAddr: 0x9DC, symBinAddr: 0x100001214, symSize: 0x28C }
  - { offset: 0x2EE14, size: 0x8, addend: 0x0, symName: __ZNSt7__debug13unordered_mapIiiSt4hashIiESt8equal_toIiESaISt4pairIKiiEEED1Ev, symObjAddr: 0x9B0, symBinAddr: 0x1000011E8, symSize: 0x2C }
  - { offset: 0x2EE54, size: 0x8, addend: 0x0, symName: __ZNSt7__debug13unordered_mapIiiSt4hashIiESt8equal_toIiESaISt4pairIKiiEEEC1Ev, symObjAddr: 0x984, symBinAddr: 0x1000011BC, symSize: 0x2C }
  - { offset: 0x2EEA1, size: 0x8, addend: 0x0, symName: __ZNSt9__cxx199813unordered_mapIiiSt4hashIiESt8equal_toIiESaISt4pairIKiiEEED2Ev, symObjAddr: 0x964, symBinAddr: 0x10000119C, symSize: 0x20 }
  - { offset: 0x2EEE1, size: 0x8, addend: 0x0, symName: __ZNSt9__cxx199813unordered_mapIiiSt4hashIiESt8equal_toIiESaISt4pairIKiiEEEC2Ev, symObjAddr: 0x944, symBinAddr: 0x10000117C, symSize: 0x20 }
  - { offset: 0x2EF21, size: 0x8, addend: 0x0, symName: __ZNSt10_HashtableIiSt4pairIKiiESaIS2_ENSt8__detail10_Select1stESt8equal_toIiESt4hashIiENS4_18_Mod_range_hashingENS4_20_Default_ranged_hashENS4_20_Prime_rehash_policyENS4_17_Hashtable_traitsILb0ELb0ELb1EEEEC1Ev, symObjAddr: 0x8D4, symBinAddr: 0x10000110C, symSize: 0x70 }
  - { offset: 0x2EF6F, size: 0x8, addend: 0x0, symName: __ZNSt8__detail16_Hashtable_allocISaINS_10_Hash_nodeISt4pairIKiiELb0EEEEED2Ev, symObjAddr: 0x8B4, symBinAddr: 0x1000010EC, symSize: 0x20 }
  - { offset: 0x2EFAF, size: 0x8, addend: 0x0, symName: __ZNSt8__detail16_Hashtable_allocISaINS_10_Hash_nodeISt4pairIKiiELb0EEEEEC2Ev, symObjAddr: 0x894, symBinAddr: 0x1000010CC, symSize: 0x20 }
  - { offset: 0x2EFFD, size: 0x8, addend: 0x0, symName: __ZNSt8__detail21_Hashtable_ebo_helperILi0ESaINS_10_Hash_nodeISt4pairIKiiELb0EEEELb1EED2Ev, symObjAddr: 0x868, symBinAddr: 0x1000010A0, symSize: 0x2C }
  - { offset: 0x2F061, size: 0x8, addend: 0x0, symName: __ZNSt8__detail15_Hashtable_baseIiSt4pairIKiiENS_10_Select1stESt8equal_toIiESt4hashIiENS_18_Mod_range_hashingENS_20_Default_ranged_hashENS_17_Hashtable_traitsILb0ELb0ELb1EEEEC2Ev, symObjAddr: 0x840, symBinAddr: 0x100001078, symSize: 0x28 }
  - { offset: 0x2F0A1, size: 0x8, addend: 0x0, symName: __ZNSt8__detail15_Hash_code_baseIiSt4pairIKiiENS_10_Select1stESt4hashIiENS_18_Mod_range_hashingENS_20_Default_ranged_hashELb0EEC2Ev, symObjAddr: 0x820, symBinAddr: 0x100001058, symSize: 0x20 }
  - { offset: 0x2F0EE, size: 0x8, addend: 0x0, symName: __ZN11__gnu_debug15_Safe_containerINSt7__debug13unordered_mapIiiSt4hashIiESt8equal_toIiESaISt4pairIKiiEEEESA_NS_25_Safe_unordered_containerELb1EED2Ev, symObjAddr: 0x800, symBinAddr: 0x100001038, symSize: 0x20 }
  - { offset: 0x2F12E, size: 0x8, addend: 0x0, symName: __ZN11__gnu_debug15_Safe_containerINSt7__debug13unordered_mapIiiSt4hashIiESt8equal_toIiESaISt4pairIKiiEEEESA_NS_25_Safe_unordered_containerELb1EEC2Ev, symObjAddr: 0x7E0, symBinAddr: 0x100001018, symSize: 0x20 }
  - { offset: 0x2F17B, size: 0x8, addend: 0x0, symName: __ZN11__gnu_debug25_Safe_unordered_containerINSt7__debug13unordered_mapIiiSt4hashIiESt8equal_toIiESaISt4pairIKiiEEEEED2Ev, symObjAddr: 0x7C0, symBinAddr: 0x100000FF8, symSize: 0x20 }
  - { offset: 0x2F1BE, size: 0x8, addend: 0x0, symName: __ZN11__gnu_debug25_Safe_unordered_containerINSt7__debug13unordered_mapIiiSt4hashIiESt8equal_toIiESaISt4pairIKiiEEEEEC2Ev, symObjAddr: 0x7A0, symBinAddr: 0x100000FD8, symSize: 0x20 }
  - { offset: 0x2F1FE, size: 0x8, addend: 0x0, symName: __ZNSt7__debug6vectorINS0_IiSaIiEEESaIS2_EEC1Ev, symObjAddr: 0x768, symBinAddr: 0x100000FA0, symSize: 0x38 }
  - { offset: 0x2F23E, size: 0x8, addend: 0x0, symName: __ZNSt9__cxx19986vectorINSt7__debug6vectorIiSaIiEEESaIS4_EEC2Ev, symObjAddr: 0x748, symBinAddr: 0x100000F80, symSize: 0x20 }
  - { offset: 0x2F27E, size: 0x8, addend: 0x0, symName: __ZNSt9__cxx199812_Vector_baseINSt7__debug6vectorIiSaIiEEESaIS4_EEC2Ev, symObjAddr: 0x728, symBinAddr: 0x100000F60, symSize: 0x20 }
  - { offset: 0x2F2CB, size: 0x8, addend: 0x0, symName: __ZNSt9__cxx199812_Vector_baseINSt7__debug6vectorIiSaIiEEESaIS4_EE12_Vector_implD1Ev, symObjAddr: 0x6FC, symBinAddr: 0x100000F34, symSize: 0x2C }
  - { offset: 0x2F33B, size: 0x8, addend: 0x0, symName: __ZN11__gnu_debug15_Safe_containerINSt7__debug6vectorINS2_IiSaIiEEESaIS4_EEES5_NS_14_Safe_sequenceELb1EED2Ev, symObjAddr: 0x6DC, symBinAddr: 0x100000F14, symSize: 0x20 }
  - { offset: 0x2F37B, size: 0x8, addend: 0x0, symName: __ZN11__gnu_debug15_Safe_containerINSt7__debug6vectorINS2_IiSaIiEEESaIS4_EEES5_NS_14_Safe_sequenceELb1EEC2Ev, symObjAddr: 0x6BC, symBinAddr: 0x100000EF4, symSize: 0x20 }
  - { offset: 0x2F3D3, size: 0x8, addend: 0x0, symName: __ZN11__gnu_debug14_Safe_sequenceINSt7__debug6vectorINS2_IiSaIiEEESaIS4_EEEED2Ev, symObjAddr: 0x69C, symBinAddr: 0x100000ED4, symSize: 0x20 }
  - { offset: 0x2F416, size: 0x8, addend: 0x0, symName: __ZN11__gnu_debug14_Safe_sequenceINSt7__debug6vectorINS2_IiSaIiEEESaIS4_EEEEC2Ev, symObjAddr: 0x67C, symBinAddr: 0x100000EB4, symSize: 0x20 }
  - { offset: 0x2F456, size: 0x8, addend: 0x0, symName: __ZNSt7__debug6vectorIiSaIiEEC1Ev, symObjAddr: 0x644, symBinAddr: 0x100000E7C, symSize: 0x38 }
  - { offset: 0x2F496, size: 0x8, addend: 0x0, symName: __ZNSt9__cxx19986vectorIiSaIiEEC2Ev, symObjAddr: 0x624, symBinAddr: 0x100000E5C, symSize: 0x20 }
  - { offset: 0x2F4D6, size: 0x8, addend: 0x0, symName: __ZNSt9__cxx199812_Vector_baseIiSaIiEEC2Ev, symObjAddr: 0x604, symBinAddr: 0x100000E3C, symSize: 0x20 }
  - { offset: 0x2F523, size: 0x8, addend: 0x0, symName: __ZNSt9__cxx199812_Vector_baseIiSaIiEE12_Vector_implD1Ev, symObjAddr: 0x5D8, symBinAddr: 0x100000E10, symSize: 0x2C }
  - { offset: 0x2F593, size: 0x8, addend: 0x0, symName: __ZN11__gnu_debug15_Safe_containerINSt7__debug6vectorIiSaIiEEES3_NS_14_Safe_sequenceELb1EED2Ev, symObjAddr: 0x5B8, symBinAddr: 0x100000DF0, symSize: 0x20 }
  - { offset: 0x2F5D3, size: 0x8, addend: 0x0, symName: __ZN11__gnu_debug15_Safe_containerINSt7__debug6vectorIiSaIiEEES3_NS_14_Safe_sequenceELb1EEC2Ev, symObjAddr: 0x598, symBinAddr: 0x100000DD0, symSize: 0x20 }
  - { offset: 0x2F620, size: 0x8, addend: 0x0, symName: __ZN11__gnu_debug14_Safe_sequenceINSt7__debug6vectorIiSaIiEEEED2Ev, symObjAddr: 0x578, symBinAddr: 0x100000DB0, symSize: 0x20 }
  - { offset: 0x2F663, size: 0x8, addend: 0x0, symName: __ZN11__gnu_debug14_Safe_sequenceINSt7__debug6vectorIiSaIiEEEEC2Ev, symObjAddr: 0x558, symBinAddr: 0x100000D90, symSize: 0x20 }
  - { offset: 0x2F6AD, size: 0x8, addend: 0x0, symName: __ZN11__gnu_debug30_Safe_unordered_container_baseD2Ev, symObjAddr: 0x530, symBinAddr: 0x100000D68, symSize: 0x28 }
  - { offset: 0x2F6ED, size: 0x8, addend: 0x0, symName: __ZN11__gnu_debug30_Safe_unordered_container_baseC2Ev, symObjAddr: 0x500, symBinAddr: 0x100000D38, symSize: 0x30 }
  - { offset: 0x2F70F, size: 0x8, addend: 0x0, symName: __ZSt3minImERKT_S2_S2_, symObjAddr: 0x4C8, symBinAddr: 0x100000D00, symSize: 0x38 }
  - { offset: 0x2F755, size: 0x8, addend: 0x0, symName: __ZNSt8__detail20_Prime_rehash_policy8_M_resetEm, symObjAddr: 0x4A4, symBinAddr: 0x100000CDC, symSize: 0x24 }
  - { offset: 0x2F790, size: 0x8, addend: 0x0, symName: __ZNKSt8__detail20_Prime_rehash_policy8_M_stateEv, symObjAddr: 0x48C, symBinAddr: 0x100000CC4, symSize: 0x18 }
  - { offset: 0x2F7BA, size: 0x8, addend: 0x0, symName: __ZNKSt8__detail20_Prime_rehash_policy19_M_bkt_for_elementsEm, symObjAddr: 0x454, symBinAddr: 0x100000C8C, symSize: 0x38 }
  - { offset: 0x2F81D, size: 0x8, addend: 0x0, symName: __ZNSt8__detail20_Prime_rehash_policyC1Ef, symObjAddr: 0x428, symBinAddr: 0x100000C60, symSize: 0x2C }
  - { offset: 0x2F84C, size: 0x8, addend: 0x0, symName: __ZNKSt8__detail18_Mod_range_hashingclEmm, symObjAddr: 0x3F8, symBinAddr: 0x100000C30, symSize: 0x30 }
  - { offset: 0x2F8B2, size: 0x8, addend: 0x0, symName: __ZNSt8__detail15_Hash_node_baseC1Ev, symObjAddr: 0x3DC, symBinAddr: 0x100000C14, symSize: 0x1C }
  - { offset: 0x2F8DC, size: 0x8, addend: 0x0, symName: __ZNSt8__detail15_Hash_node_baseC2Ev, symObjAddr: 0x3C0, symBinAddr: 0x100000BF8, symSize: 0x1C }
  - { offset: 0x2F902, size: 0x8, addend: 0x0, symName: __ZNK11__gnu_debug19_Safe_sequence_base17_M_invalidate_allEv, symObjAddr: 0x36C, symBinAddr: 0x100000BA4, symSize: 0x54 }
  - { offset: 0x2F950, size: 0x8, addend: 0x0, symName: __ZN11__gnu_debug19_Safe_sequence_baseD2Ev, symObjAddr: 0x334, symBinAddr: 0x100000B6C, symSize: 0x38 }
  - { offset: 0x2F9AE, size: 0x8, addend: 0x0, symName: __ZN11__gnu_debug19_Safe_sequence_baseC2ERKS0_, symObjAddr: 0x310, symBinAddr: 0x100000B48, symSize: 0x24 }
  - { offset: 0x2F9F7, size: 0x8, addend: 0x0, symName: __ZN11__gnu_debug19_Safe_sequence_baseC1Ev, symObjAddr: 0x2E0, symBinAddr: 0x100000B18, symSize: 0x30 }
  - { offset: 0x2FA21, size: 0x8, addend: 0x0, symName: __ZN11__gnu_debug19_Safe_sequence_baseC2Ev, symObjAddr: 0x2B0, symBinAddr: 0x100000AE8, symSize: 0x30 }
  - { offset: 0x2FA47, size: 0x8, addend: 0x0, symName: __ZNKSt4hashIiEclEi, symObjAddr: 0x298, symBinAddr: 0x100000AD0, symSize: 0x18 }
  - { offset: 0x2FA84, size: 0x8, addend: 0x0, symName: __ZdlPvS_, symObjAddr: 0x280, symBinAddr: 0x100000AB8, symSize: 0x18 }
  - { offset: 0x2FABA, size: 0x8, addend: 0x0, symName: __ZnwmPv, symObjAddr: 0x268, symBinAddr: 0x100000AA0, symSize: 0x18 }
  - { offset: 0x2FAEC, size: 0x8, addend: 0x0, symName: __ZSt17__size_to_integerm, symObjAddr: 0x254, symBinAddr: 0x100000A8C, symSize: 0x14 }
  - { offset: 0x2FB16, size: 0x8, addend: 0x0, symName: __ZN11__gnu_debug16_Error_formatter5_S_atEPKcjS2_, symObjAddr: 0x1C0, symBinAddr: 0x1000009F8, symSize: 0x94 }
  - { offset: 0x2FB6F, size: 0x8, addend: 0x0, symName: __ZZN11__gnu_debug16_Error_formatter5_S_atEPKcjS2_E11__formatter, symObjAddr: 0x8510, symBinAddr: 0x100018000, symSize: 0x0 }
  - { offset: 0x2FBC6, size: 0x8, addend: 0x0, symName: __ZN11__gnu_debug16_Error_formatterC1EPKcjS2_, symObjAddr: 0x134, symBinAddr: 0x10000096C, symSize: 0x8C }
  - { offset: 0x2FC07, size: 0x8, addend: 0x0, symName: __ZN11__gnu_debug16_Error_formatter10_M_integerElPKc, symObjAddr: 0x98, symBinAddr: 0x1000008D0, symSize: 0x9C }
  - { offset: 0x2FC8C, size: 0x8, addend: 0x0, symName: __ZN11__gnu_debug16_Error_formatter10_ParameterC1ElPKc, symObjAddr: 0x44, symBinAddr: 0x10000087C, symSize: 0x54 }
  - { offset: 0x2FCDE, size: 0x8, addend: 0x0, symName: __ZN11__gnu_debug16_Error_formatter10_ParameterC1Ev, symObjAddr: 0x14, symBinAddr: 0x10000084C, symSize: 0x30 }
  - { offset: 0x2FD00, size: 0x8, addend: 0x0, symName: __ZN11__gnu_debug20__check_singular_auxEPKv, symObjAddr: 0x0, symBinAddr: 0x100000838, symSize: 0x14 }
...
