---
triple:          'arm64-apple-darwin'
binary-path:     '/Users/mengchengxi/Documents/code/C++C/competition/D. Fibonacci Paths'
relocations:
  - { offset: 0x2629D, size: 0x8, addend: 0x0, symName: __ZStL8__ioinit, symObjAddr: 0xD53E2, symBinAddr: 0x100014010, symSize: 0x0 }
  - { offset: 0x266CF, size: 0x8, addend: 0x0, symName: __ZL3INF, symObjAddr: 0x5C58, symBinAddr: 0x100007648, symSize: 0x0 }
  - { offset: 0x266E6, size: 0x8, addend: 0x0, symName: __ZL3mod, symObjAddr: 0x5C5C, symBinAddr: 0x10000764C, symSize: 0x0 }
  - { offset: 0x26A24, size: 0x8, addend: 0x0, symName: _safe_map, symObjAddr: 0xD53E8, symBinAddr: 0x100014018, symSize: 0x0 }
  - { offset: 0x26B67, size: 0x8, addend: 0x0, symName: _vertices, symObjAddr: 0xD5420, symBinAddr: 0x100014050, symSize: 0x0 }
  - { offset: 0x26CB6, size: 0x8, addend: 0x0, symName: _edges, symObjAddr: 0xD5438, symBinAddr: 0x100014068, symSize: 0x0 }
  - { offset: 0x26E05, size: 0x8, addend: 0x0, symName: _g, symObjAddr: 0xD5450, symBinAddr: 0x100014080, symSize: 0x0 }
  - { offset: 0x26E1C, size: 0x8, addend: 0x0, symName: _dp, symObjAddr: 0xD5468, symBinAddr: 0x100014098, symSize: 0x0 }
  - { offset: 0x274F9, size: 0x8, addend: 0x0, symName: __GLOBAL__sub_I_D._Fibonacci_Paths.cpp, symObjAddr: 0x5F18, symBinAddr: 0x100006540, symSize: 0x14 }
  - { offset: 0x27511, size: 0x8, addend: 0x0, symName: __Z41__static_initialization_and_destruction_0v, symObjAddr: 0x5E14, symBinAddr: 0x10000643C, symSize: 0x104 }
  - { offset: 0x27554, size: 0x8, addend: 0x0, symName: __ZNSt13unordered_mapIxi11custom_hashSt8equal_toIxESaISt4pairIKxiEEED1Ev, symObjAddr: 0x5C34, symBinAddr: 0x10000641C, symSize: 0x20 }
  - { offset: 0x27576, size: 0x8, addend: 0x0, symName: __ZNSt10_Head_baseILm0ERKxLb0EE7_M_headERS2_, symObjAddr: 0x5C1C, symBinAddr: 0x100006404, symSize: 0x18 }
  - { offset: 0x2759F, size: 0x8, addend: 0x0, symName: __ZNSt11_Tuple_implILm0EJRKxEE7_M_headERS2_, symObjAddr: 0x5C00, symBinAddr: 0x1000063E8, symSize: 0x1C }
  - { offset: 0x275C9, size: 0x8, addend: 0x0, symName: __ZSt12__get_helperILm0ERKxJEERT0_RSt11_Tuple_implIXT_EJS2_DpT1_EE, symObjAddr: 0x5BE4, symBinAddr: 0x1000063CC, symSize: 0x1C }
  - { offset: 0x27637, size: 0x8, addend: 0x0, symName: __ZSt9__fill_a1IPiiEN9__gnu_cxx11__enable_ifIXsrSt11__is_scalarIT0_E7__valueEvE6__typeET_S8_RKS4_, symObjAddr: 0x5B8C, symBinAddr: 0x100006374, symSize: 0x58 }
  - { offset: 0x276BC, size: 0x8, addend: 0x0, symName: __ZSt9__fill_a1IPxxEN9__gnu_cxx11__enable_ifIXsrSt11__is_scalarIT0_E7__valueEvE6__typeET_S8_RKS4_, symObjAddr: 0x5B34, symBinAddr: 0x10000631C, symSize: 0x58 }
  - { offset: 0x2775B, size: 0x8, addend: 0x0, symName: __ZNSt4pairIiSt6vectorIS_IiiESaIS1_EEEC1IiS3_Lb1EEEv, symObjAddr: 0x5AF8, symBinAddr: 0x1000062E0, symSize: 0x3C }
  - { offset: 0x27796, size: 0x8, addend: 0x0, symName: __ZSt7forwardIRKxEOT_RNSt16remove_referenceIS2_E4typeE, symObjAddr: 0x5AE4, symBinAddr: 0x1000062CC, symSize: 0x14 }
  - { offset: 0x277C8, size: 0x8, addend: 0x0, symName: __ZSt3getILm0EJRKxEERNSt13tuple_elementIXT_ESt5tupleIJDpT0_EEE4typeERS6_, symObjAddr: 0x5AC8, symBinAddr: 0x1000062B0, symSize: 0x1C }
  - { offset: 0x27834, size: 0x8, addend: 0x0, symName: __ZSt8__fill_aIPiiEvT_S1_RKT0_, symObjAddr: 0x5A98, symBinAddr: 0x100006280, symSize: 0x30 }
  - { offset: 0x27896, size: 0x8, addend: 0x0, symName: __ZNSt8__detail16_Hashtable_allocISaINS_10_Hash_nodeISt4pairIKxS2_IiSt6vectorIS2_IiiESaIS5_EEEELb1EEEEE19_M_deallocate_nodesEPSA_, symObjAddr: 0x5A48, symBinAddr: 0x100006230, symSize: 0x50 }
  - { offset: 0x27919, size: 0x8, addend: 0x0, symName: __ZNSt15__new_allocatorINSt8__detail10_Hash_nodeISt4pairIKxS2_IiSt6vectorIS2_IiiESaIS5_EEEELb1EEEED2Ev, symObjAddr: 0x5A34, symBinAddr: 0x10000621C, symSize: 0x14 }
  - { offset: 0x27951, size: 0x8, addend: 0x0, symName: __ZSt8__fill_aIPxxEvT_S1_RKT0_, symObjAddr: 0x5A04, symBinAddr: 0x1000061EC, symSize: 0x30 }
  - { offset: 0x279B3, size: 0x8, addend: 0x0, symName: __ZNSt15__new_allocatorIPNSt8__detail15_Hash_node_baseEE8allocateEmPKv, symObjAddr: 0x5988, symBinAddr: 0x100006170, symSize: 0x7C }
  - { offset: 0x27A3B, size: 0x8, addend: 0x0, symName: __ZSt11__addressofINSt8__detail10_Hash_nodeISt4pairIKxS2_IiSt6vectorIS2_IiiESaIS5_EEEELb1EEEEPT_RSB_, symObjAddr: 0x5974, symBinAddr: 0x10000615C, symSize: 0x14 }
  - { offset: 0x27ADA, size: 0x8, addend: 0x0, symName: __ZNSt4pairIKxS_IiSt6vectorIS_IiiESaIS2_EEEEC1IJRS0_EJLm0EEJEJEEERSt5tupleIJDpT_EERS9_IJDpT1_EESt12_Index_tupleIJXspT0_EEESI_IJXspT2_EEE, symObjAddr: 0x5928, symBinAddr: 0x100006110, symSize: 0x4C }
  - { offset: 0x27B49, size: 0x8, addend: 0x0, symName: __ZSt11__addressofINSt8__detail10_Hash_nodeISt4pairIKxiELb1EEEEPT_RS6_, symObjAddr: 0x5914, symBinAddr: 0x1000060FC, symSize: 0x14 }
  - { offset: 0x27B7B, size: 0x8, addend: 0x0, symName: __ZSt19__relocate_object_aISt4pairIiiES1_SaIS1_EEvPT_PT0_RT1_, symObjAddr: 0x5850, symBinAddr: 0x100006038, symSize: 0xC4 }
  - { offset: 0x27CAD, size: 0x8, addend: 0x0, symName: __ZSt10__fill_n_aIPimiET_S1_T0_RKT1_St26random_access_iterator_tag, symObjAddr: 0x57EC, symBinAddr: 0x100005FD4, symSize: 0x64 }
  - { offset: 0x27D37, size: 0x8, addend: 0x0, symName: __ZNSt10_HashtableIxSt4pairIKxS0_IiSt6vectorIS0_IiiESaIS3_EEEESaIS7_ENSt8__detail10_Select1stESt8equal_toIxE11custom_hashNS9_18_Mod_range_hashingENS9_20_Default_ranged_hashENS9_20_Prime_rehash_policyENS9_17_Hashtable_traitsILb1ELb0ELb1EEEE5clearEv, symObjAddr: 0x578C, symBinAddr: 0x100005F74, symSize: 0x60 }
  - { offset: 0x27D9B, size: 0x8, addend: 0x0, symName: __ZNSt8__detail21_Hashtable_ebo_helperILi0ESaINS_10_Hash_nodeISt4pairIKxS2_IiSt6vectorIS2_IiiESaIS5_EEEELb1EEEELb1EEC2Ev, symObjAddr: 0x5760, symBinAddr: 0x100005F48, symSize: 0x2C }
  - { offset: 0x27E34, size: 0x8, addend: 0x0, symName: __ZNSt4pairIiiEC1IiiLb1EEEv, symObjAddr: 0x573C, symBinAddr: 0x100005F24, symSize: 0x24 }
  - { offset: 0x27E68, size: 0x8, addend: 0x0, symName: __ZSt10__fill_n_aIPxmxET_S1_T0_RKT1_St26random_access_iterator_tag, symObjAddr: 0x56D8, symBinAddr: 0x100005EC0, symSize: 0x64 }
  - { offset: 0x27EF9, size: 0x8, addend: 0x0, symName: __ZNSt8__detail16_Hashtable_allocISaINS_10_Hash_nodeISt4pairIKxS2_IiSt6vectorIS2_IiiESaIS5_EEEELb1EEEEE21_M_deallocate_bucketsEPPNS_15_Hash_node_baseEm, symObjAddr: 0x5660, symBinAddr: 0x100005E48, symSize: 0x78 }
  - { offset: 0x28009, size: 0x8, addend: 0x0, symName: __ZNKSt10_HashtableIxSt4pairIKxS0_IiSt6vectorIS0_IiiESaIS3_EEEESaIS7_ENSt8__detail10_Select1stESt8equal_toIxE11custom_hashNS9_18_Mod_range_hashingENS9_20_Default_ranged_hashENS9_20_Prime_rehash_policyENS9_17_Hashtable_traitsILb1ELb0ELb1EEEE21_M_uses_single_bucketEPPNS9_15_Hash_node_baseE, symObjAddr: 0x5624, symBinAddr: 0x100005E0C, symSize: 0x3C }
  - { offset: 0x28040, size: 0x8, addend: 0x0, symName: __ZSt12__to_addressIPNSt8__detail15_Hash_node_baseEEPT_S4_, symObjAddr: 0x5610, symBinAddr: 0x100005DF8, symSize: 0x14 }
  - { offset: 0x280BA, size: 0x8, addend: 0x0, symName: __ZSt9addressofINSt8__detail10_Hash_nodeISt4pairIKxS2_IiSt6vectorIS2_IiiESaIS5_EEEELb1EEEEPT_RSB_, symObjAddr: 0x55F4, symBinAddr: 0x100005DDC, symSize: 0x1C }
  - { offset: 0x2813B, size: 0x8, addend: 0x0, symName: __ZNSt4pairIKxS_IiSt6vectorIS_IiiESaIS2_EEEEC1IJRS0_EJEEESt21piecewise_construct_tSt5tupleIJDpT_EESA_IJDpT0_EE, symObjAddr: 0x55B8, symBinAddr: 0x100005DA0, symSize: 0x3C }
  - { offset: 0x281B5, size: 0x8, addend: 0x0, symName: __ZNSt11_Tuple_implILm0EJRKxEEC2EOS2_, symObjAddr: 0x5590, symBinAddr: 0x100005D78, symSize: 0x28 }
  - { offset: 0x281E8, size: 0x8, addend: 0x0, symName: __ZNK9__gnu_cxx16__aligned_bufferISt4pairIKxS1_IiSt6vectorIS1_IiiESaIS4_EEEEE7_M_addrEv, symObjAddr: 0x557C, symBinAddr: 0x100005D64, symSize: 0x14 }
  - { offset: 0x2820E, size: 0x8, addend: 0x0, symName: __ZSt11__addressofIPNSt8__detail15_Hash_node_baseEEPT_RS3_, symObjAddr: 0x5568, symBinAddr: 0x100005D50, symSize: 0x14 }
  - { offset: 0x28244, size: 0x8, addend: 0x0, symName: __ZNSt15__new_allocatorINSt8__detail10_Hash_nodeISt4pairIKxiELb1EEEE10deallocateEPS5_m, symObjAddr: 0x5538, symBinAddr: 0x100005D20, symSize: 0x30 }
  - { offset: 0x2828A, size: 0x8, addend: 0x0, symName: __ZSt9addressofINSt8__detail10_Hash_nodeISt4pairIKxiELb1EEEEPT_RS6_, symObjAddr: 0x551C, symBinAddr: 0x100005D04, symSize: 0x1C }
  - { offset: 0x282C4, size: 0x8, addend: 0x0, symName: __ZN9__gnu_cxx16__aligned_bufferISt4pairIKxiEE7_M_addrEv, symObjAddr: 0x5508, symBinAddr: 0x100005CF0, symSize: 0x14 }
  - { offset: 0x282EA, size: 0x8, addend: 0x0, symName: __ZSt14__relocate_a_1IPSt4pairIiiES2_SaIS1_EET0_T_S5_S4_RT1_, symObjAddr: 0x5484, symBinAddr: 0x100005C6C, symSize: 0x84 }
  - { offset: 0x28373, size: 0x8, addend: 0x0, symName: __ZSt12__niter_baseIPSt4pairIiiEET_S3_, symObjAddr: 0x5470, symBinAddr: 0x100005C58, symSize: 0x14 }
  - { offset: 0x283A6, size: 0x8, addend: 0x0, symName: __ZSt6fill_nIPimiET_S1_T0_RKT1_, symObjAddr: 0x5428, symBinAddr: 0x100005C10, symSize: 0x48 }
  - { offset: 0x28432, size: 0x8, addend: 0x0, symName: __ZNSt15__new_allocatorIiE8allocateEmPKv, symObjAddr: 0x53AC, symBinAddr: 0x100005B94, symSize: 0x7C }
  - { offset: 0x284E2, size: 0x8, addend: 0x0, symName: __ZNSt10_HashtableIxSt4pairIKxS0_IiSt6vectorIS0_IiiESaIS3_EEEESaIS7_ENSt8__detail10_Select1stESt8equal_toIxE11custom_hashNS9_18_Mod_range_hashingENS9_20_Default_ranged_hashENS9_20_Prime_rehash_policyENS9_17_Hashtable_traitsILb1ELb0ELb1EEEED1Ev, symObjAddr: 0x537C, symBinAddr: 0x100005B64, symSize: 0x30 }
  - { offset: 0x28504, size: 0x8, addend: 0x0, symName: __ZSt10_ConstructISt13unordered_mapIxSt4pairIiSt6vectorIS1_IiiESaIS3_EEE11custom_hashSt8equal_toIxESaIS1_IKxS6_EEEJEEvPT_DpOT0_, symObjAddr: 0x532C, symBinAddr: 0x100005B14, symSize: 0x50 }
  - { offset: 0x2855E, size: 0x8, addend: 0x0, symName: __ZNSt13unordered_mapIxSt4pairIiSt6vectorIS0_IiiESaIS2_EEE11custom_hashSt8equal_toIxESaIS0_IKxS5_EEEC1Ev, symObjAddr: 0x530C, symBinAddr: 0x100005AF4, symSize: 0x20 }
  - { offset: 0x2859E, size: 0x8, addend: 0x0, symName: __ZNSt10_HashtableIxSt4pairIKxS0_IiSt6vectorIS0_IiiESaIS3_EEEESaIS7_ENSt8__detail10_Select1stESt8equal_toIxE11custom_hashNS9_18_Mod_range_hashingENS9_20_Default_ranged_hashENS9_20_Prime_rehash_policyENS9_17_Hashtable_traitsILb1ELb0ELb1EEEEC1Ev, symObjAddr: 0x529C, symBinAddr: 0x100005A84, symSize: 0x70 }
  - { offset: 0x285EC, size: 0x8, addend: 0x0, symName: __ZNSt8__detail16_Hashtable_allocISaINS_10_Hash_nodeISt4pairIKxS2_IiSt6vectorIS2_IiiESaIS5_EEEELb1EEEEED2Ev, symObjAddr: 0x527C, symBinAddr: 0x100005A64, symSize: 0x20 }
  - { offset: 0x2862C, size: 0x8, addend: 0x0, symName: __ZNSt8__detail16_Hashtable_allocISaINS_10_Hash_nodeISt4pairIKxS2_IiSt6vectorIS2_IiiESaIS5_EEEELb1EEEEEC2Ev, symObjAddr: 0x525C, symBinAddr: 0x100005A44, symSize: 0x20 }
  - { offset: 0x2867A, size: 0x8, addend: 0x0, symName: __ZNSt8__detail21_Hashtable_ebo_helperILi0ESaINS_10_Hash_nodeISt4pairIKxS2_IiSt6vectorIS2_IiiESaIS5_EEEELb1EEEELb1EED2Ev, symObjAddr: 0x5230, symBinAddr: 0x100005A18, symSize: 0x2C }
  - { offset: 0x286DE, size: 0x8, addend: 0x0, symName: __ZNSt8__detail15_Hashtable_baseIxSt4pairIKxS1_IiSt6vectorIS1_IiiESaIS4_EEEENS_10_Select1stESt8equal_toIxE11custom_hashNS_18_Mod_range_hashingENS_20_Default_ranged_hashENS_17_Hashtable_traitsILb1ELb0ELb1EEEEC2Ev, symObjAddr: 0x5208, symBinAddr: 0x1000059F0, symSize: 0x28 }
  - { offset: 0x2871E, size: 0x8, addend: 0x0, symName: __ZNSt8__detail15_Hash_code_baseIxSt4pairIKxS1_IiSt6vectorIS1_IiiESaIS4_EEEENS_10_Select1stE11custom_hashNS_18_Mod_range_hashingENS_20_Default_ranged_hashELb1EEC2Ev, symObjAddr: 0x51E8, symBinAddr: 0x1000059D0, symSize: 0x20 }
  - { offset: 0x28744, size: 0x8, addend: 0x0, symName: __ZNSt15__new_allocatorISt13unordered_mapIxSt4pairIiSt6vectorIS1_IiiESaIS3_EEE11custom_hashSt8equal_toIxESaIS1_IKxS6_EEEE8allocateEmPKv, symObjAddr: 0x5150, symBinAddr: 0x100005938, symSize: 0x98 }
  - { offset: 0x287CC, size: 0x8, addend: 0x0, symName: __ZSt10_ConstructISt4pairIiiEJEEvPT_DpOT0_, symObjAddr: 0x5124, symBinAddr: 0x10000590C, symSize: 0x2C }
  - { offset: 0x28808, size: 0x8, addend: 0x0, symName: __ZSt11__addressofISt4pairIiiEEPT_RS2_, symObjAddr: 0x5110, symBinAddr: 0x1000058F8, symSize: 0x14 }
  - { offset: 0x2883E, size: 0x8, addend: 0x0, symName: __ZNSt15__new_allocatorISt4pairIiiEE8allocateEmPKv, symObjAddr: 0x5094, symBinAddr: 0x10000587C, symSize: 0x7C }
  - { offset: 0x288C6, size: 0x8, addend: 0x0, symName: __ZSt6fill_nIPxmxET_S1_T0_RKT1_, symObjAddr: 0x504C, symBinAddr: 0x100005834, symSize: 0x48 }
  - { offset: 0x2894E, size: 0x8, addend: 0x0, symName: __ZSt10_ConstructIxJEEvPT_DpOT0_, symObjAddr: 0x5020, symBinAddr: 0x100005808, symSize: 0x2C }
  - { offset: 0x2898A, size: 0x8, addend: 0x0, symName: __ZSt11__addressofIxEPT_RS0_, symObjAddr: 0x500C, symBinAddr: 0x1000057F4, symSize: 0x14 }
  - { offset: 0x289C0, size: 0x8, addend: 0x0, symName: __ZNSt15__new_allocatorIxE8allocateEmPKv, symObjAddr: 0x4F90, symBinAddr: 0x100005778, symSize: 0x7C }
  - { offset: 0x28A4C, size: 0x8, addend: 0x0, symName: __ZNSt10_HashtableIxSt4pairIKxS0_IiSt6vectorIS0_IiiESaIS3_EEEESaIS7_ENSt8__detail10_Select1stESt8equal_toIxE11custom_hashNS9_18_Mod_range_hashingENS9_20_Default_ranged_hashENS9_20_Prime_rehash_policyENS9_17_Hashtable_traitsILb1ELb0ELb1EEEE21_M_deallocate_bucketsEPPNS9_15_Hash_node_baseEm, symObjAddr: 0x4F44, symBinAddr: 0x10000572C, symSize: 0x4C }
  - { offset: 0x28A98, size: 0x8, addend: 0x0, symName: __ZNSt8__detail16_Hashtable_allocISaINS_10_Hash_nodeISt4pairIKxS2_IiSt6vectorIS2_IiiESaIS5_EEEELb1EEEEE19_M_allocate_bucketsEm, symObjAddr: 0x4E94, symBinAddr: 0x10000567C, symSize: 0xB0 }
  - { offset: 0x28BBB, size: 0x8, addend: 0x0, symName: __ZNSt19__ptr_traits_ptr_toIPNSt8__detail10_Hash_nodeISt4pairIKxS2_IiSt6vectorIS2_IiiESaIS5_EEEELb1EEESA_Lb0EE10pointer_toERSA_, symObjAddr: 0x4E78, symBinAddr: 0x100005660, symSize: 0x1C }
  - { offset: 0x28C3C, size: 0x8, addend: 0x0, symName: __ZNSt4pairIKxS_IiSt6vectorIS_IiiESaIS2_EEEED1Ev, symObjAddr: 0x4E54, symBinAddr: 0x10000563C, symSize: 0x24 }
  - { offset: 0x28C8A, size: 0x8, addend: 0x0, symName: __ZNSt4pairIiSt6vectorIS_IiiESaIS1_EEED1Ev, symObjAddr: 0x4E30, symBinAddr: 0x100005618, symSize: 0x24 }
  - { offset: 0x28CB0, size: 0x8, addend: 0x0, symName: __ZNSt15__new_allocatorINSt8__detail10_Hash_nodeISt4pairIKxS2_IiSt6vectorIS2_IiiESaIS5_EEEELb1EEEE10deallocateEPSA_m, symObjAddr: 0x4DF4, symBinAddr: 0x1000055DC, symSize: 0x3C }
  - { offset: 0x28D7D, size: 0x8, addend: 0x0, symName: __ZNSt5tupleIJRKxEEC1EOS2_, symObjAddr: 0x4DCC, symBinAddr: 0x1000055B4, symSize: 0x28 }
  - { offset: 0x28DAC, size: 0x8, addend: 0x0, symName: __ZNSt15__new_allocatorINSt8__detail10_Hash_nodeISt4pairIKxS2_IiSt6vectorIS2_IiiESaIS5_EEEELb1EEEE8allocateEmPKv, symObjAddr: 0x4D34, symBinAddr: 0x10000551C, symSize: 0x98 }
  - { offset: 0x28E38, size: 0x8, addend: 0x0, symName: __ZNSt8__detail21_Hashtable_ebo_helperILi0ESaINS_10_Hash_nodeISt4pairIKxS2_IiSt6vectorIS2_IiiESaIS5_EEEELb1EEEELb1EE6_M_getEv, symObjAddr: 0x4D20, symBinAddr: 0x100005508, symSize: 0x14 }
  - { offset: 0x28E66, size: 0x8, addend: 0x0, symName: __ZN9__gnu_cxx16__aligned_bufferISt4pairIKxS1_IiSt6vectorIS1_IiiESaIS4_EEEEE7_M_addrEv, symObjAddr: 0x4D0C, symBinAddr: 0x1000054F4, symSize: 0x14 }
  - { offset: 0x28E8C, size: 0x8, addend: 0x0, symName: __ZNSt8__detail15_Hashtable_baseIxSt4pairIKxS1_IiSt6vectorIS1_IiiESaIS4_EEEENS_10_Select1stESt8equal_toIxE11custom_hashNS_18_Mod_range_hashingENS_20_Default_ranged_hashENS_17_Hashtable_traitsILb1ELb0ELb1EEEE9_S_equalsEmRKNS_21_Hash_node_code_cacheILb1EEE, symObjAddr: 0x4CE0, symBinAddr: 0x1000054C8, symSize: 0x2C }
  - { offset: 0x28ECB, size: 0x8, addend: 0x0, symName: __ZNK9__gnu_cxx16__aligned_bufferISt4pairIKxS1_IiSt6vectorIS1_IiiESaIS4_EEEEE6_M_ptrEv, symObjAddr: 0x4CC4, symBinAddr: 0x1000054AC, symSize: 0x1C }
  - { offset: 0x28EF5, size: 0x8, addend: 0x0, symName: __ZNKSt8__detail21_Hashtable_ebo_helperILi0ESt8equal_toIxELb1EE7_M_cgetEv, symObjAddr: 0x4CB0, symBinAddr: 0x100005498, symSize: 0x14 }
  - { offset: 0x28F1F, size: 0x8, addend: 0x0, symName: __ZNSt15__new_allocatorIPNSt8__detail15_Hash_node_baseEE10deallocateEPS2_m, symObjAddr: 0x4C80, symBinAddr: 0x100005468, symSize: 0x30 }
  - { offset: 0x28F8D, size: 0x8, addend: 0x0, symName: __ZNSt15__new_allocatorIPNSt8__detail15_Hash_node_baseEED2Ev, symObjAddr: 0x4C6C, symBinAddr: 0x100005454, symSize: 0x14 }
  - { offset: 0x28FC5, size: 0x8, addend: 0x0, symName: __ZSt9addressofIPNSt8__detail15_Hash_node_baseEEPT_RS3_, symObjAddr: 0x4C50, symBinAddr: 0x100005438, symSize: 0x1C }
  - { offset: 0x29029, size: 0x8, addend: 0x0, symName: __ZNSt19__ptr_traits_ptr_toIPNSt8__detail10_Hash_nodeISt4pairIKxiELb1EEES5_Lb0EE10pointer_toERS5_, symObjAddr: 0x4C34, symBinAddr: 0x10000541C, symSize: 0x1C }
  - { offset: 0x29082, size: 0x8, addend: 0x0, symName: __ZN9__gnu_cxx16__aligned_bufferISt4pairIKxiEE6_M_ptrEv, symObjAddr: 0x4C18, symBinAddr: 0x100005400, symSize: 0x1C }
  - { offset: 0x290AC, size: 0x8, addend: 0x0, symName: __ZNSt8__detail21_Hashtable_ebo_helperILi0ESaINS_10_Hash_nodeISt4pairIKxiELb1EEEELb1EE6_M_getEv, symObjAddr: 0x4C04, symBinAddr: 0x1000053EC, symSize: 0x14 }
  - { offset: 0x290D2, size: 0x8, addend: 0x0, symName: __ZSt12__relocate_aIPSt4pairIiiES2_SaIS1_EET0_T_S5_S4_RT1_, symObjAddr: 0x4BA8, symBinAddr: 0x100005390, symSize: 0x5C }
  - { offset: 0x2914E, size: 0x8, addend: 0x0, symName: __ZNK9__gnu_cxx17__normal_iteratorIPSt4pairIiiESt6vectorIS2_SaIS2_EEE4baseEv, symObjAddr: 0x4B94, symBinAddr: 0x10000537C, symSize: 0x14 }
  - { offset: 0x291A0, size: 0x8, addend: 0x0, symName: __ZN9__gnu_cxx17__normal_iteratorIPSt4pairIiiESt6vectorIS2_SaIS2_EEEC1ERKS3_, symObjAddr: 0x4B6C, symBinAddr: 0x100005354, symSize: 0x28 }
  - { offset: 0x291CF, size: 0x8, addend: 0x0, symName: __ZNKSt6vectorISt4pairIiiESaIS1_EE8max_sizeEv, symObjAddr: 0x4B4C, symBinAddr: 0x100005334, symSize: 0x20 }
  - { offset: 0x291F5, size: 0x8, addend: 0x0, symName: __ZNSt22__uninitialized_fill_nILb1EE15__uninit_fill_nIPimiEET_S3_T0_RKT1_, symObjAddr: 0x4B20, symBinAddr: 0x100005308, symSize: 0x2C }
  - { offset: 0x29296, size: 0x8, addend: 0x0, symName: __ZSt8_DestroyISt13unordered_mapIxSt4pairIiSt6vectorIS1_IiiESaIS3_EEE11custom_hashSt8equal_toIxESaIS1_IKxS6_EEEEvPT_, symObjAddr: 0x4B00, symBinAddr: 0x1000052E8, symSize: 0x20 }
  - { offset: 0x292F3, size: 0x8, addend: 0x0, symName: __ZNSt13unordered_mapIxSt4pairIiSt6vectorIS0_IiiESaIS2_EEE11custom_hashSt8equal_toIxESaIS0_IKxS5_EEED1Ev, symObjAddr: 0x4AE0, symBinAddr: 0x1000052C8, symSize: 0x20 }
  - { offset: 0x29315, size: 0x8, addend: 0x0, symName: __ZSt11__addressofISt13unordered_mapIxSt4pairIiSt6vectorIS1_IiiESaIS3_EEE11custom_hashSt8equal_toIxESaIS1_IKxS6_EEEEPT_RSE_, symObjAddr: 0x4ACC, symBinAddr: 0x1000052B4, symSize: 0x14 }
  - { offset: 0x29347, size: 0x8, addend: 0x0, symName: __ZNSt27__uninitialized_default_n_1ILb0EE18__uninit_default_nIPSt13unordered_mapIxSt4pairIiSt6vectorIS3_IiiESaIS5_EEE11custom_hashSt8equal_toIxESaIS3_IKxS8_EEEmEET_SH_T0_, symObjAddr: 0x4A74, symBinAddr: 0x10000525C, symSize: 0x58 }
  - { offset: 0x293DF, size: 0x8, addend: 0x0, symName: __ZNSt27__uninitialized_default_n_1ILb0EE18__uninit_default_nIPSt4pairIiiEmEET_S5_T0_, symObjAddr: 0x49EC, symBinAddr: 0x1000051D4, symSize: 0x88 }
  - { offset: 0x29477, size: 0x8, addend: 0x0, symName: __ZNSt27__uninitialized_default_n_1ILb1EE18__uninit_default_nIPxmEET_S3_T0_, symObjAddr: 0x4988, symBinAddr: 0x100005170, symSize: 0x64 }
  - { offset: 0x2952C, size: 0x8, addend: 0x0, symName: __ZNSt10_HashtableIxSt4pairIKxS0_IiSt6vectorIS0_IiiESaIS3_EEEESaIS7_ENSt8__detail10_Select1stESt8equal_toIxE11custom_hashNS9_18_Mod_range_hashingENS9_20_Default_ranged_hashENS9_20_Prime_rehash_policyENS9_17_Hashtable_traitsILb1ELb0ELb1EEEE21_M_deallocate_bucketsEv, symObjAddr: 0x4954, symBinAddr: 0x10000513C, symSize: 0x34 }
  - { offset: 0x29556, size: 0x8, addend: 0x0, symName: __ZNKSt8__detail15_Hash_code_baseIxSt4pairIKxS1_IiSt6vectorIS1_IiiESaIS4_EEEENS_10_Select1stE11custom_hashNS_18_Mod_range_hashingENS_20_Default_ranged_hashELb1EE15_M_bucket_indexERKNS_16_Hash_node_valueIS8_Lb1EEEm, symObjAddr: 0x4924, symBinAddr: 0x10000510C, symSize: 0x30 }
  - { offset: 0x295A2, size: 0x8, addend: 0x0, symName: __ZNSt10_HashtableIxSt4pairIKxS0_IiSt6vectorIS0_IiiESaIS3_EEEESaIS7_ENSt8__detail10_Select1stESt8equal_toIxE11custom_hashNS9_18_Mod_range_hashingENS9_20_Default_ranged_hashENS9_20_Prime_rehash_policyENS9_17_Hashtable_traitsILb1ELb0ELb1EEEE19_M_allocate_bucketsEm, symObjAddr: 0x48CC, symBinAddr: 0x1000050B4, symSize: 0x58 }
  - { offset: 0x295D9, size: 0x8, addend: 0x0, symName: __ZSt11__addressofINSt8__detail20_Prime_rehash_policyEEPT_RS2_, symObjAddr: 0x48B8, symBinAddr: 0x1000050A0, symSize: 0x14 }
  - { offset: 0x2960F, size: 0x8, addend: 0x0, symName: __ZNSt8__detail16_Hashtable_allocISaINS_10_Hash_nodeISt4pairIKxS2_IiSt6vectorIS2_IiiESaIS5_EEEELb1EEEEE22_M_deallocate_node_ptrEPSA_, symObjAddr: 0x4860, symBinAddr: 0x100005048, symSize: 0x58 }
  - { offset: 0x29744, size: 0x8, addend: 0x0, symName: __ZSt12__to_addressINSt8__detail10_Hash_nodeISt4pairIKxS2_IiSt6vectorIS2_IiiESaIS5_EEEELb1EEEEPT_SC_, symObjAddr: 0x484C, symBinAddr: 0x100005034, symSize: 0x14 }
  - { offset: 0x2979E, size: 0x8, addend: 0x0, symName: __ZNSt8__detail16_Hashtable_allocISaINS_10_Hash_nodeISt4pairIKxS2_IiSt6vectorIS2_IiiESaIS5_EEEELb1EEEEE17_M_node_allocatorEv, symObjAddr: 0x4830, symBinAddr: 0x100005018, symSize: 0x1C }
  - { offset: 0x297EF, size: 0x8, addend: 0x0, symName: __ZNSt10_Head_baseILm0ERKxLb0EEC2ES1_, symObjAddr: 0x480C, symBinAddr: 0x100004FF4, symSize: 0x24 }
  - { offset: 0x2981E, size: 0x8, addend: 0x0, symName: __ZN9__gnu_cxx16__aligned_bufferISt4pairIKxS1_IiSt6vectorIS1_IiiESaIS4_EEEEE6_M_ptrEv, symObjAddr: 0x47F0, symBinAddr: 0x100004FD8, symSize: 0x1C }
  - { offset: 0x29848, size: 0x8, addend: 0x0, symName: __ZNKSt10_HashtableIxSt4pairIKxS0_IiSt6vectorIS0_IiiESaIS3_EEEESaIS7_ENSt8__detail10_Select1stESt8equal_toIxE11custom_hashNS9_18_Mod_range_hashingENS9_20_Default_ranged_hashENS9_20_Prime_rehash_policyENS9_17_Hashtable_traitsILb1ELb0ELb1EEEE15_M_bucket_indexERKNS9_16_Hash_node_valueIS7_Lb1EEE, symObjAddr: 0x47C0, symBinAddr: 0x100004FA8, symSize: 0x30 }
  - { offset: 0x29883, size: 0x8, addend: 0x0, symName: __ZNKSt8__detail15_Hashtable_baseIxSt4pairIKxS1_IiSt6vectorIS1_IiiESaIS4_EEEENS_10_Select1stESt8equal_toIxE11custom_hashNS_18_Mod_range_hashingENS_20_Default_ranged_hashENS_17_Hashtable_traitsILb1ELb0ELb1EEEE9_M_equalsERS2_mRKNS_16_Hash_node_valueIS8_Lb1EEE, symObjAddr: 0x4758, symBinAddr: 0x100004F40, symSize: 0x68 }
  - { offset: 0x298E0, size: 0x8, addend: 0x0, symName: __ZNKSt8__detail21_Hashtable_ebo_helperILi1E11custom_hashLb1EE7_M_cgetEv, symObjAddr: 0x4744, symBinAddr: 0x100004F2C, symSize: 0x14 }
  - { offset: 0x2990D, size: 0x8, addend: 0x0, symName: __ZSt7forwardIRKSt4pairIKxS0_IiSt6vectorIS0_IiiESaIS3_EEEEEOT_RNSt16remove_referenceISA_E4typeE, symObjAddr: 0x4730, symBinAddr: 0x100004F18, symSize: 0x14 }
  - { offset: 0x29981, size: 0x8, addend: 0x0, symName: __ZNSt8__detail19_Node_iterator_baseISt4pairIKxS1_IiSt6vectorIS1_IiiESaIS4_EEEELb1EEC2EPNS_10_Hash_nodeIS8_Lb1EEE, symObjAddr: 0x470C, symBinAddr: 0x100004EF4, symSize: 0x24 }
  - { offset: 0x299B0, size: 0x8, addend: 0x0, symName: __ZNKSt8equal_toIxEclERKxS2_, symObjAddr: 0x46D8, symBinAddr: 0x100004EC0, symSize: 0x34 }
  - { offset: 0x299FC, size: 0x8, addend: 0x0, symName: __ZNKSt8__detail15_Hashtable_baseIxSt4pairIKxS1_IiSt6vectorIS1_IiiESaIS4_EEEENS_10_Select1stESt8equal_toIxE11custom_hashNS_18_Mod_range_hashingENS_20_Default_ranged_hashENS_17_Hashtable_traitsILb1ELb0ELb1EEEE5_M_eqEv, symObjAddr: 0x46BC, symBinAddr: 0x100004EA4, symSize: 0x1C }
  - { offset: 0x29A22, size: 0x8, addend: 0x0, symName: __ZNSt8__detail22_Hashtable_hash_traitsI11custom_hashE22__small_size_thresholdEv, symObjAddr: 0x46B4, symBinAddr: 0x100004E9C, symSize: 0x8 }
  - { offset: 0x29AB0, size: 0x8, addend: 0x0, symName: __ZNSt19__ptr_traits_ptr_toIPPNSt8__detail15_Hash_node_baseES2_Lb0EE10pointer_toERS2_, symObjAddr: 0x4698, symBinAddr: 0x100004E80, symSize: 0x1C }
  - { offset: 0x29ADD, size: 0x8, addend: 0x0, symName: __ZNSt8__detail16_Hashtable_allocISaINS_10_Hash_nodeISt4pairIKxiELb1EEEEE22_M_deallocate_node_ptrEPS5_, symObjAddr: 0x4640, symBinAddr: 0x100004E28, symSize: 0x58 }
  - { offset: 0x29BA2, size: 0x8, addend: 0x0, symName: __ZNSt8__detail16_Hashtable_allocISaINS_10_Hash_nodeISt4pairIKxiELb1EEEEE17_M_node_allocatorEv, symObjAddr: 0x4624, symBinAddr: 0x100004E0C, symSize: 0x1C }
  - { offset: 0x29BCF, size: 0x8, addend: 0x0, symName: __ZSt4moveIRSaIiEEONSt16remove_referenceIT_E4typeEOS3_, symObjAddr: 0x4610, symBinAddr: 0x100004DF8, symSize: 0x14 }
  - { offset: 0x29C05, size: 0x8, addend: 0x0, symName: __ZNSt12_Vector_baseIiSaIiEE17_Vector_impl_data12_M_copy_dataERKS2_, symObjAddr: 0x45C8, symBinAddr: 0x100004DB0, symSize: 0x48 }
  - { offset: 0x29C67, size: 0x8, addend: 0x0, symName: __ZNSt12_Vector_baseIiSaIiEEC2ERKS0_, symObjAddr: 0x45A0, symBinAddr: 0x100004D88, symSize: 0x28 }
  - { offset: 0x29C96, size: 0x8, addend: 0x0, symName: __ZNKSt12_Vector_baseIiSaIiEE19_M_get_Tp_allocatorEv, symObjAddr: 0x458C, symBinAddr: 0x100004D74, symSize: 0x14 }
  - { offset: 0x29CC3, size: 0x8, addend: 0x0, symName: __ZSt4moveIRSaISt4pairIiiEEEONSt16remove_referenceIT_E4typeEOS5_, symObjAddr: 0x4578, symBinAddr: 0x100004D60, symSize: 0x14 }
  - { offset: 0x29CF9, size: 0x8, addend: 0x0, symName: __ZNSt12_Vector_baseISt4pairIiiESaIS1_EE17_Vector_impl_data12_M_copy_dataERKS4_, symObjAddr: 0x4530, symBinAddr: 0x100004D18, symSize: 0x48 }
  - { offset: 0x29D5B, size: 0x8, addend: 0x0, symName: __ZNSt12_Vector_baseISt4pairIiiESaIS1_EEC2ERKS2_, symObjAddr: 0x4508, symBinAddr: 0x100004CF0, symSize: 0x28 }
  - { offset: 0x29D8A, size: 0x8, addend: 0x0, symName: __ZNKSt12_Vector_baseISt4pairIiiESaIS1_EE19_M_get_Tp_allocatorEv, symObjAddr: 0x44F4, symBinAddr: 0x100004CDC, symSize: 0x14 }
  - { offset: 0x29DB7, size: 0x8, addend: 0x0, symName: __ZSt4moveIRSaIxEEONSt16remove_referenceIT_E4typeEOS3_, symObjAddr: 0x44E0, symBinAddr: 0x100004CC8, symSize: 0x14 }
  - { offset: 0x29DED, size: 0x8, addend: 0x0, symName: __ZNSt12_Vector_baseIxSaIxEE17_Vector_impl_data12_M_copy_dataERKS2_, symObjAddr: 0x4498, symBinAddr: 0x100004C80, symSize: 0x48 }
  - { offset: 0x29E4F, size: 0x8, addend: 0x0, symName: __ZNSt12_Vector_baseIxSaIxEEC2ERKS0_, symObjAddr: 0x4470, symBinAddr: 0x100004C58, symSize: 0x28 }
  - { offset: 0x29E7E, size: 0x8, addend: 0x0, symName: __ZNKSt12_Vector_baseIxSaIxEE19_M_get_Tp_allocatorEv, symObjAddr: 0x445C, symBinAddr: 0x100004C44, symSize: 0x14 }
  - { offset: 0x29EAB, size: 0x8, addend: 0x0, symName: __ZSt4moveIRSaISt13unordered_mapIxSt4pairIiSt6vectorIS1_IiiESaIS3_EEE11custom_hashSt8equal_toIxESaIS1_IKxS6_EEEEEONSt16remove_referenceIT_E4typeEOSH_, symObjAddr: 0x4448, symBinAddr: 0x100004C30, symSize: 0x14 }
  - { offset: 0x29EE1, size: 0x8, addend: 0x0, symName: __ZNSt12_Vector_baseISt13unordered_mapIxSt4pairIiSt6vectorIS1_IiiESaIS3_EEE11custom_hashSt8equal_toIxESaIS1_IKxS6_EEESaISD_EE17_Vector_impl_data12_M_copy_dataERKSG_, symObjAddr: 0x4400, symBinAddr: 0x100004BE8, symSize: 0x48 }
  - { offset: 0x29F43, size: 0x8, addend: 0x0, symName: __ZNSt12_Vector_baseISt13unordered_mapIxSt4pairIiSt6vectorIS1_IiiESaIS3_EEE11custom_hashSt8equal_toIxESaIS1_IKxS6_EEESaISD_EEC2ERKSE_, symObjAddr: 0x43D8, symBinAddr: 0x100004BC0, symSize: 0x28 }
  - { offset: 0x29F72, size: 0x8, addend: 0x0, symName: __ZNKSt12_Vector_baseISt13unordered_mapIxSt4pairIiSt6vectorIS1_IiiESaIS3_EEE11custom_hashSt8equal_toIxESaIS1_IKxS6_EEESaISD_EE19_M_get_Tp_allocatorEv, symObjAddr: 0x43C4, symBinAddr: 0x100004BAC, symSize: 0x14 }
  - { offset: 0x29F9C, size: 0x8, addend: 0x0, symName: __ZNK9__gnu_cxx17__normal_iteratorIPSt4pairIiiESt6vectorIS2_SaIS2_EEEdeEv, symObjAddr: 0x43AC, symBinAddr: 0x100004B94, symSize: 0x18 }
  - { offset: 0x29FC6, size: 0x8, addend: 0x0, symName: __ZNK9__gnu_cxx17__normal_iteratorIPSt4pairIiiESt6vectorIS2_SaIS2_EEEmiEl, symObjAddr: 0x4368, symBinAddr: 0x100004B50, symSize: 0x44 }
  - { offset: 0x29FFD, size: 0x8, addend: 0x0, symName: __ZNSt6vectorISt4pairIiiESaIS1_EE11_S_relocateEPS1_S4_S4_RS2_, symObjAddr: 0x4334, symBinAddr: 0x100004B1C, symSize: 0x34 }
  - { offset: 0x2A05A, size: 0x8, addend: 0x0, symName: __ZSt12__to_addressISt4pairIiiEEPT_S3_, symObjAddr: 0x4320, symBinAddr: 0x100004B08, symSize: 0x14 }
  - { offset: 0x2A093, size: 0x8, addend: 0x0, symName: __ZN9__gnu_cxxmiIPSt4pairIiiESt6vectorIS2_SaIS2_EEEENS_17__normal_iteratorIT_T0_E15difference_typeERKSA_SD_, symObjAddr: 0x42E0, symBinAddr: 0x100004AC8, symSize: 0x40 }
  - { offset: 0x2A0E4, size: 0x8, addend: 0x0, symName: __ZNSt6vectorISt4pairIiiESaIS1_EE5beginEv, symObjAddr: 0x42BC, symBinAddr: 0x100004AA4, symSize: 0x24 }
  - { offset: 0x2A10E, size: 0x8, addend: 0x0, symName: __ZNSt6vectorISt4pairIiiESaIS1_EE3endEv, symObjAddr: 0x4294, symBinAddr: 0x100004A7C, symSize: 0x28 }
  - { offset: 0x2A138, size: 0x8, addend: 0x0, symName: __ZNKSt6vectorISt4pairIiiESaIS1_EE12_M_check_lenEmPKc, symObjAddr: 0x41C4, symBinAddr: 0x1000049AC, symSize: 0xD0 }
  - { offset: 0x2A1D3, size: 0x8, addend: 0x0, symName: __ZNSt12_Destroy_auxILb1EE9__destroyIPiEEvT_S3_, symObjAddr: 0x41AC, symBinAddr: 0x100004994, symSize: 0x18 }
  - { offset: 0x2A207, size: 0x8, addend: 0x0, symName: __ZSt20uninitialized_fill_nIPimiET_S1_T0_RKT1_, symObjAddr: 0x4178, symBinAddr: 0x100004960, symSize: 0x34 }
  - { offset: 0x2A283, size: 0x8, addend: 0x0, symName: __ZNSt12_Vector_baseIiSaIiEE11_M_allocateEm, symObjAddr: 0x4128, symBinAddr: 0x100004910, symSize: 0x50 }
  - { offset: 0x2A318, size: 0x8, addend: 0x0, symName: __ZNSt12_Destroy_auxILb0EE9__destroyIPSt13unordered_mapIxSt4pairIiSt6vectorIS3_IiiESaIS5_EEE11custom_hashSt8equal_toIxESaIS3_IKxS8_EEEEEvT_SH_, symObjAddr: 0x40DC, symBinAddr: 0x1000048C4, symSize: 0x4C }
  - { offset: 0x2A35A, size: 0x8, addend: 0x0, symName: __ZSt25__uninitialized_default_nIPSt13unordered_mapIxSt4pairIiSt6vectorIS1_IiiESaIS3_EEE11custom_hashSt8equal_toIxESaIS1_IKxS6_EEEmET_SF_T0_, symObjAddr: 0x40B0, symBinAddr: 0x100004898, symSize: 0x2C }
  - { offset: 0x2A3BC, size: 0x8, addend: 0x0, symName: __ZNSt12_Vector_baseISt13unordered_mapIxSt4pairIiSt6vectorIS1_IiiESaIS3_EEE11custom_hashSt8equal_toIxESaIS1_IKxS6_EEESaISD_EE11_M_allocateEm, symObjAddr: 0x4060, symBinAddr: 0x100004848, symSize: 0x50 }
  - { offset: 0x2A451, size: 0x8, addend: 0x0, symName: __ZNSt12_Destroy_auxILb1EE9__destroyIPSt4pairIiiEEEvT_S5_, symObjAddr: 0x4048, symBinAddr: 0x100004830, symSize: 0x18 }
  - { offset: 0x2A485, size: 0x8, addend: 0x0, symName: __ZSt25__uninitialized_default_nIPSt4pairIiiEmET_S3_T0_, symObjAddr: 0x401C, symBinAddr: 0x100004804, symSize: 0x2C }
  - { offset: 0x2A4E7, size: 0x8, addend: 0x0, symName: __ZNSt12_Vector_baseISt4pairIiiESaIS1_EE11_M_allocateEm, symObjAddr: 0x3FCC, symBinAddr: 0x1000047B4, symSize: 0x50 }
  - { offset: 0x2A57C, size: 0x8, addend: 0x0, symName: __ZNSt12_Destroy_auxILb1EE9__destroyIPxEEvT_S3_, symObjAddr: 0x3FB4, symBinAddr: 0x10000479C, symSize: 0x18 }
  - { offset: 0x2A5B0, size: 0x8, addend: 0x0, symName: __ZSt25__uninitialized_default_nIPxmET_S1_T0_, symObjAddr: 0x3F88, symBinAddr: 0x100004770, symSize: 0x2C }
  - { offset: 0x2A612, size: 0x8, addend: 0x0, symName: __ZNSt12_Vector_baseIxSaIxEE11_M_allocateEm, symObjAddr: 0x3F38, symBinAddr: 0x100004720, symSize: 0x50 }
  - { offset: 0x2A6D3, size: 0x8, addend: 0x0, symName: __ZNSt8__detail14_Node_iteratorISt4pairIKxS1_IiSt6vectorIS1_IiiESaIS4_EEEELb0ELb1EEC1EPNS_10_Hash_nodeIS8_Lb1EEE, symObjAddr: 0x3F10, symBinAddr: 0x1000046F8, symSize: 0x28 }
  - { offset: 0x2A702, size: 0x8, addend: 0x0, symName: __ZNSt10_HashtableIxSt4pairIKxS0_IiSt6vectorIS0_IiiESaIS3_EEEESaIS7_ENSt8__detail10_Select1stESt8equal_toIxE11custom_hashNS9_18_Mod_range_hashingENS9_20_Default_ranged_hashENS9_20_Prime_rehash_policyENS9_17_Hashtable_traitsILb1ELb0ELb1EEEE22_M_insert_bucket_beginEmPNS9_10_Hash_nodeIS7_Lb1EEE, symObjAddr: 0x3E04, symBinAddr: 0x1000045EC, symSize: 0x10C }
  - { offset: 0x2A74E, size: 0x8, addend: 0x0, symName: __ZNKSt8__detail15_Hash_code_baseIxSt4pairIKxS1_IiSt6vectorIS1_IiiESaIS4_EEEENS_10_Select1stE11custom_hashNS_18_Mod_range_hashingENS_20_Default_ranged_hashELb1EE13_M_store_codeERNS_21_Hash_node_code_cacheILb1EEEm, symObjAddr: 0x3DDC, symBinAddr: 0x1000045C4, symSize: 0x28 }
  - { offset: 0x2A79A, size: 0x8, addend: 0x0, symName: __ZNSt10_HashtableIxSt4pairIKxS0_IiSt6vectorIS0_IiiESaIS3_EEEESaIS7_ENSt8__detail10_Select1stESt8equal_toIxE11custom_hashNS9_18_Mod_range_hashingENS9_20_Default_ranged_hashENS9_20_Prime_rehash_policyENS9_17_Hashtable_traitsILb1ELb0ELb1EEEE9_M_rehashEmSt17integral_constantIbLb1EE, symObjAddr: 0x3C70, symBinAddr: 0x100004458, symSize: 0x16C }
  - { offset: 0x2A86B, size: 0x8, addend: 0x0, symName: __ZNSt8__detail17_RehashStateGuardINS_20_Prime_rehash_policyEED1Ev, symObjAddr: 0x3C2C, symBinAddr: 0x100004414, symSize: 0x44 }
  - { offset: 0x2A8B9, size: 0x8, addend: 0x0, symName: __ZNSt8__detail17_RehashStateGuardINS_20_Prime_rehash_policyEEC1ERS1_, symObjAddr: 0x3BE8, symBinAddr: 0x1000043D0, symSize: 0x44 }
  - { offset: 0x2A8E8, size: 0x8, addend: 0x0, symName: __ZNSt8__detail16_Hashtable_allocISaINS_10_Hash_nodeISt4pairIKxS2_IiSt6vectorIS2_IiiESaIS5_EEEELb1EEEEE18_M_deallocate_nodeEPSA_, symObjAddr: 0x3B6C, symBinAddr: 0x100004354, symSize: 0x7C }
  - { offset: 0x2A9A1, size: 0x8, addend: 0x0, symName: __ZNSt8__detail16_Hashtable_allocISaINS_10_Hash_nodeISt4pairIKxS2_IiSt6vectorIS2_IiiESaIS5_EEEELb1EEEEE16_M_allocate_nodeIJRKSt21piecewise_construct_tSt5tupleIJRS3_EESH_IJEEEEEPSA_DpOT_, symObjAddr: 0x3980, symBinAddr: 0x100004168, symSize: 0x1EC }
  - { offset: 0x2AB71, size: 0x8, addend: 0x0, symName: __ZNSt8__detail10_Hash_nodeISt4pairIKxS1_IiSt6vectorIS1_IiiESaIS4_EEEELb1EEC1Ev, symObjAddr: 0x3960, symBinAddr: 0x100004148, symSize: 0x20 }
  - { offset: 0x2AB9A, size: 0x8, addend: 0x0, symName: __ZSt7forwardISt5tupleIJEEEOT_RNSt16remove_referenceIS2_E4typeE, symObjAddr: 0x394C, symBinAddr: 0x100004134, symSize: 0x14 }
  - { offset: 0x2ABD3, size: 0x8, addend: 0x0, symName: __ZSt7forwardISt5tupleIJRKxEEEOT_RNSt16remove_referenceIS4_E4typeE, symObjAddr: 0x3938, symBinAddr: 0x100004120, symSize: 0x14 }
  - { offset: 0x2AC0C, size: 0x8, addend: 0x0, symName: __ZSt7forwardIRKSt21piecewise_construct_tEOT_RNSt16remove_referenceIS3_E4typeE, symObjAddr: 0x3924, symBinAddr: 0x10000410C, symSize: 0x14 }
  - { offset: 0x2AC6A, size: 0x8, addend: 0x0, symName: __ZNSt11_Tuple_implILm0EJRKxEEC2ES1_, symObjAddr: 0x38FC, symBinAddr: 0x1000040E4, symSize: 0x28 }
  - { offset: 0x2ACAF, size: 0x8, addend: 0x0, symName: __ZNKSt10_HashtableIxSt4pairIKxS0_IiSt6vectorIS0_IiiESaIS3_EEEESaIS7_ENSt8__detail10_Select1stESt8equal_toIxE11custom_hashNS9_18_Mod_range_hashingENS9_20_Default_ranged_hashENS9_20_Prime_rehash_policyENS9_17_Hashtable_traitsILb1ELb0ELb1EEEE19_M_find_before_nodeEmRS1_m, symObjAddr: 0x3800, symBinAddr: 0x100003FE8, symSize: 0xFC }
  - { offset: 0x2AD41, size: 0x8, addend: 0x0, symName: __ZNKSt8__detail15_Hash_code_baseIxSt4pairIKxS1_IiSt6vectorIS1_IiiESaIS4_EEEENS_10_Select1stE11custom_hashNS_18_Mod_range_hashingENS_20_Default_ranged_hashELb1EE15_M_bucket_indexEmm, symObjAddr: 0x37D4, symBinAddr: 0x100003FBC, symSize: 0x2C }
  - { offset: 0x2AD8D, size: 0x8, addend: 0x0, symName: __ZNKSt8__detail15_Hash_code_baseIxSt4pairIKxS1_IiSt6vectorIS1_IiiESaIS4_EEEENS_10_Select1stE11custom_hashNS_18_Mod_range_hashingENS_20_Default_ranged_hashELb1EE7_M_hashEv, symObjAddr: 0x37B8, symBinAddr: 0x100003FA0, symSize: 0x1C }
  - { offset: 0x2ADC2, size: 0x8, addend: 0x0, symName: __ZNKSt8__detail10_Select1stclIRKSt4pairIKxS2_IiSt6vectorIS2_IiiESaIS5_EEEEEEONS0_10__1st_typeIT_E4typeEOSD_, symObjAddr: 0x3798, symBinAddr: 0x100003F80, symSize: 0x20 }
  - { offset: 0x2AE1B, size: 0x8, addend: 0x0, symName: __ZNKSt10_HashtableIxSt4pairIKxS0_IiSt6vectorIS0_IiiESaIS3_EEEESaIS7_ENSt8__detail10_Select1stESt8equal_toIxE11custom_hashNS9_18_Mod_range_hashingENS9_20_Default_ranged_hashENS9_20_Prime_rehash_policyENS9_17_Hashtable_traitsILb1ELb0ELb1EEEE3endEv, symObjAddr: 0x3774, symBinAddr: 0x100003F5C, symSize: 0x24 }
  - { offset: 0x2AE6D, size: 0x8, addend: 0x0, symName: __ZNSt8__detail20_Node_const_iteratorISt4pairIKxS1_IiSt6vectorIS1_IiiESaIS4_EEEELb0ELb1EEC1EPNS_10_Hash_nodeIS8_Lb1EEE, symObjAddr: 0x374C, symBinAddr: 0x100003F34, symSize: 0x28 }
  - { offset: 0x2AE9C, size: 0x8, addend: 0x0, symName: __ZNKSt8__detail15_Hashtable_baseIxSt4pairIKxS1_IiSt6vectorIS1_IiiESaIS4_EEEENS_10_Select1stESt8equal_toIxE11custom_hashNS_18_Mod_range_hashingENS_20_Default_ranged_hashENS_17_Hashtable_traitsILb1ELb0ELb1EEEE13_M_key_equalsERS2_RKNS_16_Hash_node_valueIS8_Lb1EEE, symObjAddr: 0x36E0, symBinAddr: 0x100003EC8, symSize: 0x6C }
  - { offset: 0x2AF30, size: 0x8, addend: 0x0, symName: __ZNKSt8__detail10_Hash_nodeISt4pairIKxS1_IiSt6vectorIS1_IiiESaIS4_EEEELb1EE7_M_nextEv, symObjAddr: 0x36C8, symBinAddr: 0x100003EB0, symSize: 0x18 }
  - { offset: 0x2AF5A, size: 0x8, addend: 0x0, symName: __ZNKSt10_HashtableIxSt4pairIKxS0_IiSt6vectorIS0_IiiESaIS3_EEEESaIS7_ENSt8__detail10_Select1stESt8equal_toIxE11custom_hashNS9_18_Mod_range_hashingENS9_20_Default_ranged_hashENS9_20_Prime_rehash_policyENS9_17_Hashtable_traitsILb1ELb0ELb1EEEE8_M_beginEv, symObjAddr: 0x36B0, symBinAddr: 0x100003E98, symSize: 0x18 }
  - { offset: 0x2AF80, size: 0x8, addend: 0x0, symName: __ZNSt10_HashtableIxSt4pairIKxS0_IiSt6vectorIS0_IiiESaIS3_EEEESaIS7_ENSt8__detail10_Select1stESt8equal_toIxE11custom_hashNS9_18_Mod_range_hashingENS9_20_Default_ranged_hashENS9_20_Prime_rehash_policyENS9_17_Hashtable_traitsILb1ELb0ELb1EEEE22__small_size_thresholdEv, symObjAddr: 0x369C, symBinAddr: 0x100003E84, symSize: 0x14 }
  - { offset: 0x2AF9C, size: 0x8, addend: 0x0, symName: __ZNKSt10_HashtableIxSt4pairIKxS0_IiSt6vectorIS0_IiiESaIS3_EEEESaIS7_ENSt8__detail10_Select1stESt8equal_toIxE11custom_hashNS9_18_Mod_range_hashingENS9_20_Default_ranged_hashENS9_20_Prime_rehash_policyENS9_17_Hashtable_traitsILb1ELb0ELb1EEEE4sizeEv, symObjAddr: 0x3684, symBinAddr: 0x100003E6C, symSize: 0x18 }
  - { offset: 0x2AFC6, size: 0x8, addend: 0x0, symName: __ZNSt15__new_allocatorIiE10deallocateEPim, symObjAddr: 0x3654, symBinAddr: 0x100003E3C, symSize: 0x30 }
  - { offset: 0x2B010, size: 0x8, addend: 0x0, symName: __ZNSt15__new_allocatorISt13unordered_mapIxSt4pairIiSt6vectorIS1_IiiESaIS3_EEE11custom_hashSt8equal_toIxESaIS1_IKxS6_EEEE10deallocateEPSD_m, symObjAddr: 0x3618, symBinAddr: 0x100003E00, symSize: 0x3C }
  - { offset: 0x2B05A, size: 0x8, addend: 0x0, symName: __ZNSt15__new_allocatorISt4pairIiiEE10deallocateEPS1_m, symObjAddr: 0x35E8, symBinAddr: 0x100003DD0, symSize: 0x30 }
  - { offset: 0x2B0A4, size: 0x8, addend: 0x0, symName: __ZNSt15__new_allocatorIxE10deallocateEPxm, symObjAddr: 0x35B8, symBinAddr: 0x100003DA0, symSize: 0x30 }
  - { offset: 0x2B0EE, size: 0x8, addend: 0x0, symName: __ZNSt8__detail16_Hashtable_allocISaINS_10_Hash_nodeISt4pairIKxiELb1EEEEE21_M_deallocate_bucketsEPPNS_15_Hash_node_baseEm, symObjAddr: 0x3540, symBinAddr: 0x100003D28, symSize: 0x78 }
  - { offset: 0x2B1FE, size: 0x8, addend: 0x0, symName: __ZNKSt10_HashtableIxSt4pairIKxiESaIS2_ENSt8__detail10_Select1stESt8equal_toIxE11custom_hashNS4_18_Mod_range_hashingENS4_20_Default_ranged_hashENS4_20_Prime_rehash_policyENS4_17_Hashtable_traitsILb1ELb0ELb1EEEE21_M_uses_single_bucketEPPNS4_15_Hash_node_baseE, symObjAddr: 0x3504, symBinAddr: 0x100003CEC, symSize: 0x3C }
  - { offset: 0x2B239, size: 0x8, addend: 0x0, symName: __ZNSt8__detail16_Hashtable_allocISaINS_10_Hash_nodeISt4pairIKxiELb1EEEEE18_M_deallocate_nodeEPS5_, symObjAddr: 0x3490, symBinAddr: 0x100003C78, symSize: 0x74 }
  - { offset: 0x2B2F2, size: 0x8, addend: 0x0, symName: __ZNKSt8__detail10_Hash_nodeISt4pairIKxiELb1EE7_M_nextEv, symObjAddr: 0x3478, symBinAddr: 0x100003C60, symSize: 0x18 }
  - { offset: 0x2B349, size: 0x8, addend: 0x0, symName: __ZNSt12_Vector_baseIiSaIiEE17_Vector_impl_data12_M_swap_dataERS2_, symObjAddr: 0x342C, symBinAddr: 0x100003C14, symSize: 0x4C }
  - { offset: 0x2B3BB, size: 0x8, addend: 0x0, symName: __ZNSt6vectorIiSaIiEEC1ERKS0_, symObjAddr: 0x3404, symBinAddr: 0x100003BEC, symSize: 0x28 }
  - { offset: 0x2B3EA, size: 0x8, addend: 0x0, symName: __ZNKSt12_Vector_baseIiSaIiEE13get_allocatorEv, symObjAddr: 0x33B4, symBinAddr: 0x100003B9C, symSize: 0x50 }
  - { offset: 0x2B49A, size: 0x8, addend: 0x0, symName: __ZNSt12_Vector_baseISt4pairIiiESaIS1_EE17_Vector_impl_data12_M_swap_dataERS4_, symObjAddr: 0x3368, symBinAddr: 0x100003B50, symSize: 0x4C }
  - { offset: 0x2B50C, size: 0x8, addend: 0x0, symName: __ZNSt6vectorISt4pairIiiESaIS1_EEC1ERKS2_, symObjAddr: 0x3340, symBinAddr: 0x100003B28, symSize: 0x28 }
  - { offset: 0x2B53B, size: 0x8, addend: 0x0, symName: __ZNKSt12_Vector_baseISt4pairIiiESaIS1_EE13get_allocatorEv, symObjAddr: 0x32F0, symBinAddr: 0x100003AD8, symSize: 0x50 }
  - { offset: 0x2B5EB, size: 0x8, addend: 0x0, symName: __ZNSt12_Vector_baseIxSaIxEE17_Vector_impl_data12_M_swap_dataERS2_, symObjAddr: 0x32A4, symBinAddr: 0x100003A8C, symSize: 0x4C }
  - { offset: 0x2B65D, size: 0x8, addend: 0x0, symName: __ZNSt6vectorIxSaIxEEC1ERKS0_, symObjAddr: 0x327C, symBinAddr: 0x100003A64, symSize: 0x28 }
  - { offset: 0x2B68C, size: 0x8, addend: 0x0, symName: __ZNKSt12_Vector_baseIxSaIxEE13get_allocatorEv, symObjAddr: 0x322C, symBinAddr: 0x100003A14, symSize: 0x50 }
  - { offset: 0x2B73C, size: 0x8, addend: 0x0, symName: __ZNSt12_Vector_baseISt13unordered_mapIxSt4pairIiSt6vectorIS1_IiiESaIS3_EEE11custom_hashSt8equal_toIxESaIS1_IKxS6_EEESaISD_EE17_Vector_impl_data12_M_swap_dataERSG_, symObjAddr: 0x31E0, symBinAddr: 0x1000039C8, symSize: 0x4C }
  - { offset: 0x2B7AE, size: 0x8, addend: 0x0, symName: __ZNSt6vectorISt13unordered_mapIxSt4pairIiS_IS1_IiiESaIS2_EEE11custom_hashSt8equal_toIxESaIS1_IKxS5_EEESaISC_EEC1ERKSD_, symObjAddr: 0x31B8, symBinAddr: 0x1000039A0, symSize: 0x28 }
  - { offset: 0x2B7DD, size: 0x8, addend: 0x0, symName: __ZNKSt12_Vector_baseISt13unordered_mapIxSt4pairIiSt6vectorIS1_IiiESaIS3_EEE11custom_hashSt8equal_toIxESaIS1_IKxS6_EEESaISD_EE13get_allocatorEv, symObjAddr: 0x3168, symBinAddr: 0x100003950, symSize: 0x50 }
  - { offset: 0x2B860, size: 0x8, addend: 0x0, symName: __ZNSt6vectorISt4pairIiiESaIS1_EE4backEv, symObjAddr: 0x3130, symBinAddr: 0x100003918, symSize: 0x38 }
  - { offset: 0x2B88A, size: 0x8, addend: 0x0, symName: __ZNSt6vectorISt4pairIiiESaIS1_EE17_M_realloc_appendIJS1_EEEvDpOT_, symObjAddr: 0x2F74, symBinAddr: 0x10000375C, symSize: 0x1BC }
  - { offset: 0x2BA0F, size: 0x8, addend: 0x0, symName: __ZZNSt6vectorISt4pairIiiESaIS1_EE17_M_realloc_appendIJS1_EEEvDpOT_EN6_GuardC1EPS1_mRS2_, symObjAddr: 0x2ED0, symBinAddr: 0x1000036B8, symSize: 0x44 }
  - { offset: 0x2BA54, size: 0x8, addend: 0x0, symName: __ZZNSt6vectorISt4pairIiiESaIS1_EE17_M_realloc_appendIJS1_EEEvDpOT_EN6_GuardD1Ev, symObjAddr: 0x2F14, symBinAddr: 0x1000036FC, symSize: 0x60 }
  - { offset: 0x2BB8E, size: 0x8, addend: 0x0, symName: __ZSt7forwardISt4pairIiiEEOT_RNSt16remove_referenceIS2_E4typeE, symObjAddr: 0x2EBC, symBinAddr: 0x1000036A4, symSize: 0x14 }
  - { offset: 0x2BBC0, size: 0x8, addend: 0x0, symName: __ZSt8_DestroyIPiEvT_S1_, symObjAddr: 0x2E94, symBinAddr: 0x10000367C, symSize: 0x28 }
  - { offset: 0x2BC02, size: 0x8, addend: 0x0, symName: __ZSt24__uninitialized_fill_n_aIPimiiET_S1_T0_RKT1_RSaIT2_E, symObjAddr: 0x2E64, symBinAddr: 0x10000364C, symSize: 0x30 }
  - { offset: 0x2BC7F, size: 0x8, addend: 0x0, symName: __ZNSt12_Vector_baseIiSaIiEE17_M_create_storageEm, symObjAddr: 0x2E04, symBinAddr: 0x1000035EC, symSize: 0x60 }
  - { offset: 0x2BCE1, size: 0x8, addend: 0x0, symName: __ZNSt12_Vector_baseIiSaIiEE12_Vector_implC1ERKS0_, symObjAddr: 0x2DB8, symBinAddr: 0x1000035A0, symSize: 0x4C }
  - { offset: 0x2BD87, size: 0x8, addend: 0x0, symName: __ZNSt6vectorIiSaIiEE11_S_max_sizeERKS0_, symObjAddr: 0x2D64, symBinAddr: 0x10000354C, symSize: 0x54 }
  - { offset: 0x2BE3E, size: 0x8, addend: 0x0, symName: __ZSt8_DestroyIPSt13unordered_mapIxSt4pairIiSt6vectorIS1_IiiESaIS3_EEE11custom_hashSt8equal_toIxESaIS1_IKxS6_EEEEvT_SF_, symObjAddr: 0x2D3C, symBinAddr: 0x100003524, symSize: 0x28 }
  - { offset: 0x2BE80, size: 0x8, addend: 0x0, symName: __ZSt27__uninitialized_default_n_aIPSt13unordered_mapIxSt4pairIiSt6vectorIS1_IiiESaIS3_EEE11custom_hashSt8equal_toIxESaIS1_IKxS6_EEEmSD_ET_SF_T0_RSaIT1_E, symObjAddr: 0x2D14, symBinAddr: 0x1000034FC, symSize: 0x28 }
  - { offset: 0x2BEE3, size: 0x8, addend: 0x0, symName: __ZNSt12_Vector_baseISt13unordered_mapIxSt4pairIiSt6vectorIS1_IiiESaIS3_EEE11custom_hashSt8equal_toIxESaIS1_IKxS6_EEESaISD_EE17_M_create_storageEm, symObjAddr: 0x2CA8, symBinAddr: 0x100003490, symSize: 0x6C }
  - { offset: 0x2BF45, size: 0x8, addend: 0x0, symName: __ZNSt12_Vector_baseISt13unordered_mapIxSt4pairIiSt6vectorIS1_IiiESaIS3_EEE11custom_hashSt8equal_toIxESaIS1_IKxS6_EEESaISD_EE12_Vector_implC1ERKSE_, symObjAddr: 0x2C5C, symBinAddr: 0x100003444, symSize: 0x4C }
  - { offset: 0x2BFEB, size: 0x8, addend: 0x0, symName: __ZNSt6vectorISt13unordered_mapIxSt4pairIiS_IS1_IiiESaIS2_EEE11custom_hashSt8equal_toIxESaIS1_IKxS5_EEESaISC_EE11_S_max_sizeERKSD_, symObjAddr: 0x2BF8, symBinAddr: 0x1000033E0, symSize: 0x64 }
  - { offset: 0x2C0A2, size: 0x8, addend: 0x0, symName: __ZSt8_DestroyIPSt4pairIiiEEvT_S3_, symObjAddr: 0x2BD0, symBinAddr: 0x1000033B8, symSize: 0x28 }
  - { offset: 0x2C0E4, size: 0x8, addend: 0x0, symName: __ZSt27__uninitialized_default_n_aIPSt4pairIiiEmS1_ET_S3_T0_RSaIT1_E, symObjAddr: 0x2BA8, symBinAddr: 0x100003390, symSize: 0x28 }
  - { offset: 0x2C147, size: 0x8, addend: 0x0, symName: __ZNSt12_Vector_baseISt4pairIiiESaIS1_EE17_M_create_storageEm, symObjAddr: 0x2B48, symBinAddr: 0x100003330, symSize: 0x60 }
  - { offset: 0x2C1A9, size: 0x8, addend: 0x0, symName: __ZNSt12_Vector_baseISt4pairIiiESaIS1_EE12_Vector_implC1ERKS2_, symObjAddr: 0x2AFC, symBinAddr: 0x1000032E4, symSize: 0x4C }
  - { offset: 0x2C24F, size: 0x8, addend: 0x0, symName: __ZNSt6vectorISt4pairIiiESaIS1_EE11_S_max_sizeERKS2_, symObjAddr: 0x2AA8, symBinAddr: 0x100003290, symSize: 0x54 }
  - { offset: 0x2C306, size: 0x8, addend: 0x0, symName: __ZSt8_DestroyIPxEvT_S1_, symObjAddr: 0x2A80, symBinAddr: 0x100003268, symSize: 0x28 }
  - { offset: 0x2C348, size: 0x8, addend: 0x0, symName: __ZSt27__uninitialized_default_n_aIPxmxET_S1_T0_RSaIT1_E, symObjAddr: 0x2A58, symBinAddr: 0x100003240, symSize: 0x28 }
  - { offset: 0x2C3AB, size: 0x8, addend: 0x0, symName: __ZNSt12_Vector_baseIxSaIxEE17_M_create_storageEm, symObjAddr: 0x29F8, symBinAddr: 0x1000031E0, symSize: 0x60 }
  - { offset: 0x2C40D, size: 0x8, addend: 0x0, symName: __ZNSt12_Vector_baseIxSaIxEE12_Vector_implC1ERKS0_, symObjAddr: 0x29AC, symBinAddr: 0x100003194, symSize: 0x4C }
  - { offset: 0x2C4B3, size: 0x8, addend: 0x0, symName: __ZNSt6vectorIxSaIxEE11_S_max_sizeERKS0_, symObjAddr: 0x2958, symBinAddr: 0x100003140, symSize: 0x54 }
  - { offset: 0x2C56E, size: 0x8, addend: 0x0, symName: __ZNKSt8__detail14_Node_iteratorISt4pairIKxS1_IiSt6vectorIS1_IiiESaIS4_EEEELb0ELb1EEptEv, symObjAddr: 0x2928, symBinAddr: 0x100003110, symSize: 0x30 }
  - { offset: 0x2C5BC, size: 0x8, addend: 0x0, symName: __ZNSt10_HashtableIxSt4pairIKxS0_IiSt6vectorIS0_IiiESaIS3_EEEESaIS7_ENSt8__detail10_Select1stESt8equal_toIxE11custom_hashNS9_18_Mod_range_hashingENS9_20_Default_ranged_hashENS9_20_Prime_rehash_policyENS9_17_Hashtable_traitsILb1ELb0ELb1EEEE21_M_insert_unique_nodeEmmPNS9_10_Hash_nodeIS7_Lb1EEEm, symObjAddr: 0x2818, symBinAddr: 0x100003000, symSize: 0x110 }
  - { offset: 0x2C673, size: 0x8, addend: 0x0, symName: __ZNSt10_HashtableIxSt4pairIKxS0_IiSt6vectorIS0_IiiESaIS3_EEEESaIS7_ENSt8__detail10_Select1stESt8equal_toIxE11custom_hashNS9_18_Mod_range_hashingENS9_20_Default_ranged_hashENS9_20_Prime_rehash_policyENS9_17_Hashtable_traitsILb1ELb0ELb1EEEE12_Scoped_nodeD1Ev, symObjAddr: 0x27D4, symBinAddr: 0x100002FBC, symSize: 0x44 }
  - { offset: 0x2C6EC, size: 0x8, addend: 0x0, symName: __ZNSt10_HashtableIxSt4pairIKxS0_IiSt6vectorIS0_IiiESaIS3_EEEESaIS7_ENSt8__detail10_Select1stESt8equal_toIxE11custom_hashNS9_18_Mod_range_hashingENS9_20_Default_ranged_hashENS9_20_Prime_rehash_policyENS9_17_Hashtable_traitsILb1ELb0ELb1EEEE12_Scoped_nodeC1IJRKSt21piecewise_construct_tSt5tupleIJRS1_EESP_IJEEEEEPNS9_16_Hashtable_allocISaINS9_10_Hash_nodeIS7_Lb1EEEEEEDpOT_, symObjAddr: 0x274C, symBinAddr: 0x100002F34, symSize: 0x88 }
  - { offset: 0x2C784, size: 0x8, addend: 0x0, symName: __ZNSt5tupleIJRKxEEC1ILb1ELb1EEES1_, symObjAddr: 0x2724, symBinAddr: 0x100002F0C, symSize: 0x28 }
  - { offset: 0x2C7D3, size: 0x8, addend: 0x0, symName: __ZNKSt10_HashtableIxSt4pairIKxS0_IiSt6vectorIS0_IiiESaIS3_EEEESaIS7_ENSt8__detail10_Select1stESt8equal_toIxE11custom_hashNS9_18_Mod_range_hashingENS9_20_Default_ranged_hashENS9_20_Prime_rehash_policyENS9_17_Hashtable_traitsILb1ELb0ELb1EEEE12_M_find_nodeEmRS1_m, symObjAddr: 0x26D0, symBinAddr: 0x100002EB8, symSize: 0x54 }
  - { offset: 0x2C841, size: 0x8, addend: 0x0, symName: __ZNKSt10_HashtableIxSt4pairIKxS0_IiSt6vectorIS0_IiiESaIS3_EEEESaIS7_ENSt8__detail10_Select1stESt8equal_toIxE11custom_hashNS9_18_Mod_range_hashingENS9_20_Default_ranged_hashENS9_20_Prime_rehash_policyENS9_17_Hashtable_traitsILb1ELb0ELb1EEEE15_M_bucket_indexEm, symObjAddr: 0x26A0, symBinAddr: 0x100002E88, symSize: 0x30 }
  - { offset: 0x2C87C, size: 0x8, addend: 0x0, symName: __ZNKSt8__detail15_Hash_code_baseIxSt4pairIKxS1_IiSt6vectorIS1_IiiESaIS4_EEEENS_10_Select1stE11custom_hashNS_18_Mod_range_hashingENS_20_Default_ranged_hashELb1EE12_M_hash_codeERS2_, symObjAddr: 0x2668, symBinAddr: 0x100002E50, symSize: 0x38 }
  - { offset: 0x2C8B7, size: 0x8, addend: 0x0, symName: __ZNKSt10_HashtableIxSt4pairIKxS0_IiSt6vectorIS0_IiiESaIS3_EEEESaIS7_ENSt8__detail10_Select1stESt8equal_toIxE11custom_hashNS9_18_Mod_range_hashingENS9_20_Default_ranged_hashENS9_20_Prime_rehash_policyENS9_17_Hashtable_traitsILb1ELb0ELb1EEEE4findERS1_, symObjAddr: 0x2570, symBinAddr: 0x100002D58, symSize: 0xF8 }
  - { offset: 0x2CA00, size: 0x8, addend: 0x0, symName: __ZNSt10_HashtableIxSt4pairIKxiESaIS2_ENSt8__detail10_Select1stESt8equal_toIxE11custom_hashNS4_18_Mod_range_hashingENS4_20_Default_ranged_hashENS4_20_Prime_rehash_policyENS4_17_Hashtable_traitsILb1ELb0ELb1EEEE21_M_deallocate_bucketsEPPNS4_15_Hash_node_baseEm, symObjAddr: 0x2524, symBinAddr: 0x100002D0C, symSize: 0x4C }
  - { offset: 0x2CA4C, size: 0x8, addend: 0x0, symName: __ZNSt8__detail16_Hashtable_allocISaINS_10_Hash_nodeISt4pairIKxiELb1EEEEE19_M_deallocate_nodesEPS5_, symObjAddr: 0x24D4, symBinAddr: 0x100002CBC, symSize: 0x50 }
  - { offset: 0x2CAAB, size: 0x8, addend: 0x0, symName: __ZNKSt10_HashtableIxSt4pairIKxiESaIS2_ENSt8__detail10_Select1stESt8equal_toIxE11custom_hashNS4_18_Mod_range_hashingENS4_20_Default_ranged_hashENS4_20_Prime_rehash_policyENS4_17_Hashtable_traitsILb1ELb0ELb1EEEE8_M_beginEv, symObjAddr: 0x24BC, symBinAddr: 0x100002CA4, symSize: 0x18 }
  - { offset: 0x2CAEB, size: 0x8, addend: 0x0, symName: __ZNSt6vectorIiSaIiEE14_M_move_assignEOS1_St17integral_constantIbLb1EE, symObjAddr: 0x2428, symBinAddr: 0x100002C10, symSize: 0x94 }
  - { offset: 0x2CB8F, size: 0x8, addend: 0x0, symName: __ZNSt6vectorISt4pairIiiESaIS1_EE14_M_move_assignEOS3_St17integral_constantIbLb1EE, symObjAddr: 0x2394, symBinAddr: 0x100002B7C, symSize: 0x94 }
  - { offset: 0x2CC33, size: 0x8, addend: 0x0, symName: __ZNSt6vectorIxSaIxEE14_M_move_assignEOS1_St17integral_constantIbLb1EE, symObjAddr: 0x2300, symBinAddr: 0x100002AE8, symSize: 0x94 }
  - { offset: 0x2CCD7, size: 0x8, addend: 0x0, symName: __ZNSt6vectorISt13unordered_mapIxSt4pairIiS_IS1_IiiESaIS2_EEE11custom_hashSt8equal_toIxESaIS1_IKxS5_EEESaISC_EE14_M_move_assignEOSE_St17integral_constantIbLb1EE, symObjAddr: 0x226C, symBinAddr: 0x100002A54, symSize: 0x94 }
  - { offset: 0x2CD7B, size: 0x8, addend: 0x0, symName: __ZNSt6vectorISt4pairIiiESaIS1_EE12emplace_backIJS1_EEERS1_DpOT_, symObjAddr: 0x2194, symBinAddr: 0x10000297C, symSize: 0xD8 }
  - { offset: 0x2CE2D, size: 0x8, addend: 0x0, symName: __ZSt4moveIRSt4pairIiiEEONSt16remove_referenceIT_E4typeEOS4_, symObjAddr: 0x2180, symBinAddr: 0x100002968, symSize: 0x14 }
  - { offset: 0x2CE66, size: 0x8, addend: 0x0, symName: __ZSt7forwardIRiEOT_RNSt16remove_referenceIS1_E4typeE, symObjAddr: 0x216C, symBinAddr: 0x100002954, symSize: 0x14 }
  - { offset: 0x2CED7, size: 0x8, addend: 0x0, symName: __ZNSt12_Vector_baseIiSaIiEE19_M_get_Tp_allocatorEv, symObjAddr: 0x2158, symBinAddr: 0x100002940, symSize: 0x14 }
  - { offset: 0x2CF01, size: 0x8, addend: 0x0, symName: __ZNSt6vectorIiSaIiEE18_M_fill_initializeEmRKi, symObjAddr: 0x2100, symBinAddr: 0x1000028E8, symSize: 0x58 }
  - { offset: 0x2CF83, size: 0x8, addend: 0x0, symName: __ZNSt12_Vector_baseIiSaIiEEC2EmRKS0_, symObjAddr: 0x20AC, symBinAddr: 0x100002894, symSize: 0x54 }
  - { offset: 0x2CFB7, size: 0x8, addend: 0x0, symName: __ZNSt6vectorIiSaIiEE17_S_check_init_lenEmRKS0_, symObjAddr: 0x2028, symBinAddr: 0x100002810, symSize: 0x84 }
  - { offset: 0x2D0BE, size: 0x8, addend: 0x0, symName: __ZNSt12_Vector_baseISt13unordered_mapIxSt4pairIiSt6vectorIS1_IiiESaIS3_EEE11custom_hashSt8equal_toIxESaIS1_IKxS6_EEESaISD_EE19_M_get_Tp_allocatorEv, symObjAddr: 0x2014, symBinAddr: 0x1000027FC, symSize: 0x14 }
  - { offset: 0x2D0E8, size: 0x8, addend: 0x0, symName: __ZNSt6vectorISt13unordered_mapIxSt4pairIiS_IS1_IiiESaIS2_EEE11custom_hashSt8equal_toIxESaIS1_IKxS5_EEESaISC_EE21_M_default_initializeEm, symObjAddr: 0x1FC4, symBinAddr: 0x1000027AC, symSize: 0x50 }
  - { offset: 0x2D159, size: 0x8, addend: 0x0, symName: __ZNSt12_Vector_baseISt13unordered_mapIxSt4pairIiSt6vectorIS1_IiiESaIS3_EEE11custom_hashSt8equal_toIxESaIS1_IKxS6_EEESaISD_EEC2EmRKSE_, symObjAddr: 0x1F70, symBinAddr: 0x100002758, symSize: 0x54 }
  - { offset: 0x2D18D, size: 0x8, addend: 0x0, symName: __ZNSt6vectorISt13unordered_mapIxSt4pairIiS_IS1_IiiESaIS2_EEE11custom_hashSt8equal_toIxESaIS1_IKxS5_EEESaISC_EE17_S_check_init_lenEmRKSD_, symObjAddr: 0x1EEC, symBinAddr: 0x1000026D4, symSize: 0x84 }
  - { offset: 0x2D294, size: 0x8, addend: 0x0, symName: __ZNSt12_Vector_baseISt4pairIiiESaIS1_EE19_M_get_Tp_allocatorEv, symObjAddr: 0x1ED8, symBinAddr: 0x1000026C0, symSize: 0x14 }
  - { offset: 0x2D2BE, size: 0x8, addend: 0x0, symName: __ZNSt6vectorISt4pairIiiESaIS1_EE21_M_default_initializeEm, symObjAddr: 0x1E88, symBinAddr: 0x100002670, symSize: 0x50 }
  - { offset: 0x2D32F, size: 0x8, addend: 0x0, symName: __ZNSt12_Vector_baseISt4pairIiiESaIS1_EEC2EmRKS2_, symObjAddr: 0x1E34, symBinAddr: 0x10000261C, symSize: 0x54 }
  - { offset: 0x2D363, size: 0x8, addend: 0x0, symName: __ZNSt6vectorISt4pairIiiESaIS1_EE17_S_check_init_lenEmRKS2_, symObjAddr: 0x1DB0, symBinAddr: 0x100002598, symSize: 0x84 }
  - { offset: 0x2D46A, size: 0x8, addend: 0x0, symName: __ZNSt12_Vector_baseIxSaIxEE19_M_get_Tp_allocatorEv, symObjAddr: 0x1D9C, symBinAddr: 0x100002584, symSize: 0x14 }
  - { offset: 0x2D494, size: 0x8, addend: 0x0, symName: __ZNSt6vectorIxSaIxEE21_M_default_initializeEm, symObjAddr: 0x1D4C, symBinAddr: 0x100002534, symSize: 0x50 }
  - { offset: 0x2D505, size: 0x8, addend: 0x0, symName: __ZNSt12_Vector_baseIxSaIxEEC2EmRKS0_, symObjAddr: 0x1CF8, symBinAddr: 0x1000024E0, symSize: 0x54 }
  - { offset: 0x2D539, size: 0x8, addend: 0x0, symName: __ZNSt6vectorIxSaIxEE17_S_check_init_lenEmRKS0_, symObjAddr: 0x1C74, symBinAddr: 0x10000245C, symSize: 0x84 }
  - { offset: 0x2D605, size: 0x8, addend: 0x0, symName: __ZNSt8__detail9_Map_baseIxSt4pairIKxS1_IiSt6vectorIS1_IiiESaIS4_EEEESaIS8_ENS_10_Select1stESt8equal_toIxE11custom_hashNS_18_Mod_range_hashingENS_20_Default_ranged_hashENS_20_Prime_rehash_policyENS_17_Hashtable_traitsILb1ELb0ELb1EEELb1EEixERS2_, symObjAddr: 0x1B54, symBinAddr: 0x10000233C, symSize: 0x120 }
  - { offset: 0x2D70B, size: 0x8, addend: 0x0, symName: __ZNKSt10_HashtableIxSt4pairIKxS0_IiSt6vectorIS0_IiiESaIS3_EEEESaIS7_ENSt8__detail10_Select1stESt8equal_toIxE11custom_hashNS9_18_Mod_range_hashingENS9_20_Default_ranged_hashENS9_20_Prime_rehash_policyENS9_17_Hashtable_traitsILb1ELb0ELb1EEEE5countERS1_, symObjAddr: 0x1B14, symBinAddr: 0x1000022FC, symSize: 0x40 }
  - { offset: 0x2D776, size: 0x8, addend: 0x0, symName: __ZNSt12_Vector_baseIiSaIiEE13_M_deallocateEPim, symObjAddr: 0x1ABC, symBinAddr: 0x1000022A4, symSize: 0x58 }
  - { offset: 0x2D81C, size: 0x8, addend: 0x0, symName: __ZNSt15__new_allocatorIiED2Ev, symObjAddr: 0x1AA8, symBinAddr: 0x100002290, symSize: 0x14 }
  - { offset: 0x2D85C, size: 0x8, addend: 0x0, symName: __ZNSt12_Vector_baseIiSaIiEE17_Vector_impl_dataC1Ev, symObjAddr: 0x1A7C, symBinAddr: 0x100002264, symSize: 0x2C }
  - { offset: 0x2D886, size: 0x8, addend: 0x0, symName: __ZNSt12_Vector_baseIiSaIiEE17_Vector_impl_dataC2Ev, symObjAddr: 0x1A50, symBinAddr: 0x100002238, symSize: 0x2C }
  - { offset: 0x2D8AC, size: 0x8, addend: 0x0, symName: __ZNSt12_Vector_baseISt13unordered_mapIxSt4pairIiSt6vectorIS1_IiiESaIS3_EEE11custom_hashSt8equal_toIxESaIS1_IKxS6_EEESaISD_EE13_M_deallocateEPSD_m, symObjAddr: 0x19F8, symBinAddr: 0x1000021E0, symSize: 0x58 }
  - { offset: 0x2D952, size: 0x8, addend: 0x0, symName: __ZNSt15__new_allocatorISt13unordered_mapIxSt4pairIiSt6vectorIS1_IiiESaIS3_EEE11custom_hashSt8equal_toIxESaIS1_IKxS6_EEEED2Ev, symObjAddr: 0x19E4, symBinAddr: 0x1000021CC, symSize: 0x14 }
  - { offset: 0x2D992, size: 0x8, addend: 0x0, symName: __ZNSt12_Vector_baseISt13unordered_mapIxSt4pairIiSt6vectorIS1_IiiESaIS3_EEE11custom_hashSt8equal_toIxESaIS1_IKxS6_EEESaISD_EE17_Vector_impl_dataC1Ev, symObjAddr: 0x19B8, symBinAddr: 0x1000021A0, symSize: 0x2C }
  - { offset: 0x2D9BC, size: 0x8, addend: 0x0, symName: __ZNSt12_Vector_baseISt13unordered_mapIxSt4pairIiSt6vectorIS1_IiiESaIS3_EEE11custom_hashSt8equal_toIxESaIS1_IKxS6_EEESaISD_EE17_Vector_impl_dataC2Ev, symObjAddr: 0x198C, symBinAddr: 0x100002174, symSize: 0x2C }
  - { offset: 0x2D9E2, size: 0x8, addend: 0x0, symName: __ZNSt12_Vector_baseISt4pairIiiESaIS1_EE13_M_deallocateEPS1_m, symObjAddr: 0x1934, symBinAddr: 0x10000211C, symSize: 0x58 }
  - { offset: 0x2DA88, size: 0x8, addend: 0x0, symName: __ZNSt15__new_allocatorISt4pairIiiEED2Ev, symObjAddr: 0x1920, symBinAddr: 0x100002108, symSize: 0x14 }
  - { offset: 0x2DAC8, size: 0x8, addend: 0x0, symName: __ZNSt12_Vector_baseISt4pairIiiESaIS1_EE17_Vector_impl_dataC1Ev, symObjAddr: 0x18F4, symBinAddr: 0x1000020DC, symSize: 0x2C }
  - { offset: 0x2DAF2, size: 0x8, addend: 0x0, symName: __ZNSt12_Vector_baseISt4pairIiiESaIS1_EE17_Vector_impl_dataC2Ev, symObjAddr: 0x18C8, symBinAddr: 0x1000020B0, symSize: 0x2C }
  - { offset: 0x2DB18, size: 0x8, addend: 0x0, symName: __ZNSt12_Vector_baseIxSaIxEE13_M_deallocateEPxm, symObjAddr: 0x1870, symBinAddr: 0x100002058, symSize: 0x58 }
  - { offset: 0x2DBBE, size: 0x8, addend: 0x0, symName: __ZNSt15__new_allocatorIxED2Ev, symObjAddr: 0x185C, symBinAddr: 0x100002044, symSize: 0x14 }
  - { offset: 0x2DBFE, size: 0x8, addend: 0x0, symName: __ZNSt12_Vector_baseIxSaIxEE17_Vector_impl_dataC1Ev, symObjAddr: 0x1830, symBinAddr: 0x100002018, symSize: 0x2C }
  - { offset: 0x2DC28, size: 0x8, addend: 0x0, symName: __ZNSt12_Vector_baseIxSaIxEE17_Vector_impl_dataC2Ev, symObjAddr: 0x1804, symBinAddr: 0x100001FEC, symSize: 0x2C }
  - { offset: 0x2DC4E, size: 0x8, addend: 0x0, symName: __ZNSt10_HashtableIxSt4pairIKxiESaIS2_ENSt8__detail10_Select1stESt8equal_toIxE11custom_hashNS4_18_Mod_range_hashingENS4_20_Default_ranged_hashENS4_20_Prime_rehash_policyENS4_17_Hashtable_traitsILb1ELb0ELb1EEEE21_M_deallocate_bucketsEv, symObjAddr: 0x17D0, symBinAddr: 0x100001FB8, symSize: 0x34 }
  - { offset: 0x2DC78, size: 0x8, addend: 0x0, symName: __ZNSt10_HashtableIxSt4pairIKxiESaIS2_ENSt8__detail10_Select1stESt8equal_toIxE11custom_hashNS4_18_Mod_range_hashingENS4_20_Default_ranged_hashENS4_20_Prime_rehash_policyENS4_17_Hashtable_traitsILb1ELb0ELb1EEEE5clearEv, symObjAddr: 0x1770, symBinAddr: 0x100001F58, symSize: 0x60 }
  - { offset: 0x2DCC6, size: 0x8, addend: 0x0, symName: __ZNSt15__new_allocatorINSt8__detail10_Hash_nodeISt4pairIKxiELb1EEEED2Ev, symObjAddr: 0x175C, symBinAddr: 0x100001F44, symSize: 0x14 }
  - { offset: 0x2DD02, size: 0x8, addend: 0x0, symName: __ZNSt6vectorIiSaIiEEaSEOS1_, symObjAddr: 0x1718, symBinAddr: 0x100001F00, symSize: 0x44 }
  - { offset: 0x2DD51, size: 0x8, addend: 0x0, symName: __ZSt4moveIRSt6vectorIiSaIiEEEONSt16remove_referenceIT_E4typeEOS5_, symObjAddr: 0x1704, symBinAddr: 0x100001EEC, symSize: 0x14 }
  - { offset: 0x2DD87, size: 0x8, addend: 0x0, symName: __ZNSt6vectorISt4pairIiiESaIS1_EEaSEOS3_, symObjAddr: 0x16C0, symBinAddr: 0x100001EA8, symSize: 0x44 }
  - { offset: 0x2DDD6, size: 0x8, addend: 0x0, symName: __ZSt4moveIRSt6vectorISt4pairIiiESaIS2_EEEONSt16remove_referenceIT_E4typeEOS7_, symObjAddr: 0x16AC, symBinAddr: 0x100001E94, symSize: 0x14 }
  - { offset: 0x2DE0C, size: 0x8, addend: 0x0, symName: __ZNSt6vectorIxSaIxEEaSEOS1_, symObjAddr: 0x1668, symBinAddr: 0x100001E50, symSize: 0x44 }
  - { offset: 0x2DE5B, size: 0x8, addend: 0x0, symName: __ZSt4moveIRSt6vectorIxSaIxEEEONSt16remove_referenceIT_E4typeEOS5_, symObjAddr: 0x1654, symBinAddr: 0x100001E3C, symSize: 0x14 }
  - { offset: 0x2DE91, size: 0x8, addend: 0x0, symName: __ZNSt6vectorISt13unordered_mapIxSt4pairIiS_IS1_IiiESaIS2_EEE11custom_hashSt8equal_toIxESaIS1_IKxS5_EEESaISC_EEaSEOSE_, symObjAddr: 0x1610, symBinAddr: 0x100001DF8, symSize: 0x44 }
  - { offset: 0x2DEE0, size: 0x8, addend: 0x0, symName: __ZSt4moveIRSt6vectorISt13unordered_mapIxSt4pairIiS0_IS2_IiiESaIS3_EEE11custom_hashSt8equal_toIxESaIS2_IKxS6_EEESaISD_EEEONSt16remove_referenceIT_E4typeEOSI_, symObjAddr: 0x15FC, symBinAddr: 0x100001DE4, symSize: 0x14 }
  - { offset: 0x2DF16, size: 0x8, addend: 0x0, symName: __ZNSt6vectorISt4pairIiiESaIS1_EE9push_backEOS1_, symObjAddr: 0x15CC, symBinAddr: 0x100001DB4, symSize: 0x30 }
  - { offset: 0x2DF99, size: 0x8, addend: 0x0, symName: __ZNSt4pairIiiEC1IRiiLb1EEEOT_OT0_, symObjAddr: 0x1584, symBinAddr: 0x100001D6C, symSize: 0x48 }
  - { offset: 0x2DFE3, size: 0x8, addend: 0x0, symName: __ZNSt4pairIiiEaSEOS0_, symObjAddr: 0x153C, symBinAddr: 0x100001D24, symSize: 0x48 }
  - { offset: 0x2E066, size: 0x8, addend: 0x0, symName: __ZNSt4pairIiiEC1IRiS2_Lb1EEEOT_OT0_, symObjAddr: 0x14F4, symBinAddr: 0x100001CDC, symSize: 0x48 }
  - { offset: 0x2E0D4, size: 0x8, addend: 0x0, symName: __ZNSt6vectorIiSaIiEED1Ev, symObjAddr: 0x1498, symBinAddr: 0x100001C80, symSize: 0x5C }
  - { offset: 0x2E174, size: 0x8, addend: 0x0, symName: __ZNSt6vectorIiSaIiEEC1EmRKiRKS0_, symObjAddr: 0x1428, symBinAddr: 0x100001C10, symSize: 0x70 }
  - { offset: 0x2E1EF, size: 0x8, addend: 0x0, symName: __ZNSt6vectorISt13unordered_mapIxSt4pairIiS_IS1_IiiESaIS2_EEE11custom_hashSt8equal_toIxESaIS1_IKxS5_EEESaISC_EED1Ev, symObjAddr: 0x13CC, symBinAddr: 0x100001BB4, symSize: 0x5C }
  - { offset: 0x2E281, size: 0x8, addend: 0x0, symName: __ZNSt6vectorISt13unordered_mapIxSt4pairIiS_IS1_IiiESaIS2_EEE11custom_hashSt8equal_toIxESaIS1_IKxS5_EEESaISC_EEC1EmRKSD_, symObjAddr: 0x1364, symBinAddr: 0x100001B4C, symSize: 0x68 }
  - { offset: 0x2E2F3, size: 0x8, addend: 0x0, symName: __ZNSt6vectorISt4pairIiiESaIS1_EED1Ev, symObjAddr: 0x1308, symBinAddr: 0x100001AF0, symSize: 0x5C }
  - { offset: 0x2E385, size: 0x8, addend: 0x0, symName: __ZNSt6vectorISt4pairIiiESaIS1_EEC1EmRKS2_, symObjAddr: 0x12A0, symBinAddr: 0x100001A88, symSize: 0x68 }
  - { offset: 0x2E3F7, size: 0x8, addend: 0x0, symName: __ZNSt6vectorIxSaIxEED1Ev, symObjAddr: 0x1244, symBinAddr: 0x100001A2C, symSize: 0x5C }
  - { offset: 0x2E489, size: 0x8, addend: 0x0, symName: __ZNSt6vectorIxSaIxEEC1EmRKS0_, symObjAddr: 0x11DC, symBinAddr: 0x1000019C4, symSize: 0x68 }
  - { offset: 0x2E4D7, size: 0x8, addend: 0x0, symName: __ZNKSt6vectorISt4pairIiiESaIS1_EE4sizeEv, symObjAddr: 0x11B4, symBinAddr: 0x10000199C, symSize: 0x28 }
  - { offset: 0x2E501, size: 0x8, addend: 0x0, symName: __ZNSt13unordered_mapIxSt4pairIiSt6vectorIS0_IiiESaIS2_EEE11custom_hashSt8equal_toIxESaIS0_IKxS5_EEEixERS9_, symObjAddr: 0x1190, symBinAddr: 0x100001978, symSize: 0x24 }
  - { offset: 0x2E53C, size: 0x8, addend: 0x0, symName: __ZNKSt13unordered_mapIxSt4pairIiSt6vectorIS0_IiiESaIS2_EEE11custom_hashSt8equal_toIxESaIS0_IKxS5_EEE5countERS9_, symObjAddr: 0x116C, symBinAddr: 0x100001954, symSize: 0x24 }
  - { offset: 0x2E577, size: 0x8, addend: 0x0, symName: __ZNSt6vectorISt13unordered_mapIxSt4pairIiS_IS1_IiiESaIS2_EEE11custom_hashSt8equal_toIxESaIS1_IKxS5_EEESaISC_EEixEm, symObjAddr: 0x1138, symBinAddr: 0x100001920, symSize: 0x34 }
  - { offset: 0x2E5B2, size: 0x8, addend: 0x0, symName: __ZNSt6vectorIxSaIxEEixEm, symObjAddr: 0x1110, symBinAddr: 0x1000018F8, symSize: 0x28 }
  - { offset: 0x2E5ED, size: 0x8, addend: 0x0, symName: __ZNSt6vectorISt4pairIiiESaIS1_EEixEm, symObjAddr: 0x10E8, symBinAddr: 0x1000018D0, symSize: 0x28 }
  - { offset: 0x2E628, size: 0x8, addend: 0x0, symName: __ZNSt6vectorIiSaIiEEixEm, symObjAddr: 0x10C0, symBinAddr: 0x1000018A8, symSize: 0x28 }
  - { offset: 0x2E687, size: 0x8, addend: 0x0, symName: __ZNSt12_Vector_baseIiSaIiEED2Ev, symObjAddr: 0x1070, symBinAddr: 0x100001858, symSize: 0x50 }
  - { offset: 0x2E6E7, size: 0x8, addend: 0x0, symName: __ZNSt12_Vector_baseIiSaIiEE12_Vector_implC1Ev, symObjAddr: 0x1038, symBinAddr: 0x100001820, symSize: 0x38 }
  - { offset: 0x2E777, size: 0x8, addend: 0x0, symName: __ZNSt12_Vector_baseISt13unordered_mapIxSt4pairIiSt6vectorIS1_IiiESaIS3_EEE11custom_hashSt8equal_toIxESaIS1_IKxS6_EEESaISD_EED2Ev, symObjAddr: 0xFD4, symBinAddr: 0x1000017BC, symSize: 0x64 }
  - { offset: 0x2E7D7, size: 0x8, addend: 0x0, symName: __ZNSt12_Vector_baseISt13unordered_mapIxSt4pairIiSt6vectorIS1_IiiESaIS3_EEE11custom_hashSt8equal_toIxESaIS1_IKxS6_EEESaISD_EE12_Vector_implC1Ev, symObjAddr: 0xF9C, symBinAddr: 0x100001784, symSize: 0x38 }
  - { offset: 0x2E867, size: 0x8, addend: 0x0, symName: __ZNSt12_Vector_baseISt4pairIiiESaIS1_EED2Ev, symObjAddr: 0xF4C, symBinAddr: 0x100001734, symSize: 0x50 }
  - { offset: 0x2E8C7, size: 0x8, addend: 0x0, symName: __ZNSt12_Vector_baseISt4pairIiiESaIS1_EE12_Vector_implC1Ev, symObjAddr: 0xF14, symBinAddr: 0x1000016FC, symSize: 0x38 }
  - { offset: 0x2E957, size: 0x8, addend: 0x0, symName: __ZNSt12_Vector_baseIxSaIxEED2Ev, symObjAddr: 0xEC4, symBinAddr: 0x1000016AC, symSize: 0x50 }
  - { offset: 0x2E9B7, size: 0x8, addend: 0x0, symName: __ZNSt12_Vector_baseIxSaIxEE12_Vector_implC1Ev, symObjAddr: 0xE8C, symBinAddr: 0x100001674, symSize: 0x38 }
  - { offset: 0x2EA47, size: 0x8, addend: 0x0, symName: __ZNSt10_HashtableIxSt4pairIKxiESaIS2_ENSt8__detail10_Select1stESt8equal_toIxE11custom_hashNS4_18_Mod_range_hashingENS4_20_Default_ranged_hashENS4_20_Prime_rehash_policyENS4_17_Hashtable_traitsILb1ELb0ELb1EEEED1Ev, symObjAddr: 0xE5C, symBinAddr: 0x100001644, symSize: 0x30 }
  - { offset: 0x2EAA7, size: 0x8, addend: 0x0, symName: __ZNSt8__detail21_Hashtable_ebo_helperILi0ESaINS_10_Hash_nodeISt4pairIKxiELb1EEEELb1EEC2Ev, symObjAddr: 0xE30, symBinAddr: 0x100001618, symSize: 0x2C }
  - { offset: 0x2EB2E, size: 0x8, addend: 0x0, symName: __ZNSt8__detail21_Hashtable_ebo_helperILi0ESt8equal_toIxELb1EEC2Ev, symObjAddr: 0xE1C, symBinAddr: 0x100001604, symSize: 0x14 }
  - { offset: 0x2EB6E, size: 0x8, addend: 0x0, symName: __ZNSt8__detail21_Hashtable_ebo_helperILi1E11custom_hashLb1EEC2Ev, symObjAddr: 0xE08, symBinAddr: 0x1000015F0, symSize: 0x14 }
  - { offset: 0x2EB94, size: 0x8, addend: 0x0, symName: __ZNKSt6chrono10time_pointINS_3_V212steady_clockENS_8durationIxSt5ratioILl1ELl1000000000EEEEE16time_since_epochEv, symObjAddr: 0xDF0, symBinAddr: 0x1000015D8, symSize: 0x18 }
  - { offset: 0x2EBC1, size: 0x8, addend: 0x0, symName: __ZSt7forwardIiEOT_RNSt16remove_referenceIS0_E4typeE, symObjAddr: 0xDDC, symBinAddr: 0x1000015C4, symSize: 0x14 }
  - { offset: 0x2EBF3, size: 0x8, addend: 0x0, symName: __ZSt3maxImERKT_S2_S2_, symObjAddr: 0xDA4, symBinAddr: 0x10000158C, symSize: 0x38 }
  - { offset: 0x2EC3E, size: 0x8, addend: 0x0, symName: _main, symObjAddr: 0xD34, symBinAddr: 0x10000151C, symSize: 0x70 }
  - { offset: 0x2EC6E, size: 0x8, addend: 0x0, symName: __Z5solvev, symObjAddr: 0x8E4, symBinAddr: 0x1000010CC, symSize: 0x450 }
  - { offset: 0x2EFF9, size: 0x8, addend: 0x0, symName: __Z3dfsi, symObjAddr: 0x598, symBinAddr: 0x100000D80, symSize: 0x34C }
  - { offset: 0x2F083, size: 0x8, addend: 0x0, symName: __ZNSt6vectorIiSaIiEEC1Ev, symObjAddr: 0x578, symBinAddr: 0x100000D60, symSize: 0x20 }
  - { offset: 0x2F0C3, size: 0x8, addend: 0x0, symName: __ZNSt12_Vector_baseIiSaIiEEC2Ev, symObjAddr: 0x558, symBinAddr: 0x100000D40, symSize: 0x20 }
  - { offset: 0x2F110, size: 0x8, addend: 0x0, symName: __ZNSt12_Vector_baseIiSaIiEE12_Vector_implD1Ev, symObjAddr: 0x52C, symBinAddr: 0x100000D14, symSize: 0x2C }
  - { offset: 0x2F173, size: 0x8, addend: 0x0, symName: __ZNSt6vectorISt13unordered_mapIxSt4pairIiS_IS1_IiiESaIS2_EEE11custom_hashSt8equal_toIxESaIS1_IKxS5_EEESaISC_EEC1Ev, symObjAddr: 0x50C, symBinAddr: 0x100000CF4, symSize: 0x20 }
  - { offset: 0x2F1B3, size: 0x8, addend: 0x0, symName: __ZNSt12_Vector_baseISt13unordered_mapIxSt4pairIiSt6vectorIS1_IiiESaIS3_EEE11custom_hashSt8equal_toIxESaIS1_IKxS6_EEESaISD_EEC2Ev, symObjAddr: 0x4EC, symBinAddr: 0x100000CD4, symSize: 0x20 }
  - { offset: 0x2F200, size: 0x8, addend: 0x0, symName: __ZNSt12_Vector_baseISt13unordered_mapIxSt4pairIiSt6vectorIS1_IiiESaIS3_EEE11custom_hashSt8equal_toIxESaIS1_IKxS6_EEESaISD_EE12_Vector_implD1Ev, symObjAddr: 0x4C0, symBinAddr: 0x100000CA8, symSize: 0x2C }
  - { offset: 0x2F263, size: 0x8, addend: 0x0, symName: __ZNSt6vectorISt4pairIiiESaIS1_EEC1Ev, symObjAddr: 0x4A0, symBinAddr: 0x100000C88, symSize: 0x20 }
  - { offset: 0x2F2A3, size: 0x8, addend: 0x0, symName: __ZNSt12_Vector_baseISt4pairIiiESaIS1_EEC2Ev, symObjAddr: 0x480, symBinAddr: 0x100000C68, symSize: 0x20 }
  - { offset: 0x2F2F0, size: 0x8, addend: 0x0, symName: __ZNSt12_Vector_baseISt4pairIiiESaIS1_EE12_Vector_implD1Ev, symObjAddr: 0x454, symBinAddr: 0x100000C3C, symSize: 0x2C }
  - { offset: 0x2F353, size: 0x8, addend: 0x0, symName: __ZNSt6vectorIxSaIxEEC1Ev, symObjAddr: 0x434, symBinAddr: 0x100000C1C, symSize: 0x20 }
  - { offset: 0x2F393, size: 0x8, addend: 0x0, symName: __ZNSt12_Vector_baseIxSaIxEEC2Ev, symObjAddr: 0x414, symBinAddr: 0x100000BFC, symSize: 0x20 }
  - { offset: 0x2F3E0, size: 0x8, addend: 0x0, symName: __ZNSt12_Vector_baseIxSaIxEE12_Vector_implD1Ev, symObjAddr: 0x3E8, symBinAddr: 0x100000BD0, symSize: 0x2C }
  - { offset: 0x2F443, size: 0x8, addend: 0x0, symName: __ZNSt13unordered_mapIxi11custom_hashSt8equal_toIxESaISt4pairIKxiEEEC1Ev, symObjAddr: 0x3C8, symBinAddr: 0x100000BB0, symSize: 0x20 }
  - { offset: 0x2F483, size: 0x8, addend: 0x0, symName: __ZNSt10_HashtableIxSt4pairIKxiESaIS2_ENSt8__detail10_Select1stESt8equal_toIxE11custom_hashNS4_18_Mod_range_hashingENS4_20_Default_ranged_hashENS4_20_Prime_rehash_policyENS4_17_Hashtable_traitsILb1ELb0ELb1EEEEC1Ev, symObjAddr: 0x358, symBinAddr: 0x100000B40, symSize: 0x70 }
  - { offset: 0x2F4D1, size: 0x8, addend: 0x0, symName: __ZNSt8__detail16_Hashtable_allocISaINS_10_Hash_nodeISt4pairIKxiELb1EEEEED2Ev, symObjAddr: 0x338, symBinAddr: 0x100000B20, symSize: 0x20 }
  - { offset: 0x2F511, size: 0x8, addend: 0x0, symName: __ZNSt8__detail16_Hashtable_allocISaINS_10_Hash_nodeISt4pairIKxiELb1EEEEEC2Ev, symObjAddr: 0x318, symBinAddr: 0x100000B00, symSize: 0x20 }
  - { offset: 0x2F55F, size: 0x8, addend: 0x0, symName: __ZNSt8__detail21_Hashtable_ebo_helperILi0ESaINS_10_Hash_nodeISt4pairIKxiELb1EEEELb1EED2Ev, symObjAddr: 0x2EC, symBinAddr: 0x100000AD4, symSize: 0x2C }
  - { offset: 0x2F5C3, size: 0x8, addend: 0x0, symName: __ZNSt8__detail15_Hashtable_baseIxSt4pairIKxiENS_10_Select1stESt8equal_toIxE11custom_hashNS_18_Mod_range_hashingENS_20_Default_ranged_hashENS_17_Hashtable_traitsILb1ELb0ELb1EEEEC2Ev, symObjAddr: 0x2C4, symBinAddr: 0x100000AAC, symSize: 0x28 }
  - { offset: 0x2F603, size: 0x8, addend: 0x0, symName: __ZNSt8__detail15_Hash_code_baseIxSt4pairIKxiENS_10_Select1stE11custom_hashNS_18_Mod_range_hashingENS_20_Default_ranged_hashELb1EEC2Ev, symObjAddr: 0x2A4, symBinAddr: 0x100000A8C, symSize: 0x20 }
  - { offset: 0x2F629, size: 0x8, addend: 0x0, symName: __ZNK11custom_hashclEy, symObjAddr: 0x1F0, symBinAddr: 0x1000009D8, symSize: 0xB4 }
  - { offset: 0x2F66B, size: 0x8, addend: 0x0, symName: __ZZNK11custom_hashclEyE12FIXED_RANDOM, symObjAddr: 0x5C68, symBinAddr: 0x100014000, symSize: 0x0 }
  - { offset: 0x2F67A, size: 0x8, addend: 0x0, symName: __ZN11custom_hash10splitmix64Ey, symObjAddr: 0x164, symBinAddr: 0x10000094C, symSize: 0x8C }
  - { offset: 0x2F6A7, size: 0x8, addend: 0x0, symName: __ZNKSt6chrono8durationIxSt5ratioILl1ELl1000000000EEE5countEv, symObjAddr: 0x14C, symBinAddr: 0x100000934, symSize: 0x18 }
  - { offset: 0x2F6CD, size: 0x8, addend: 0x0, symName: __ZSt3minImERKT_S2_S2_, symObjAddr: 0x114, symBinAddr: 0x1000008FC, symSize: 0x38 }
  - { offset: 0x2F713, size: 0x8, addend: 0x0, symName: __ZNSt8__detail20_Prime_rehash_policy8_M_resetEm, symObjAddr: 0xF0, symBinAddr: 0x1000008D8, symSize: 0x24 }
  - { offset: 0x2F74E, size: 0x8, addend: 0x0, symName: __ZNKSt8__detail20_Prime_rehash_policy8_M_stateEv, symObjAddr: 0xD8, symBinAddr: 0x1000008C0, symSize: 0x18 }
  - { offset: 0x2F7A0, size: 0x8, addend: 0x0, symName: __ZNSt8__detail20_Prime_rehash_policyC1Ef, symObjAddr: 0xAC, symBinAddr: 0x100000894, symSize: 0x2C }
  - { offset: 0x2F7CF, size: 0x8, addend: 0x0, symName: __ZNKSt8__detail18_Mod_range_hashingclEmm, symObjAddr: 0x7C, symBinAddr: 0x100000864, symSize: 0x30 }
  - { offset: 0x2F835, size: 0x8, addend: 0x0, symName: __ZNSt8__detail15_Hash_node_baseC1Ev, symObjAddr: 0x60, symBinAddr: 0x100000848, symSize: 0x1C }
  - { offset: 0x2F85F, size: 0x8, addend: 0x0, symName: __ZNSt8__detail15_Hash_node_baseC2Ev, symObjAddr: 0x44, symBinAddr: 0x10000082C, symSize: 0x1C }
  - { offset: 0x2F888, size: 0x8, addend: 0x0, symName: __ZdlPvS_, symObjAddr: 0x2C, symBinAddr: 0x100000814, symSize: 0x18 }
  - { offset: 0x2F8BE, size: 0x8, addend: 0x0, symName: __ZnwmPv, symObjAddr: 0x14, symBinAddr: 0x1000007FC, symSize: 0x18 }
  - { offset: 0x2F8F0, size: 0x8, addend: 0x0, symName: __ZSt17__size_to_integerm, symObjAddr: 0x0, symBinAddr: 0x1000007E8, symSize: 0x14 }
...
