---
triple:          'arm64-apple-darwin'
binary-path:     '/Users/mengchengxi/Documents/code/C++C/competition/E. Exquisite Array'
relocations:
  - { offset: 0x252B8, size: 0x8, addend: 0x0, symName: __ZStL8__ioinit, symObjAddr: 0xC1E9A, symBinAddr: 0x100014228, symSize: 0x0 }
  - { offset: 0x25829, size: 0x8, addend: 0x0, symName: __ZL3INF, symObjAddr: 0x8630, symBinAddr: 0x100009DA8, symSize: 0x0 }
  - { offset: 0x25840, size: 0x8, addend: 0x0, symName: __ZL3mod, symObjAddr: 0x8634, symBinAddr: 0x100009DAC, symSize: 0x0 }
  - { offset: 0x26266, size: 0x8, addend: 0x0, symName: __GLOBAL__sub_I_E._Exquisite_Array.cpp, symObjAddr: 0x916C, symBinAddr: 0x100007768, symSize: 0x14 }
  - { offset: 0x2627E, size: 0x8, addend: 0x0, symName: __Z41__static_initialization_and_destruction_0v, symObjAddr: 0x9130, symBinAddr: 0x10000772C, symSize: 0x3C }
  - { offset: 0x2629C, size: 0x8, addend: 0x0, symName: __ZSt11__addressofIKPxEPT_RS2_, symObjAddr: 0x6F30, symBinAddr: 0x100007718, symSize: 0x14 }
  - { offset: 0x262CE, size: 0x8, addend: 0x0, symName: __ZSt9__fill_a1IPxxEN9__gnu_cxx11__enable_ifIXsrSt11__is_scalarIT0_E7__valueEvE6__typeET_S8_RKS4_, symObjAddr: 0x6ED8, symBinAddr: 0x1000076C0, symSize: 0x58 }
  - { offset: 0x26385, size: 0x8, addend: 0x0, symName: __ZN11__gnu_debug16_Error_formatter10_ParameterC1IxEERKPT_PKcNS0_12_Is_iteratorE, symObjAddr: 0x6E28, symBinAddr: 0x100007610, symSize: 0xB0 }
  - { offset: 0x2640D, size: 0x8, addend: 0x0, symName: __ZSt8__fill_aIPxxEvT_S1_RKT0_, symObjAddr: 0x6DF8, symBinAddr: 0x1000075E0, symSize: 0x30 }
  - { offset: 0x2646F, size: 0x8, addend: 0x0, symName: __ZN11__gnu_debug16_Error_formatter11_M_iteratorIPxEERS0_RKT_PKc, symObjAddr: 0x6D5C, symBinAddr: 0x100007544, symSize: 0x9C }
  - { offset: 0x264C3, size: 0x8, addend: 0x0, symName: __ZN11__gnu_debug13__can_advanceIPxmEEbT_T0_, symObjAddr: 0x6D44, symBinAddr: 0x10000752C, symSize: 0x18 }
  - { offset: 0x26543, size: 0x8, addend: 0x0, symName: __ZNSt12_Destroy_auxILb1EE9__destroyIPSt4pairIiiEEEvT_S5_, symObjAddr: 0x6D2C, symBinAddr: 0x100007514, symSize: 0x18 }
  - { offset: 0x2659F, size: 0x8, addend: 0x0, symName: __ZNSt15__new_allocatorISt4pairIiiEED2Ev, symObjAddr: 0x6D18, symBinAddr: 0x100007500, symSize: 0x14 }
  - { offset: 0x265DF, size: 0x8, addend: 0x0, symName: __ZNSt9__cxx199812_Vector_baseISt4pairIiiESaIS2_EE17_Vector_impl_dataC2Ev, symObjAddr: 0x6CEC, symBinAddr: 0x1000074D4, symSize: 0x2C }
  - { offset: 0x26617, size: 0x8, addend: 0x0, symName: __ZSt11__addressofIKN9__gnu_cxx17__normal_iteratorIPiNSt9__cxx19986vectorIiSaIiEEEEEEPT_RS9_, symObjAddr: 0x6CD8, symBinAddr: 0x1000074C0, symSize: 0x14 }
  - { offset: 0x26649, size: 0x8, addend: 0x0, symName: __ZSt10__fill_n_aIPxmxET_S1_T0_RKT1_St26random_access_iterator_tag, symObjAddr: 0x6BEC, symBinAddr: 0x1000073D4, symSize: 0xEC }
  - { offset: 0x266EA, size: 0x8, addend: 0x0, symName: __ZSt19__relocate_object_aISt4pairIiiES1_SaIS1_EEvPT_PT0_RT1_, symObjAddr: 0x6B28, symBinAddr: 0x100007310, symSize: 0xC4 }
  - { offset: 0x2681C, size: 0x8, addend: 0x0, symName: __ZSt11__addressofISt4pairIiiEEPT_RS2_, symObjAddr: 0x6B14, symBinAddr: 0x1000072FC, symSize: 0x14 }
  - { offset: 0x26864, size: 0x8, addend: 0x0, symName: __ZSt8_DestroyIPSt4pairIiiEEvT_S3_, symObjAddr: 0x6AEC, symBinAddr: 0x1000072D4, symSize: 0x28 }
  - { offset: 0x268AA, size: 0x8, addend: 0x0, symName: __ZNSt9__cxx199812_Vector_baseISt4pairIiiESaIS2_EE13_M_deallocateEPS2_m, symObjAddr: 0x6A94, symBinAddr: 0x10000727C, symSize: 0x58 }
  - { offset: 0x26946, size: 0x8, addend: 0x0, symName: __ZN11__gnu_debug12_Safe_vectorINSt7__debug6vectorISt4pairIiiESaIS4_EEENSt9__cxx19986vectorIS4_S5_EEEC2Ev, symObjAddr: 0x6A6C, symBinAddr: 0x100007254, symSize: 0x28 }
  - { offset: 0x269A6, size: 0x8, addend: 0x0, symName: __ZNSt9__cxx199812_Vector_baseISt4pairIiiESaIS2_EE12_Vector_implC1Ev, symObjAddr: 0x6A34, symBinAddr: 0x10000721C, symSize: 0x38 }
  - { offset: 0x26A14, size: 0x8, addend: 0x0, symName: __ZSt11__addressofIKPiEPT_RS2_, symObjAddr: 0x6A20, symBinAddr: 0x100007208, symSize: 0x14 }
  - { offset: 0x26A46, size: 0x8, addend: 0x0, symName: __ZN9__gnu_cxxleIPiNSt9__cxx19986vectorIiSaIiEEEEEbRKNS_17__normal_iteratorIT_T0_EESB_, symObjAddr: 0x69DC, symBinAddr: 0x1000071C4, symSize: 0x44 }
  - { offset: 0x26A93, size: 0x8, addend: 0x0, symName: __ZN11__gnu_debug17__valid_range_auxIN9__gnu_cxx17__normal_iteratorIPiNSt9__cxx19986vectorIiSaIiEEEEEEEbT_S9_St18input_iterator_tag, symObjAddr: 0x6964, symBinAddr: 0x10000714C, symSize: 0x78 }
  - { offset: 0x26ADE, size: 0x8, addend: 0x0, symName: __ZN11__gnu_debug16__check_singularIN9__gnu_cxx17__normal_iteratorIPiNSt9__cxx19986vectorIiSaIiEEEEEEEbRKT_, symObjAddr: 0x6914, symBinAddr: 0x1000070FC, symSize: 0x50 }
  - { offset: 0x26B29, size: 0x8, addend: 0x0, symName: __ZSt6fill_nIPxmxET_S1_T0_RKT1_, symObjAddr: 0x68CC, symBinAddr: 0x1000070B4, symSize: 0x48 }
  - { offset: 0x26BB1, size: 0x8, addend: 0x0, symName: __ZSt10_ConstructIxJEEvPT_DpOT0_, symObjAddr: 0x68A0, symBinAddr: 0x100007088, symSize: 0x2C }
  - { offset: 0x26BED, size: 0x8, addend: 0x0, symName: __ZSt11__addressofIxEPT_RS0_, symObjAddr: 0x688C, symBinAddr: 0x100007074, symSize: 0x14 }
  - { offset: 0x26C23, size: 0x8, addend: 0x0, symName: __ZNSt15__new_allocatorIxE8allocateEmPKv, symObjAddr: 0x6810, symBinAddr: 0x100006FF8, symSize: 0x7C }
  - { offset: 0x26CAB, size: 0x8, addend: 0x0, symName: __ZSt14__relocate_a_1IPSt4pairIiiES2_SaIS1_EET0_T_S5_S4_RT1_, symObjAddr: 0x678C, symBinAddr: 0x100006F74, symSize: 0x84 }
  - { offset: 0x26D34, size: 0x8, addend: 0x0, symName: __ZSt12__niter_baseIPSt4pairIiiEET_S3_, symObjAddr: 0x6778, symBinAddr: 0x100006F60, symSize: 0x14 }
  - { offset: 0x26D6B, size: 0x8, addend: 0x0, symName: __ZNSt15__new_allocatorISt4pairIiiEE8allocateEmPKv, symObjAddr: 0x66FC, symBinAddr: 0x100006EE4, symSize: 0x7C }
  - { offset: 0x26DF7, size: 0x8, addend: 0x0, symName: __ZNKSt9__cxx199812_Vector_baseISt4pairIiiESaIS2_EE19_M_get_Tp_allocatorEv, symObjAddr: 0x66E8, symBinAddr: 0x100006ED0, symSize: 0x14 }
  - { offset: 0x26E1D, size: 0x8, addend: 0x0, symName: __ZNSt9__cxx19986vectorISt4pairIiiESaIS2_EE11_S_max_sizeERKS3_, symObjAddr: 0x6694, symBinAddr: 0x100006E7C, symSize: 0x54 }
  - { offset: 0x26F37, size: 0x8, addend: 0x0, symName: __ZNSt9__cxx199812_Vector_baseISt4pairIiiESaIS2_EED2Ev, symObjAddr: 0x6644, symBinAddr: 0x100006E2C, symSize: 0x50 }
  - { offset: 0x26F59, size: 0x8, addend: 0x0, symName: __ZSt10_ConstructINSt7__debug6vectorISt4pairIiiESaIS3_EEEJEEvPT_DpOT0_, symObjAddr: 0x65F4, symBinAddr: 0x100006DDC, symSize: 0x50 }
  - { offset: 0x26FB3, size: 0x8, addend: 0x0, symName: __ZNSt7__debug6vectorISt4pairIiiESaIS2_EEC1Ev, symObjAddr: 0x65BC, symBinAddr: 0x100006DA4, symSize: 0x38 }
  - { offset: 0x26FF3, size: 0x8, addend: 0x0, symName: __ZNSt9__cxx19986vectorISt4pairIiiESaIS2_EEC2Ev, symObjAddr: 0x659C, symBinAddr: 0x100006D84, symSize: 0x20 }
  - { offset: 0x27033, size: 0x8, addend: 0x0, symName: __ZNSt9__cxx199812_Vector_baseISt4pairIiiESaIS2_EEC2Ev, symObjAddr: 0x657C, symBinAddr: 0x100006D64, symSize: 0x20 }
  - { offset: 0x27080, size: 0x8, addend: 0x0, symName: __ZNSt9__cxx199812_Vector_baseISt4pairIiiESaIS2_EE12_Vector_implD1Ev, symObjAddr: 0x6550, symBinAddr: 0x100006D38, symSize: 0x2C }
  - { offset: 0x270E3, size: 0x8, addend: 0x0, symName: __ZN11__gnu_debug15_Safe_containerINSt7__debug6vectorISt4pairIiiESaIS4_EEES5_NS_14_Safe_sequenceELb1EEC2Ev, symObjAddr: 0x6530, symBinAddr: 0x100006D18, symSize: 0x20 }
  - { offset: 0x27131, size: 0x8, addend: 0x0, symName: __ZN11__gnu_debug14_Safe_sequenceINSt7__debug6vectorISt4pairIiiESaIS4_EEEEC2Ev, symObjAddr: 0x6510, symBinAddr: 0x100006CF8, symSize: 0x20 }
  - { offset: 0x27157, size: 0x8, addend: 0x0, symName: __ZNSt15__new_allocatorINSt7__debug6vectorISt4pairIiiESaIS3_EEEE8allocateEmPKv, symObjAddr: 0x6478, symBinAddr: 0x100006C60, symSize: 0x98 }
  - { offset: 0x271DF, size: 0x8, addend: 0x0, symName: __ZSt9__fill_a1IPiiEN9__gnu_cxx11__enable_ifIXsrSt11__is_scalarIT0_E7__valueEvE6__typeET_S8_RKS4_, symObjAddr: 0x6420, symBinAddr: 0x100006C08, symSize: 0x58 }
  - { offset: 0x27296, size: 0x8, addend: 0x0, symName: __ZN11__gnu_debug16_Error_formatter10_ParameterC1IiEERKPT_PKcNS0_12_Is_iteratorE, symObjAddr: 0x6370, symBinAddr: 0x100006B58, symSize: 0xB0 }
  - { offset: 0x272DC, size: 0x8, addend: 0x0, symName: __ZN11__gnu_debug17__valid_range_auxIN9__gnu_cxx17__normal_iteratorIPiNSt9__cxx19986vectorIiSaIiEEEEEEEbT_S9_St26random_access_iterator_tag, symObjAddr: 0x6314, symBinAddr: 0x100006AFC, symSize: 0x5C }
  - { offset: 0x2733D, size: 0x8, addend: 0x0, symName: __ZSt10_ConstructIiJEEvPT_DpOT0_, symObjAddr: 0x62E8, symBinAddr: 0x100006AD0, symSize: 0x2C }
  - { offset: 0x27379, size: 0x8, addend: 0x0, symName: __ZSt11__addressofIiEPT_RS0_, symObjAddr: 0x62D4, symBinAddr: 0x100006ABC, symSize: 0x14 }
  - { offset: 0x273AB, size: 0x8, addend: 0x0, symName: __ZNSt27__uninitialized_default_n_1ILb1EE18__uninit_default_nIPxmEET_S3_T0_, symObjAddr: 0x6270, symBinAddr: 0x100006A58, symSize: 0x64 }
  - { offset: 0x27460, size: 0x8, addend: 0x0, symName: __ZNK9__gnu_cxx17__normal_iteratorIPKSt4pairIiiENSt9__cxx19986vectorIS2_SaIS2_EEEE4baseEv, symObjAddr: 0x625C, symBinAddr: 0x100006A44, symSize: 0x14 }
  - { offset: 0x274B2, size: 0x8, addend: 0x0, symName: __ZN9__gnu_cxx17__normal_iteratorIPKSt4pairIiiENSt9__cxx19986vectorIS2_SaIS2_EEEEC1ERKS4_, symObjAddr: 0x6234, symBinAddr: 0x100006A1C, symSize: 0x28 }
  - { offset: 0x274DD, size: 0x8, addend: 0x0, symName: __ZSt12__relocate_aIPSt4pairIiiES2_SaIS1_EET0_T_S5_S4_RT1_, symObjAddr: 0x61D8, symBinAddr: 0x1000069C0, symSize: 0x5C }
  - { offset: 0x27559, size: 0x8, addend: 0x0, symName: __ZNSt15__new_allocatorISt4pairIiiEE10deallocateEPS1_m, symObjAddr: 0x61A8, symBinAddr: 0x100006990, symSize: 0x30 }
  - { offset: 0x275C7, size: 0x8, addend: 0x0, symName: __ZNK9__gnu_cxx17__normal_iteratorIPSt4pairIiiENSt9__cxx19986vectorIS2_SaIS2_EEEE4baseEv, symObjAddr: 0x6194, symBinAddr: 0x10000697C, symSize: 0x14 }
  - { offset: 0x27619, size: 0x8, addend: 0x0, symName: __ZN9__gnu_cxx17__normal_iteratorIPSt4pairIiiENSt9__cxx19986vectorIS2_SaIS2_EEEEC1ERKS3_, symObjAddr: 0x616C, symBinAddr: 0x100006954, symSize: 0x28 }
  - { offset: 0x27648, size: 0x8, addend: 0x0, symName: __ZNKSt9__cxx19986vectorISt4pairIiiESaIS2_EE8max_sizeEv, symObjAddr: 0x614C, symBinAddr: 0x100006934, symSize: 0x20 }
  - { offset: 0x27696, size: 0x8, addend: 0x0, symName: __ZNSt9__cxx19986vectorISt4pairIiiESaIS2_EED2Ev, symObjAddr: 0x60F0, symBinAddr: 0x1000068D8, symSize: 0x5C }
  - { offset: 0x276EE, size: 0x8, addend: 0x0, symName: __ZNSt27__uninitialized_default_n_1ILb0EE18__uninit_default_nIPNSt7__debug6vectorISt4pairIiiESaIS5_EEEmEET_S9_T0_, symObjAddr: 0x6098, symBinAddr: 0x100006880, symSize: 0x58 }
  - { offset: 0x2779C, size: 0x8, addend: 0x0, symName: __ZSt8__fill_aIPiiEvT_S1_RKT0_, symObjAddr: 0x6068, symBinAddr: 0x100006850, symSize: 0x30 }
  - { offset: 0x277FE, size: 0x8, addend: 0x0, symName: __ZN11__gnu_debug16_Error_formatter11_M_iteratorIPiEERS0_RKT_PKc, symObjAddr: 0x5FCC, symBinAddr: 0x1000067B4, symSize: 0x9C }
  - { offset: 0x27852, size: 0x8, addend: 0x0, symName: __ZN11__gnu_debug13__can_advanceIPimEEbT_T0_, symObjAddr: 0x5FB4, symBinAddr: 0x10000679C, symSize: 0x18 }
  - { offset: 0x2788F, size: 0x8, addend: 0x0, symName: __ZNSt22__uninitialized_fill_nILb1EE15__uninit_fill_nIPimiEET_S3_T0_RKT1_, symObjAddr: 0x5F88, symBinAddr: 0x100006770, symSize: 0x2C }
  - { offset: 0x278F6, size: 0x8, addend: 0x0, symName: __ZSt9__fill_a1IPiNSt9__cxx19986vectorIiSaIiEEEiEvN9__gnu_cxx17__normal_iteratorIT_T0_EES9_RKT1_, symObjAddr: 0x5F38, symBinAddr: 0x100006720, symSize: 0x50 }
  - { offset: 0x279AE, size: 0x8, addend: 0x0, symName: __ZN11__gnu_debug16_Error_formatter10_ParameterC1IPiNSt9__cxx19986vectorIiSaIiEEEEERKN9__gnu_cxx17__normal_iteratorIT_T0_EEPKcNS0_12_Is_iteratorE, symObjAddr: 0x5EE0, symBinAddr: 0x1000066C8, symSize: 0x58 }
  - { offset: 0x279FD, size: 0x8, addend: 0x0, symName: __ZN11__gnu_debug17__valid_range_auxIN9__gnu_cxx17__normal_iteratorIPiNSt9__cxx19986vectorIiSaIiEEEEEEEbT_S9_St12__false_type, symObjAddr: 0x5EB0, symBinAddr: 0x100006698, symSize: 0x30 }
  - { offset: 0x27A6C, size: 0x8, addend: 0x0, symName: __ZNK9__gnu_cxx17__normal_iteratorIPKiNSt9__cxx19986vectorIiSaIiEEEE4baseEv, symObjAddr: 0x5E9C, symBinAddr: 0x100006684, symSize: 0x14 }
  - { offset: 0x27A92, size: 0x8, addend: 0x0, symName: __ZSt14__relocate_a_1IiiENSt9enable_ifIXsrSt24__is_bitwise_relocatableIT_vE5valueEPS2_E4typeES4_S4_S4_RSaIT0_E, symObjAddr: 0x5E38, symBinAddr: 0x100006620, symSize: 0x64 }
  - { offset: 0x27B12, size: 0x8, addend: 0x0, symName: __ZSt12__niter_baseIPiET_S1_, symObjAddr: 0x5E24, symBinAddr: 0x10000660C, symSize: 0x14 }
  - { offset: 0x27B49, size: 0x8, addend: 0x0, symName: __ZNSt15__new_allocatorIiE8allocateEmPKv, symObjAddr: 0x5DA8, symBinAddr: 0x100006590, symSize: 0x7C }
  - { offset: 0x27BD1, size: 0x8, addend: 0x0, symName: __ZNSt27__uninitialized_default_n_1ILb1EE18__uninit_default_nIPimEET_S3_T0_, symObjAddr: 0x5D44, symBinAddr: 0x10000652C, symSize: 0x64 }
  - { offset: 0x27C4C, size: 0x8, addend: 0x0, symName: __ZNSt15__new_allocatorIxE10deallocateEPxm, symObjAddr: 0x5D14, symBinAddr: 0x1000064FC, symSize: 0x30 }
  - { offset: 0x27C92, size: 0x8, addend: 0x0, symName: __ZSt25__uninitialized_default_nIPxmET_S1_T0_, symObjAddr: 0x5CE8, symBinAddr: 0x1000064D0, symSize: 0x2C }
  - { offset: 0x27CF4, size: 0x8, addend: 0x0, symName: __ZNSt9__cxx199812_Vector_baseIxSaIxEE11_M_allocateEm, symObjAddr: 0x5C98, symBinAddr: 0x100006480, symSize: 0x50 }
  - { offset: 0x27D76, size: 0x8, addend: 0x0, symName: __ZNSt9__cxx199812_Vector_baseIxSaIxEE17_Vector_impl_dataC2Ev, symObjAddr: 0x5C6C, symBinAddr: 0x100006454, symSize: 0x2C }
  - { offset: 0x27DD0, size: 0x8, addend: 0x0, symName: __ZN9__gnu_cxxeqIPKSt4pairIiiENSt9__cxx19986vectorIS2_SaIS2_EEEEEbRKNS_17__normal_iteratorIT_T0_EESE_, symObjAddr: 0x5C28, symBinAddr: 0x100006410, symSize: 0x44 }
  - { offset: 0x27E21, size: 0x8, addend: 0x0, symName: __ZNKSt9__cxx19986vectorISt4pairIiiESaIS2_EE3endEv, symObjAddr: 0x5C00, symBinAddr: 0x1000063E8, symSize: 0x28 }
  - { offset: 0x27E4B, size: 0x8, addend: 0x0, symName: __ZNKSt9__cxx19986vectorISt4pairIiiESaIS2_EE5beginEv, symObjAddr: 0x5BDC, symBinAddr: 0x1000063C4, symSize: 0x24 }
  - { offset: 0x27E75, size: 0x8, addend: 0x0, symName: __ZNKSt9__cxx19986vectorISt4pairIiiESaIS2_EE8capacityEv, symObjAddr: 0x5BB4, symBinAddr: 0x10000639C, symSize: 0x28 }
  - { offset: 0x27E9F, size: 0x8, addend: 0x0, symName: __ZNK9__gnu_cxx17__normal_iteratorIPSt4pairIiiENSt9__cxx19986vectorIS2_SaIS2_EEEEdeEv, symObjAddr: 0x5B9C, symBinAddr: 0x100006384, symSize: 0x18 }
  - { offset: 0x27EC9, size: 0x8, addend: 0x0, symName: __ZNK9__gnu_cxx17__normal_iteratorIPSt4pairIiiENSt9__cxx19986vectorIS2_SaIS2_EEEEmiEl, symObjAddr: 0x5B58, symBinAddr: 0x100006340, symSize: 0x44 }
  - { offset: 0x27F04, size: 0x8, addend: 0x0, symName: __ZNSt9__cxx199812_Vector_baseISt4pairIiiESaIS2_EE19_M_get_Tp_allocatorEv, symObjAddr: 0x5B44, symBinAddr: 0x10000632C, symSize: 0x14 }
  - { offset: 0x27F2A, size: 0x8, addend: 0x0, symName: __ZNSt9__cxx19986vectorISt4pairIiiESaIS2_EE11_S_relocateEPS2_S5_S5_RS3_, symObjAddr: 0x5B10, symBinAddr: 0x1000062F8, symSize: 0x34 }
  - { offset: 0x27F87, size: 0x8, addend: 0x0, symName: __ZSt12__to_addressISt4pairIiiEEPT_S3_, symObjAddr: 0x5AFC, symBinAddr: 0x1000062E4, symSize: 0x14 }
  - { offset: 0x27FEF, size: 0x8, addend: 0x0, symName: __ZNSt9__cxx199812_Vector_baseISt4pairIiiESaIS2_EE11_M_allocateEm, symObjAddr: 0x5AAC, symBinAddr: 0x100006294, symSize: 0x50 }
  - { offset: 0x2805A, size: 0x8, addend: 0x0, symName: __ZN9__gnu_cxxmiIPSt4pairIiiENSt9__cxx19986vectorIS2_SaIS2_EEEEENS_17__normal_iteratorIT_T0_E15difference_typeERKSB_SE_, symObjAddr: 0x5A6C, symBinAddr: 0x100006254, symSize: 0x40 }
  - { offset: 0x280AB, size: 0x8, addend: 0x0, symName: __ZNSt9__cxx19986vectorISt4pairIiiESaIS2_EE5beginEv, symObjAddr: 0x5A48, symBinAddr: 0x100006230, symSize: 0x24 }
  - { offset: 0x280D5, size: 0x8, addend: 0x0, symName: __ZNSt9__cxx19986vectorISt4pairIiiESaIS2_EE3endEv, symObjAddr: 0x5A20, symBinAddr: 0x100006208, symSize: 0x28 }
  - { offset: 0x280FF, size: 0x8, addend: 0x0, symName: __ZNKSt9__cxx19986vectorISt4pairIiiESaIS2_EE12_M_check_lenEmPKc, symObjAddr: 0x5950, symBinAddr: 0x100006138, symSize: 0xD0 }
  - { offset: 0x2819A, size: 0x8, addend: 0x0, symName: __ZSt8_DestroyINSt7__debug6vectorISt4pairIiiESaIS3_EEEEvPT_, symObjAddr: 0x5930, symBinAddr: 0x100006118, symSize: 0x20 }
  - { offset: 0x281F4, size: 0x8, addend: 0x0, symName: __ZNSt7__debug6vectorISt4pairIiiESaIS2_EED1Ev, symObjAddr: 0x5904, symBinAddr: 0x1000060EC, symSize: 0x2C }
  - { offset: 0x28241, size: 0x8, addend: 0x0, symName: __ZN11__gnu_debug15_Safe_containerINSt7__debug6vectorISt4pairIiiESaIS4_EEES5_NS_14_Safe_sequenceELb1EED2Ev, symObjAddr: 0x58E4, symBinAddr: 0x1000060CC, symSize: 0x20 }
  - { offset: 0x2828E, size: 0x8, addend: 0x0, symName: __ZN11__gnu_debug14_Safe_sequenceINSt7__debug6vectorISt4pairIiiESaIS4_EEEED2Ev, symObjAddr: 0x58C4, symBinAddr: 0x1000060AC, symSize: 0x20 }
  - { offset: 0x282B0, size: 0x8, addend: 0x0, symName: __ZSt11__addressofINSt7__debug6vectorISt4pairIiiESaIS3_EEEEPT_RS6_, symObjAddr: 0x58B0, symBinAddr: 0x100006098, symSize: 0x14 }
  - { offset: 0x282E6, size: 0x8, addend: 0x0, symName: __ZNSt15__new_allocatorINSt7__debug6vectorISt4pairIiiESaIS3_EEEE10deallocateEPS5_m, symObjAddr: 0x5874, symBinAddr: 0x10000605C, symSize: 0x3C }
  - { offset: 0x2832C, size: 0x8, addend: 0x0, symName: __ZSt25__uninitialized_default_nIPNSt7__debug6vectorISt4pairIiiESaIS3_EEEmET_S7_T0_, symObjAddr: 0x5848, symBinAddr: 0x100006030, symSize: 0x2C }
  - { offset: 0x2838E, size: 0x8, addend: 0x0, symName: __ZNSt9__cxx199812_Vector_baseINSt7__debug6vectorISt4pairIiiESaIS4_EEESaIS6_EE11_M_allocateEm, symObjAddr: 0x57F8, symBinAddr: 0x100005FE0, symSize: 0x50 }
  - { offset: 0x28410, size: 0x8, addend: 0x0, symName: __ZNSt9__cxx199812_Vector_baseINSt7__debug6vectorISt4pairIiiESaIS4_EEESaIS6_EE17_Vector_impl_dataC2Ev, symObjAddr: 0x57CC, symBinAddr: 0x100005FB4, symSize: 0x2C }
  - { offset: 0x28494, size: 0x8, addend: 0x0, symName: __ZSt11__addressofIKN11__gnu_debug14_Safe_iteratorIN9__gnu_cxx17__normal_iteratorIPiNSt9__cxx19986vectorIiSaIiEEEEENSt7__debug6vectorIiS7_EESt20forward_iterator_tagEEEPT_RSG_, symObjAddr: 0x57B8, symBinAddr: 0x100005FA0, symSize: 0x14 }
  - { offset: 0x284CA, size: 0x8, addend: 0x0, symName: __ZNK11__gnu_debug14_Safe_iteratorIN9__gnu_cxx17__normal_iteratorIPiNSt9__cxx19986vectorIiSaIiEEEEENSt7__debug6vectorIiS6_EESt20forward_iterator_tagE16_M_incrementableEv, symObjAddr: 0x575C, symBinAddr: 0x100005F44, symSize: 0x5C }
  - { offset: 0x284F4, size: 0x8, addend: 0x0, symName: __ZN9__gnu_cxx17__normal_iteratorIPiNSt9__cxx19986vectorIiSaIiEEEEppEv, symObjAddr: 0x5734, symBinAddr: 0x100005F1C, symSize: 0x28 }
  - { offset: 0x2851E, size: 0x8, addend: 0x0, symName: __ZNSt7__debug6vectorIiSaIiEE7_M_baseEv, symObjAddr: 0x571C, symBinAddr: 0x100005F04, symSize: 0x18 }
  - { offset: 0x28544, size: 0x8, addend: 0x0, symName: __ZN11__gnu_debug18_BeforeBeginHelperINSt7__debug6vectorIiSaIiEEEE5_S_IsIN9__gnu_cxx17__normal_iteratorIPiNSt9__cxx19986vectorIiS3_EEEESt20forward_iterator_tagEEbRKNS_14_Safe_iteratorIT_S4_T0_EE, symObjAddr: 0x5708, symBinAddr: 0x100005EF0, symSize: 0x14 }
  - { offset: 0x285C4, size: 0x8, addend: 0x0, symName: __ZNSt4pairIlN11__gnu_debug19_Distance_precisionEEC1IlS1_Lb1EEEOT_OT0_, symObjAddr: 0x56C0, symBinAddr: 0x100005EA8, symSize: 0x48 }
  - { offset: 0x28611, size: 0x8, addend: 0x0, symName: __ZSt7forwardIlEOT_RNSt16remove_referenceIS0_E4typeE, symObjAddr: 0x56AC, symBinAddr: 0x100005E94, symSize: 0x14 }
  - { offset: 0x2868F, size: 0x8, addend: 0x0, symName: __ZNSt4pairIiN11__gnu_debug19_Distance_precisionEEC1IiS1_Lb1EEEOT_OT0_, symObjAddr: 0x5664, symBinAddr: 0x100005E4C, symSize: 0x48 }
  - { offset: 0x286DC, size: 0x8, addend: 0x0, symName: __ZSt7forwardIN11__gnu_debug19_Distance_precisionEEOT_RNSt16remove_referenceIS2_E4typeE, symObjAddr: 0x5650, symBinAddr: 0x100005E38, symSize: 0x14 }
  - { offset: 0x2870E, size: 0x8, addend: 0x0, symName: __ZSt10__fill_n_aIPimiET_S1_T0_RKT1_St26random_access_iterator_tag, symObjAddr: 0x5564, symBinAddr: 0x100005D4C, symSize: 0xEC }
  - { offset: 0x287AF, size: 0x8, addend: 0x0, symName: __ZSt20uninitialized_fill_nIPimiET_S1_T0_RKT1_, symObjAddr: 0x5530, symBinAddr: 0x100005D18, symSize: 0x34 }
  - { offset: 0x28827, size: 0x8, addend: 0x0, symName: __ZSt8__fill_aIN9__gnu_cxx17__normal_iteratorIPiNSt9__cxx19986vectorIiSaIiEEEEEiEvT_S8_RKT0_, symObjAddr: 0x5500, symBinAddr: 0x100005CE8, symSize: 0x30 }
  - { offset: 0x28889, size: 0x8, addend: 0x0, symName: __ZN11__gnu_debug16_Error_formatter11_M_iteratorIN9__gnu_cxx17__normal_iteratorIPiNSt9__cxx19986vectorIiSaIiEEEEEEERS0_RKT_PKc, symObjAddr: 0x5464, symBinAddr: 0x100005C4C, symSize: 0x9C }
  - { offset: 0x288DD, size: 0x8, addend: 0x0, symName: __ZN11__gnu_debug13__valid_rangeIN9__gnu_cxx17__normal_iteratorIPiNSt9__cxx19986vectorIiSaIiEEEEEEEbT_S9_, symObjAddr: 0x5440, symBinAddr: 0x100005C28, symSize: 0x24 }
  - { offset: 0x28925, size: 0x8, addend: 0x0, symName: __ZNSt9__cxx199812_Vector_baseIiSaIiEE17_Vector_impl_data12_M_copy_dataERKS3_, symObjAddr: 0x53F8, symBinAddr: 0x100005BE0, symSize: 0x48 }
  - { offset: 0x2895F, size: 0x8, addend: 0x0, symName: __ZNSt9__cxx19986vectorIiSaIiEE18_M_fill_initializeEmRKi, symObjAddr: 0x53A0, symBinAddr: 0x100005B88, symSize: 0x58 }
  - { offset: 0x289A7, size: 0x8, addend: 0x0, symName: __ZN9__gnu_cxxmiIPKiNSt9__cxx19986vectorIiSaIiEEEEENS_17__normal_iteratorIT_T0_E15difference_typeERKSA_SD_, symObjAddr: 0x5360, symBinAddr: 0x100005B48, symSize: 0x40 }
  - { offset: 0x289F4, size: 0x8, addend: 0x0, symName: __ZSt12__relocate_aIPiS0_SaIiEET0_T_S3_S2_RT1_, symObjAddr: 0x5304, symBinAddr: 0x100005AEC, symSize: 0x5C }
  - { offset: 0x28A90, size: 0x8, addend: 0x0, symName: __ZSt25__uninitialized_default_nIPimET_S1_T0_, symObjAddr: 0x52D8, symBinAddr: 0x100005AC0, symSize: 0x2C }
  - { offset: 0x28AF2, size: 0x8, addend: 0x0, symName: __ZNKSt9__cxx199812_Vector_baseIiSaIiEE19_M_get_Tp_allocatorEv, symObjAddr: 0x52C4, symBinAddr: 0x100005AAC, symSize: 0x14 }
  - { offset: 0x28B18, size: 0x8, addend: 0x0, symName: __ZSt11__addressofIKNSt7__debug6vectorIxSaIxEEEEPT_RS5_, symObjAddr: 0x52B0, symBinAddr: 0x100005A98, symSize: 0x14 }
  - { offset: 0x28B4A, size: 0x8, addend: 0x0, symName: __ZSt11__addressofIKNSt7__debug6vectorISt4pairIiiESaIS3_EEEEPT_RS7_, symObjAddr: 0x529C, symBinAddr: 0x100005A84, symSize: 0x14 }
  - { offset: 0x28B7C, size: 0x8, addend: 0x0, symName: __ZNSt12_Destroy_auxILb1EE9__destroyIPxEEvT_S3_, symObjAddr: 0x5284, symBinAddr: 0x100005A6C, symSize: 0x18 }
  - { offset: 0x28BE2, size: 0x8, addend: 0x0, symName: __ZSt27__uninitialized_default_n_aIPxmxET_S1_T0_RSaIT1_E, symObjAddr: 0x525C, symBinAddr: 0x100005A44, symSize: 0x28 }
  - { offset: 0x28C45, size: 0x8, addend: 0x0, symName: __ZNSt9__cxx199812_Vector_baseIxSaIxEE17_M_create_storageEm, symObjAddr: 0x51FC, symBinAddr: 0x1000059E4, symSize: 0x60 }
  - { offset: 0x28CA7, size: 0x8, addend: 0x0, symName: __ZNSt9__cxx199812_Vector_baseIxSaIxEE12_Vector_implC1ERKS1_, symObjAddr: 0x51B0, symBinAddr: 0x100005998, symSize: 0x4C }
  - { offset: 0x28D4D, size: 0x8, addend: 0x0, symName: __ZNSt9__cxx19986vectorIxSaIxEE11_S_max_sizeERKS1_, symObjAddr: 0x515C, symBinAddr: 0x100005944, symSize: 0x54 }
  - { offset: 0x28E08, size: 0x8, addend: 0x0, symName: __ZNKSt9__cxx19986vectorISt4pairIiiESaIS2_EE5emptyEv, symObjAddr: 0x5124, symBinAddr: 0x10000590C, symSize: 0x38 }
  - { offset: 0x28E32, size: 0x8, addend: 0x0, symName: __ZNKSt7__debug6vectorISt4pairIiiESaIS2_EE8capacityEv, symObjAddr: 0x50E0, symBinAddr: 0x1000058C8, symSize: 0x44 }
  - { offset: 0x28E76, size: 0x8, addend: 0x0, symName: __ZNK11__gnu_debug12_Safe_vectorINSt7__debug6vectorISt4pairIiiESaIS4_EEENSt9__cxx19986vectorIS4_S5_EEE6_M_seqEv, symObjAddr: 0x50C8, symBinAddr: 0x1000058B0, symSize: 0x18 }
  - { offset: 0x28EA0, size: 0x8, addend: 0x0, symName: __ZNSt9__cxx19986vectorISt4pairIiiESaIS2_EE4backEv, symObjAddr: 0x504C, symBinAddr: 0x100005834, symSize: 0x7C }
  - { offset: 0x28EE5, size: 0x8, addend: 0x0, symName: __ZNSt9__cxx19986vectorISt4pairIiiESaIS2_EE17_M_realloc_appendIJS2_EEEvDpOT_, symObjAddr: 0x4E90, symBinAddr: 0x100005678, symSize: 0x1BC }
  - { offset: 0x2906A, size: 0x8, addend: 0x0, symName: __ZZNSt9__cxx19986vectorISt4pairIiiESaIS2_EE17_M_realloc_appendIJS2_EEEvDpOT_EN6_GuardC1EPS2_mRS3_, symObjAddr: 0x4DEC, symBinAddr: 0x1000055D4, symSize: 0x44 }
  - { offset: 0x290AF, size: 0x8, addend: 0x0, symName: __ZZNSt9__cxx19986vectorISt4pairIiiESaIS2_EE17_M_realloc_appendIJS2_EEEvDpOT_EN6_GuardD1Ev, symObjAddr: 0x4E30, symBinAddr: 0x100005618, symSize: 0x60 }
  - { offset: 0x291E2, size: 0x8, addend: 0x0, symName: __ZSt11__addressofIKNSt7__debug6vectorINS1_ISt4pairIiiESaIS3_EEESaIS5_EEEEPT_RS9_, symObjAddr: 0x4DD8, symBinAddr: 0x1000055C0, symSize: 0x14 }
  - { offset: 0x29214, size: 0x8, addend: 0x0, symName: __ZNSt12_Destroy_auxILb0EE9__destroyIPNSt7__debug6vectorISt4pairIiiESaIS5_EEEEEvT_S9_, symObjAddr: 0x4D8C, symBinAddr: 0x100005574, symSize: 0x4C }
  - { offset: 0x29288, size: 0x8, addend: 0x0, symName: __ZSt27__uninitialized_default_n_aIPNSt7__debug6vectorISt4pairIiiESaIS3_EEEmS5_ET_S7_T0_RSaIT1_E, symObjAddr: 0x4D64, symBinAddr: 0x10000554C, symSize: 0x28 }
  - { offset: 0x292EB, size: 0x8, addend: 0x0, symName: __ZNSt9__cxx199812_Vector_baseINSt7__debug6vectorISt4pairIiiESaIS4_EEESaIS6_EE17_M_create_storageEm, symObjAddr: 0x4CF8, symBinAddr: 0x1000054E0, symSize: 0x6C }
  - { offset: 0x2934D, size: 0x8, addend: 0x0, symName: __ZNSt9__cxx199812_Vector_baseINSt7__debug6vectorISt4pairIiiESaIS4_EEESaIS6_EE12_Vector_implC1ERKS7_, symObjAddr: 0x4CAC, symBinAddr: 0x100005494, symSize: 0x4C }
  - { offset: 0x293F3, size: 0x8, addend: 0x0, symName: __ZNSt9__cxx19986vectorINSt7__debug6vectorISt4pairIiiESaIS4_EEESaIS6_EE11_S_max_sizeERKS7_, symObjAddr: 0x4C48, symBinAddr: 0x100005430, symSize: 0x64 }
  - { offset: 0x294AE, size: 0x8, addend: 0x0, symName: __ZNSt9__cxx199812_Vector_baseIiSaIiEE17_M_create_storageEm, symObjAddr: 0x4BE8, symBinAddr: 0x1000053D0, symSize: 0x60 }
  - { offset: 0x29510, size: 0x8, addend: 0x0, symName: __ZNSt9__cxx199812_Vector_baseIiSaIiEE12_Vector_implC1ERKS1_, symObjAddr: 0x4B9C, symBinAddr: 0x100005384, symSize: 0x4C }
  - { offset: 0x295B6, size: 0x8, addend: 0x0, symName: __ZNSt9__cxx19986vectorIiSaIiEE11_S_max_sizeERKS1_, symObjAddr: 0x4B48, symBinAddr: 0x100005330, symSize: 0x54 }
  - { offset: 0x2966D, size: 0x8, addend: 0x0, symName: __ZSt11__addressofIKNSt7__debug6vectorIiSaIiEEEEPT_RS5_, symObjAddr: 0x4B34, symBinAddr: 0x10000531C, symSize: 0x14 }
  - { offset: 0x296F9, size: 0x8, addend: 0x0, symName: __ZN11__gnu_debug16_Error_formatter10_ParameterC1IN9__gnu_cxx17__normal_iteratorIPiNSt9__cxx19986vectorIiSaIiEEEEENSt7__debug6vectorIiS8_EESt20forward_iterator_tagEERKNS_14_Safe_iteratorIT_T0_T1_EEPKcNS0_12_Is_iteratorE, symObjAddr: 0x49CC, symBinAddr: 0x1000051B4, symSize: 0x168 }
  - { offset: 0x29755, size: 0x8, addend: 0x0, symName: __ZN11__gnu_debug14_Safe_iteratorIN9__gnu_cxx17__normal_iteratorIPiNSt9__cxx19986vectorIiSaIiEEEEENSt7__debug6vectorIiS6_EESt20forward_iterator_tagEppEv, symObjAddr: 0x48FC, symBinAddr: 0x1000050E4, symSize: 0xD0 }
  - { offset: 0x297D6, size: 0x8, addend: 0x0, symName: __ZN9__gnu_cxxeqIPiNSt9__cxx19986vectorIiSaIiEEEEEbRKNS_17__normal_iteratorIT_T0_EESB_, symObjAddr: 0x48B8, symBinAddr: 0x1000050A0, symSize: 0x44 }
  - { offset: 0x29841, size: 0x8, addend: 0x0, symName: __ZN9__gnu_cxx17__normal_iteratorIPiNSt9__cxx19986vectorIiSaIiEEEEC1Ev, symObjAddr: 0x489C, symBinAddr: 0x100005084, symSize: 0x1C }
  - { offset: 0x29867, size: 0x8, addend: 0x0, symName: __ZNK11__gnu_debug14_Safe_iteratorIN9__gnu_cxx17__normal_iteratorIPiNSt9__cxx19986vectorIiSaIiEEEEENSt7__debug6vectorIiS6_EESt20forward_iterator_tagE11_M_is_beginEv, symObjAddr: 0x4850, symBinAddr: 0x100005038, symSize: 0x4C }
  - { offset: 0x29891, size: 0x8, addend: 0x0, symName: __ZNK11__gnu_debug14_Safe_iteratorIN9__gnu_cxx17__normal_iteratorIPiNSt9__cxx19986vectorIiSaIiEEEEENSt7__debug6vectorIiS6_EESt20forward_iterator_tagE9_M_is_endEv, symObjAddr: 0x4804, symBinAddr: 0x100004FEC, symSize: 0x4C }
  - { offset: 0x298BB, size: 0x8, addend: 0x0, symName: __ZNK11__gnu_debug14_Safe_iteratorIN9__gnu_cxx17__normal_iteratorIPiNSt9__cxx19986vectorIiSaIiEEEEENSt7__debug6vectorIiS6_EESt20forward_iterator_tagE18_M_is_before_beginEv, symObjAddr: 0x47E8, symBinAddr: 0x100004FD0, symSize: 0x1C }
  - { offset: 0x298E5, size: 0x8, addend: 0x0, symName: __ZNK11__gnu_debug14_Safe_iteratorIN9__gnu_cxx17__normal_iteratorIPiNSt9__cxx19986vectorIiSaIiEEEEENSt7__debug6vectorIiS6_EESt20forward_iterator_tagE15_M_get_sequenceEv, symObjAddr: 0x47D0, symBinAddr: 0x100004FB8, symSize: 0x18 }
  - { offset: 0x2990B, size: 0x8, addend: 0x0, symName: __ZSt11__addressofIKN11__gnu_debug14_Safe_iteratorIN9__gnu_cxx17__normal_iteratorIPiNSt9__cxx19986vectorIiSaIiEEEEENSt7__debug6vectorIiS7_EESt26random_access_iterator_tagEEEPT_RSG_, symObjAddr: 0x47BC, symBinAddr: 0x100004FA4, symSize: 0x14 }
  - { offset: 0x29941, size: 0x8, addend: 0x0, symName: __ZNSt4pairIlN11__gnu_debug19_Distance_precisionEEaSEOS2_, symObjAddr: 0x4774, symBinAddr: 0x100004F5C, symSize: 0x48 }
  - { offset: 0x29978, size: 0x8, addend: 0x0, symName: __ZSt9make_pairIlN11__gnu_debug19_Distance_precisionEESt4pairINSt25__strip_reference_wrapperINSt5decayIT_E4typeEE6__typeENS3_INS4_IT0_E4typeEE6__typeEEOS5_OSA_, symObjAddr: 0x4728, symBinAddr: 0x100004F10, symSize: 0x4C }
  - { offset: 0x299C5, size: 0x8, addend: 0x0, symName: __ZN9__gnu_cxxmiIPiNSt9__cxx19986vectorIiSaIiEEEEENS_17__normal_iteratorIT_T0_E15difference_typeERKS9_SC_, symObjAddr: 0x46E8, symBinAddr: 0x100004ED0, symSize: 0x40 }
  - { offset: 0x29A16, size: 0x8, addend: 0x0, symName: __ZNSt4pairIlN11__gnu_debug19_Distance_precisionEEaSIiS1_EENSt9enable_ifIXsrSt6__and_IJSt13is_assignableIRlOT_ES6_IRS1_OT0_EEE5valueERS2_E4typeEOS_IS8_SC_E, symObjAddr: 0x469C, symBinAddr: 0x100004E84, symSize: 0x4C }
  - { offset: 0x29A5F, size: 0x8, addend: 0x0, symName: __ZSt9make_pairIiN11__gnu_debug19_Distance_precisionEESt4pairINSt25__strip_reference_wrapperINSt5decayIT_E4typeEE6__typeENS3_INS4_IT0_E4typeEE6__typeEEOS5_OSA_, symObjAddr: 0x4650, symBinAddr: 0x100004E38, symSize: 0x4C }
  - { offset: 0x29AE4, size: 0x8, addend: 0x0, symName: __ZN11__gnu_debug14_Safe_iteratorIN9__gnu_cxx17__normal_iteratorIPiNSt9__cxx19986vectorIiSaIiEEEEENSt7__debug6vectorIiS6_EESt20forward_iterator_tagEC2ES8_PKNS_19_Safe_sequence_baseE, symObjAddr: 0x4600, symBinAddr: 0x100004DE8, symSize: 0x50 }
  - { offset: 0x29B18, size: 0x8, addend: 0x0, symName: __ZSt6fill_nIPimiET_S1_T0_RKT1_, symObjAddr: 0x45B8, symBinAddr: 0x100004DA0, symSize: 0x48 }
  - { offset: 0x29BA0, size: 0x8, addend: 0x0, symName: __ZSt24__uninitialized_fill_n_aIPimiiET_S1_T0_RKT1_RSaIT2_E, symObjAddr: 0x4588, symBinAddr: 0x100004D70, symSize: 0x30 }
  - { offset: 0x29C19, size: 0x8, addend: 0x0, symName: __ZSt4fillIN9__gnu_cxx17__normal_iteratorIPiNSt9__cxx19986vectorIiSaIiEEEEEiEvT_S8_RKT0_, symObjAddr: 0x44D4, symBinAddr: 0x100004CBC, symSize: 0xB4 }
  - { offset: 0x29C96, size: 0x8, addend: 0x0, symName: __ZNSt9__cxx199812_Vector_baseIiSaIiEE17_Vector_impl_data12_M_swap_dataERS3_, symObjAddr: 0x4488, symBinAddr: 0x100004C70, symSize: 0x4C }
  - { offset: 0x29D24, size: 0x8, addend: 0x0, symName: __ZNSt9__cxx19986vectorIiSaIiEEC1EmRKiRKS1_, symObjAddr: 0x4418, symBinAddr: 0x100004C00, symSize: 0x70 }
  - { offset: 0x29D65, size: 0x8, addend: 0x0, symName: __ZN11__gnu_debug14_Safe_iteratorIN9__gnu_cxx17__normal_iteratorIPKiNSt9__cxx19986vectorIiSaIiEEEEENSt7__debug6vectorIiS7_EESt20forward_iterator_tagE4baseEv, symObjAddr: 0x4404, symBinAddr: 0x100004BEC, symSize: 0x14 }
  - { offset: 0x29D8F, size: 0x8, addend: 0x0, symName: __ZNK11__gnu_debug15_After_nth_fromIN9__gnu_cxx17__normal_iteratorIPKiNSt9__cxx19986vectorIiSaIiEEEEEEclERKS9_, symObjAddr: 0x43C4, symBinAddr: 0x100004BAC, symSize: 0x40 }
  - { offset: 0x29DC9, size: 0x8, addend: 0x0, symName: __ZN11__gnu_debug14_Safe_iteratorIN9__gnu_cxx17__normal_iteratorIPiNSt9__cxx19986vectorIiSaIiEEEEENSt7__debug6vectorIiS6_EESt20forward_iterator_tagE4baseEv, symObjAddr: 0x43B0, symBinAddr: 0x100004B98, symSize: 0x14 }
  - { offset: 0x29DF3, size: 0x8, addend: 0x0, symName: __ZNK9__gnu_cxx17__normal_iteratorIPiNSt9__cxx19986vectorIiSaIiEEEE4baseEv, symObjAddr: 0x439C, symBinAddr: 0x100004B84, symSize: 0x14 }
  - { offset: 0x29E1D, size: 0x8, addend: 0x0, symName: __ZNKSt9__cxx19986vectorIiSaIiEE8capacityEv, symObjAddr: 0x4374, symBinAddr: 0x100004B5C, symSize: 0x28 }
  - { offset: 0x29E43, size: 0x8, addend: 0x0, symName: __ZNSt9__cxx19986vectorIiSaIiEE11_S_relocateEPiS3_S3_RS1_, symObjAddr: 0x4340, symBinAddr: 0x100004B28, symSize: 0x34 }
  - { offset: 0x29EA4, size: 0x8, addend: 0x0, symName: __ZNSt9__cxx199812_Vector_baseIiSaIiEE11_M_allocateEm, symObjAddr: 0x42F0, symBinAddr: 0x100004AD8, symSize: 0x50 }
  - { offset: 0x29F0C, size: 0x8, addend: 0x0, symName: __ZNKSt9__cxx19986vectorIiSaIiEE12_M_check_lenEmPKc, symObjAddr: 0x4220, symBinAddr: 0x100004A08, symSize: 0xD0 }
  - { offset: 0x29F65, size: 0x8, addend: 0x0, symName: __ZSt27__uninitialized_default_n_aIPimiET_S1_T0_RSaIT1_E, symObjAddr: 0x41F8, symBinAddr: 0x1000049E0, symSize: 0x28 }
  - { offset: 0x29FC8, size: 0x8, addend: 0x0, symName: __ZNKSt9__cxx19986vectorIiSaIiEE8max_sizeEv, symObjAddr: 0x41D8, symBinAddr: 0x1000049C0, symSize: 0x20 }
  - { offset: 0x29FEE, size: 0x8, addend: 0x0, symName: __ZNSt12_Destroy_auxILb1EE9__destroyIPiEEvT_S3_, symObjAddr: 0x41C0, symBinAddr: 0x1000049A8, symSize: 0x18 }
  - { offset: 0x2A026, size: 0x8, addend: 0x0, symName: __ZNSt15__new_allocatorIiE10deallocateEPim, symObjAddr: 0x4190, symBinAddr: 0x100004978, symSize: 0x30 }
  - { offset: 0x2A0B4, size: 0x8, addend: 0x0, symName: __ZN11__gnu_debug16_Error_formatter10_ParameterC1INSt7__debug6vectorIxSaIxEEEEERKT_PKcNS0_12_Is_sequenceE, symObjAddr: 0x411C, symBinAddr: 0x100004904, symSize: 0x74 }
  - { offset: 0x2A142, size: 0x8, addend: 0x0, symName: __ZN11__gnu_debug16_Error_formatter10_ParameterC1INSt7__debug6vectorISt4pairIiiESaIS6_EEEEERKT_PKcNS0_12_Is_sequenceE, symObjAddr: 0x40A8, symBinAddr: 0x100004890, symSize: 0x74 }
  - { offset: 0x2A188, size: 0x8, addend: 0x0, symName: __ZSt8_DestroyIPxEvT_S1_, symObjAddr: 0x4080, symBinAddr: 0x100004868, symSize: 0x28 }
  - { offset: 0x2A1CE, size: 0x8, addend: 0x0, symName: __ZNSt9__cxx199812_Vector_baseIxSaIxEE13_M_deallocateEPxm, symObjAddr: 0x4028, symBinAddr: 0x100004810, symSize: 0x58 }
  - { offset: 0x2A250, size: 0x8, addend: 0x0, symName: __ZNSt9__cxx19986vectorIxSaIxEE21_M_default_initializeEm, symObjAddr: 0x3FD8, symBinAddr: 0x1000047C0, symSize: 0x50 }
  - { offset: 0x2A2C1, size: 0x8, addend: 0x0, symName: __ZNSt9__cxx199812_Vector_baseIxSaIxEEC2EmRKS1_, symObjAddr: 0x3F84, symBinAddr: 0x10000476C, symSize: 0x54 }
  - { offset: 0x2A2F5, size: 0x8, addend: 0x0, symName: __ZNSt9__cxx19986vectorIxSaIxEE17_S_check_init_lenEmRKS1_, symObjAddr: 0x3F00, symBinAddr: 0x1000046E8, symSize: 0x84 }
  - { offset: 0x2A3AB, size: 0x8, addend: 0x0, symName: __ZNSt7__debug6vectorISt4pairIiiESaIS2_EE4backEv, symObjAddr: 0x3E7C, symBinAddr: 0x100004664, symSize: 0x84 }
  - { offset: 0x2A3F0, size: 0x8, addend: 0x0, symName: __ZN11__gnu_debug12_Safe_vectorINSt7__debug6vectorISt4pairIiiESaIS4_EEENSt9__cxx19986vectorIS4_S5_EEE29_M_update_guaranteed_capacityEv, symObjAddr: 0x3E14, symBinAddr: 0x1000045FC, symSize: 0x68 }
  - { offset: 0x2A41A, size: 0x8, addend: 0x0, symName: __ZNK11__gnu_debug12_Safe_vectorINSt7__debug6vectorISt4pairIiiESaIS4_EEENSt9__cxx19986vectorIS4_S5_EEE24_M_requires_reallocationEm, symObjAddr: 0x3DDC, symBinAddr: 0x1000045C4, symSize: 0x38 }
  - { offset: 0x2A454, size: 0x8, addend: 0x0, symName: __ZNSt9__cxx19986vectorISt4pairIiiESaIS2_EE12emplace_backIJS2_EEERS2_DpOT_, symObjAddr: 0x3D04, symBinAddr: 0x1000044EC, symSize: 0xD8 }
  - { offset: 0x2A506, size: 0x8, addend: 0x0, symName: __ZSt7forwardISt4pairIiiEEOT_RNSt16remove_referenceIS2_E4typeE, symObjAddr: 0x3CF0, symBinAddr: 0x1000044D8, symSize: 0x14 }
  - { offset: 0x2A580, size: 0x8, addend: 0x0, symName: __ZN11__gnu_debug16_Error_formatter10_ParameterC1INSt7__debug6vectorINS4_ISt4pairIiiESaIS6_EEESaIS8_EEEEERKT_PKcNS0_12_Is_sequenceE, symObjAddr: 0x3C7C, symBinAddr: 0x100004464, symSize: 0x74 }
  - { offset: 0x2A5C6, size: 0x8, addend: 0x0, symName: __ZSt8_DestroyIPNSt7__debug6vectorISt4pairIiiESaIS3_EEEEvT_S7_, symObjAddr: 0x3C54, symBinAddr: 0x10000443C, symSize: 0x28 }
  - { offset: 0x2A60C, size: 0x8, addend: 0x0, symName: __ZNSt9__cxx199812_Vector_baseINSt7__debug6vectorISt4pairIiiESaIS4_EEESaIS6_EE13_M_deallocateEPS6_m, symObjAddr: 0x3BFC, symBinAddr: 0x1000043E4, symSize: 0x58 }
  - { offset: 0x2A68E, size: 0x8, addend: 0x0, symName: __ZNSt9__cxx19986vectorINSt7__debug6vectorISt4pairIiiESaIS4_EEESaIS6_EE21_M_default_initializeEm, symObjAddr: 0x3BAC, symBinAddr: 0x100004394, symSize: 0x50 }
  - { offset: 0x2A6FF, size: 0x8, addend: 0x0, symName: __ZNSt9__cxx199812_Vector_baseINSt7__debug6vectorISt4pairIiiESaIS4_EEESaIS6_EEC2EmRKS7_, symObjAddr: 0x3B58, symBinAddr: 0x100004340, symSize: 0x54 }
  - { offset: 0x2A733, size: 0x8, addend: 0x0, symName: __ZNSt9__cxx19986vectorINSt7__debug6vectorISt4pairIiiESaIS4_EEESaIS6_EE17_S_check_init_lenEmRKS7_, symObjAddr: 0x3AD4, symBinAddr: 0x1000042BC, symSize: 0x84 }
  - { offset: 0x2A7E9, size: 0x8, addend: 0x0, symName: __ZNSt9__cxx19986vectorIiSaIiEE21_M_default_initializeEm, symObjAddr: 0x3A84, symBinAddr: 0x10000426C, symSize: 0x50 }
  - { offset: 0x2A85A, size: 0x8, addend: 0x0, symName: __ZNSt9__cxx199812_Vector_baseIiSaIiEEC2EmRKS1_, symObjAddr: 0x3A30, symBinAddr: 0x100004218, symSize: 0x54 }
  - { offset: 0x2A88E, size: 0x8, addend: 0x0, symName: __ZNSt9__cxx19986vectorIiSaIiEE17_S_check_init_lenEmRKS1_, symObjAddr: 0x39AC, symBinAddr: 0x100004194, symSize: 0x84 }
  - { offset: 0x2A988, size: 0x8, addend: 0x0, symName: __ZN11__gnu_debug16_Error_formatter10_ParameterC1INSt7__debug6vectorIiSaIiEEEEERKT_PKcNS0_12_Is_sequenceE, symObjAddr: 0x3938, symBinAddr: 0x100004120, symSize: 0x74 }
  - { offset: 0x2A9D2, size: 0x8, addend: 0x0, symName: __ZNK9__gnu_cxx17__normal_iteratorIPiNSt9__cxx19986vectorIiSaIiEEEEdeEv, symObjAddr: 0x3920, symBinAddr: 0x100004108, symSize: 0x18 }
  - { offset: 0x2A9FC, size: 0x8, addend: 0x0, symName: __ZN11__gnu_debug16_Error_formatter11_M_iteratorINS_14_Safe_iteratorIN9__gnu_cxx17__normal_iteratorIPiNSt9__cxx19986vectorIiSaIiEEEEENSt7__debug6vectorIiS8_EESt20forward_iterator_tagEEEERS0_RKT_PKc, symObjAddr: 0x3884, symBinAddr: 0x10000406C, symSize: 0x9C }
  - { offset: 0x2AA54, size: 0x8, addend: 0x0, symName: __ZNK11__gnu_debug14_Safe_iteratorIN9__gnu_cxx17__normal_iteratorIPiNSt9__cxx19986vectorIiSaIiEEEEENSt7__debug6vectorIiS6_EESt20forward_iterator_tagE18_M_dereferenceableEv, symObjAddr: 0x380C, symBinAddr: 0x100003FF4, symSize: 0x78 }
  - { offset: 0x2AA7E, size: 0x8, addend: 0x0, symName: __ZN11__gnu_debug14_Safe_iteratorIN9__gnu_cxx17__normal_iteratorIPiNSt9__cxx19986vectorIiSaIiEEEEENSt7__debug6vectorIiS6_EESt26bidirectional_iterator_tagEppEv, symObjAddr: 0x37EC, symBinAddr: 0x100003FD4, symSize: 0x20 }
  - { offset: 0x2AAA4, size: 0x8, addend: 0x0, symName: __ZN9__gnu_cxxneIPiNSt9__cxx19986vectorIiSaIiEEEEEbRKNS_17__normal_iteratorIT_T0_EESB_, symObjAddr: 0x37A8, symBinAddr: 0x100003F90, symSize: 0x44 }
  - { offset: 0x2AAF5, size: 0x8, addend: 0x0, symName: __ZNK11__gnu_debug14_Safe_iteratorIN9__gnu_cxx17__normal_iteratorIPiNSt9__cxx19986vectorIiSaIiEEEEENSt7__debug6vectorIiS6_EESt20forward_iterator_tagE4baseEv, symObjAddr: 0x3794, symBinAddr: 0x100003F7C, symSize: 0x14 }
  - { offset: 0x2AB1F, size: 0x8, addend: 0x0, symName: __ZNK11__gnu_debug14_Safe_iteratorIN9__gnu_cxx17__normal_iteratorIPiNSt9__cxx19986vectorIiSaIiEEEEENSt7__debug6vectorIiS6_EESt20forward_iterator_tagE20_M_value_initializedEv, symObjAddr: 0x372C, symBinAddr: 0x100003F14, symSize: 0x68 }
  - { offset: 0x2AB9F, size: 0x8, addend: 0x0, symName: __ZN11__gnu_debug16_Error_formatter10_ParameterC1IN9__gnu_cxx17__normal_iteratorIPiNSt9__cxx19986vectorIiSaIiEEEEENSt7__debug6vectorIiS8_EESt26random_access_iterator_tagEERKNS_14_Safe_iteratorIT_T0_T1_EEPKcNS0_12_Is_iteratorE, symObjAddr: 0x35C4, symBinAddr: 0x100003DAC, symSize: 0x168 }
  - { offset: 0x2ABF7, size: 0x8, addend: 0x0, symName: __ZN11__gnu_debug14_Safe_iteratorIN9__gnu_cxx17__normal_iteratorIPiNSt9__cxx19986vectorIiSaIiEEEEENSt7__debug6vectorIiS6_EESt20forward_iterator_tagE11_S_constantEv, symObjAddr: 0x35BC, symBinAddr: 0x100003DA4, symSize: 0x8 }
  - { offset: 0x2AC13, size: 0x8, addend: 0x0, symName: __ZNK11__gnu_debug14_Safe_iteratorIN9__gnu_cxx17__normal_iteratorIPiNSt9__cxx19986vectorIiSaIiEEEEENSt7__debug6vectorIiS6_EESt26random_access_iterator_tagE14_M_valid_rangeERKSD_RSt4pairIlNS_19_Distance_precisionEE, symObjAddr: 0x342C, symBinAddr: 0x100003C14, symSize: 0x190 }
  - { offset: 0x2AC94, size: 0x8, addend: 0x0, symName: __ZN11__gnu_debug14_Safe_iteratorIN9__gnu_cxx17__normal_iteratorIPiNSt9__cxx19986vectorIiSaIiEEEEENSt7__debug6vectorIiS6_EESt26bidirectional_iterator_tagEC2ES8_PKNS_19_Safe_sequence_baseE, symObjAddr: 0x33FC, symBinAddr: 0x100003BE4, symSize: 0x30 }
  - { offset: 0x2ACF4, size: 0x8, addend: 0x0, symName: __ZN9__gnu_cxx17__normal_iteratorIPiNSt9__cxx19986vectorIiSaIiEEEEC1ERKS1_, symObjAddr: 0x33D4, symBinAddr: 0x100003BBC, symSize: 0x28 }
  - { offset: 0x2AD23, size: 0x8, addend: 0x0, symName: __ZNSt9__cxx19986vectorIiSaIiEE14_M_fill_assignEmRKi, symObjAddr: 0x3294, symBinAddr: 0x100003A7C, symSize: 0x140 }
  - { offset: 0x2ADD4, size: 0x8, addend: 0x0, symName: __ZN11__gnu_debug14_Safe_sequenceINSt7__debug6vectorIiSaIiEEEE16_M_invalidate_ifINS_15_After_nth_fromIN9__gnu_cxx17__normal_iteratorIPKiNSt9__cxx19986vectorIiS3_EEEEEEEEvT_, symObjAddr: 0x30FC, symBinAddr: 0x1000038E4, symSize: 0x198 }
  - { offset: 0x2AF0C, size: 0x8, addend: 0x0, symName: __ZN11__gnu_debug15_After_nth_fromIN9__gnu_cxx17__normal_iteratorIPKiNSt9__cxx19986vectorIiSaIiEEEEEEC1ERKlRKS9_, symObjAddr: 0x30C0, symBinAddr: 0x1000038A8, symSize: 0x3C }
  - { offset: 0x2AF75, size: 0x8, addend: 0x0, symName: __ZN9__gnu_cxx17__normal_iteratorIPKiNSt9__cxx19986vectorIiSaIiEEEEC1IPivEERKNS0_IT_S6_EE, symObjAddr: 0x3090, symBinAddr: 0x100003878, symSize: 0x30 }
  - { offset: 0x2AFAD, size: 0x8, addend: 0x0, symName: __ZNKSt7__debug6vectorIiSaIiEE8capacityEv, symObjAddr: 0x304C, symBinAddr: 0x100003834, symSize: 0x44 }
  - { offset: 0x2AFF1, size: 0x8, addend: 0x0, symName: __ZNSt9__cxx19986vectorIiSaIiEE15_M_erase_at_endEPi, symObjAddr: 0x2FC4, symBinAddr: 0x1000037AC, symSize: 0x88 }
  - { offset: 0x2B086, size: 0x8, addend: 0x0, symName: __ZNSt9__cxx19986vectorIiSaIiEE17_M_default_appendEm, symObjAddr: 0x2DB8, symBinAddr: 0x1000035A0, symSize: 0x20C }
  - { offset: 0x2B228, size: 0x8, addend: 0x0, symName: __ZZNSt9__cxx19986vectorIiSaIiEE17_M_default_appendEmEN6_GuardC1EPimRS1_, symObjAddr: 0x2D14, symBinAddr: 0x1000034FC, symSize: 0x44 }
  - { offset: 0x2B26D, size: 0x8, addend: 0x0, symName: __ZZNSt9__cxx19986vectorIiSaIiEE17_M_default_appendEmEN6_GuardD1Ev, symObjAddr: 0x2D58, symBinAddr: 0x100003540, symSize: 0x60 }
  - { offset: 0x2B2CB, size: 0x8, addend: 0x0, symName: __ZNK11__gnu_debug12_Safe_vectorINSt7__debug6vectorIiSaIiEEENSt9__cxx19986vectorIiS3_EEE6_M_seqEv, symObjAddr: 0x2CFC, symBinAddr: 0x1000034E4, symSize: 0x18 }
  - { offset: 0x2B2F1, size: 0x8, addend: 0x0, symName: __ZSt8_DestroyIPiEvT_S1_, symObjAddr: 0x2CD4, symBinAddr: 0x1000034BC, symSize: 0x28 }
  - { offset: 0x2B369, size: 0x8, addend: 0x0, symName: __ZNSt9__cxx19986vectorIxSaIxEEixEm, symObjAddr: 0x2C50, symBinAddr: 0x100003438, symSize: 0x84 }
  - { offset: 0x2B3BF, size: 0x8, addend: 0x0, symName: __ZN11__gnu_debug16_Error_formatter11_M_sequenceINSt7__debug6vectorIxSaIxEEEEERS0_RKT_PKc, symObjAddr: 0x2BB4, symBinAddr: 0x10000339C, symSize: 0x9C }
  - { offset: 0x2B417, size: 0x8, addend: 0x0, symName: __ZNKSt9__cxx19986vectorIxSaIxEE4sizeEv, symObjAddr: 0x2B8C, symBinAddr: 0x100003374, symSize: 0x28 }
  - { offset: 0x2B441, size: 0x8, addend: 0x0, symName: __ZNSt9__cxx19986vectorISt4pairIiiESaIS2_EEixEm, symObjAddr: 0x2B08, symBinAddr: 0x1000032F0, symSize: 0x84 }
  - { offset: 0x2B497, size: 0x8, addend: 0x0, symName: __ZN11__gnu_debug16_Error_formatter11_M_sequenceINSt7__debug6vectorISt4pairIiiESaIS5_EEEEERS0_RKT_PKc, symObjAddr: 0x2A6C, symBinAddr: 0x100003254, symSize: 0x9C }
  - { offset: 0x2B52A, size: 0x8, addend: 0x0, symName: __ZNSt9__cxx199812_Vector_baseIxSaIxEE19_M_get_Tp_allocatorEv, symObjAddr: 0x2A58, symBinAddr: 0x100003240, symSize: 0x14 }
  - { offset: 0x2B578, size: 0x8, addend: 0x0, symName: __ZNSt9__cxx199812_Vector_baseIxSaIxEED2Ev, symObjAddr: 0x2A08, symBinAddr: 0x1000031F0, symSize: 0x50 }
  - { offset: 0x2B5C5, size: 0x8, addend: 0x0, symName: __ZNSt9__cxx199812_Vector_baseIxSaIxEE12_Vector_implD1Ev, symObjAddr: 0x29DC, symBinAddr: 0x1000031C4, symSize: 0x2C }
  - { offset: 0x2B635, size: 0x8, addend: 0x0, symName: __ZN11__gnu_debug12_Safe_vectorINSt7__debug6vectorIxSaIxEEENSt9__cxx19986vectorIxS3_EEEC2Em, symObjAddr: 0x29B8, symBinAddr: 0x1000031A0, symSize: 0x24 }
  - { offset: 0x2B69A, size: 0x8, addend: 0x0, symName: __ZNSt9__cxx19986vectorIxSaIxEEC2EmRKS1_, symObjAddr: 0x2950, symBinAddr: 0x100003138, symSize: 0x68 }
  - { offset: 0x2B6F6, size: 0x8, addend: 0x0, symName: __ZNSt15__new_allocatorIxED2Ev, symObjAddr: 0x293C, symBinAddr: 0x100003124, symSize: 0x14 }
  - { offset: 0x2B732, size: 0x8, addend: 0x0, symName: __ZNSt7__debug6vectorISt4pairIiiESaIS2_EE12emplace_backIJS2_EEERS2_DpOT_, symObjAddr: 0x2878, symBinAddr: 0x100003060, symSize: 0xC4 }
  - { offset: 0x2B7A5, size: 0x8, addend: 0x0, symName: __ZSt4moveIRSt4pairIiiEEONSt16remove_referenceIT_E4typeEOS4_, symObjAddr: 0x2864, symBinAddr: 0x10000304C, symSize: 0x14 }
  - { offset: 0x2B7DE, size: 0x8, addend: 0x0, symName: __ZSt7forwardIRiEOT_RNSt16remove_referenceIS1_E4typeE, symObjAddr: 0x2850, symBinAddr: 0x100003038, symSize: 0x14 }
  - { offset: 0x2B814, size: 0x8, addend: 0x0, symName: __ZNSt9__cxx19986vectorINSt7__debug6vectorISt4pairIiiESaIS4_EEESaIS6_EEixEm, symObjAddr: 0x27C0, symBinAddr: 0x100002FA8, symSize: 0x90 }
  - { offset: 0x2B86C, size: 0x8, addend: 0x0, symName: __ZN11__gnu_debug16_Error_formatter11_M_sequenceINSt7__debug6vectorINS3_ISt4pairIiiESaIS5_EEESaIS7_EEEEERS0_RKT_PKc, symObjAddr: 0x2724, symBinAddr: 0x100002F0C, symSize: 0x9C }
  - { offset: 0x2B8C4, size: 0x8, addend: 0x0, symName: __ZNKSt9__cxx19986vectorINSt7__debug6vectorISt4pairIiiESaIS4_EEESaIS6_EE4sizeEv, symObjAddr: 0x26E8, symBinAddr: 0x100002ED0, symSize: 0x3C }
  - { offset: 0x2B929, size: 0x8, addend: 0x0, symName: __ZNSt9__cxx199812_Vector_baseINSt7__debug6vectorISt4pairIiiESaIS4_EEESaIS6_EE19_M_get_Tp_allocatorEv, symObjAddr: 0x26D4, symBinAddr: 0x100002EBC, symSize: 0x14 }
  - { offset: 0x2B977, size: 0x8, addend: 0x0, symName: __ZNSt9__cxx199812_Vector_baseINSt7__debug6vectorISt4pairIiiESaIS4_EEESaIS6_EED2Ev, symObjAddr: 0x2670, symBinAddr: 0x100002E58, symSize: 0x64 }
  - { offset: 0x2B9C4, size: 0x8, addend: 0x0, symName: __ZNSt9__cxx199812_Vector_baseINSt7__debug6vectorISt4pairIiiESaIS4_EEESaIS6_EE12_Vector_implD1Ev, symObjAddr: 0x2644, symBinAddr: 0x100002E2C, symSize: 0x2C }
  - { offset: 0x2BA34, size: 0x8, addend: 0x0, symName: __ZN11__gnu_debug12_Safe_vectorINSt7__debug6vectorINS2_ISt4pairIiiESaIS4_EEESaIS6_EEENSt9__cxx19986vectorIS6_S7_EEEC2Em, symObjAddr: 0x2620, symBinAddr: 0x100002E08, symSize: 0x24 }
  - { offset: 0x2BA99, size: 0x8, addend: 0x0, symName: __ZNSt9__cxx19986vectorINSt7__debug6vectorISt4pairIiiESaIS4_EEESaIS6_EEC2EmRKS7_, symObjAddr: 0x25B8, symBinAddr: 0x100002DA0, symSize: 0x68 }
  - { offset: 0x2BAF5, size: 0x8, addend: 0x0, symName: __ZNSt15__new_allocatorINSt7__debug6vectorISt4pairIiiESaIS3_EEEED2Ev, symObjAddr: 0x25A4, symBinAddr: 0x100002D8C, symSize: 0x14 }
  - { offset: 0x2BB58, size: 0x8, addend: 0x0, symName: __ZN11__gnu_debug12_Safe_vectorINSt7__debug6vectorIiSaIiEEENSt9__cxx19986vectorIiS3_EEEC2Em, symObjAddr: 0x2580, symBinAddr: 0x100002D68, symSize: 0x24 }
  - { offset: 0x2BBBD, size: 0x8, addend: 0x0, symName: __ZNSt9__cxx19986vectorIiSaIiEEC2EmRKS1_, symObjAddr: 0x2518, symBinAddr: 0x100002D00, symSize: 0x68 }
  - { offset: 0x2BC0B, size: 0x8, addend: 0x0, symName: __ZNSt9__cxx19986vectorIiSaIiEEixEm, symObjAddr: 0x2494, symBinAddr: 0x100002C7C, symSize: 0x84 }
  - { offset: 0x2BC61, size: 0x8, addend: 0x0, symName: __ZN11__gnu_debug16_Error_formatter11_M_sequenceINSt7__debug6vectorIiSaIiEEEEERS0_RKT_PKc, symObjAddr: 0x23F8, symBinAddr: 0x100002BE0, symSize: 0x9C }
  - { offset: 0x2BCB9, size: 0x8, addend: 0x0, symName: __ZNK11__gnu_debug14_Safe_iteratorIN9__gnu_cxx17__normal_iteratorIPiNSt9__cxx19986vectorIiSaIiEEEEENSt7__debug6vectorIiS6_EESt20forward_iterator_tagEdeEv, symObjAddr: 0x2358, symBinAddr: 0x100002B40, symSize: 0xA0 }
  - { offset: 0x2BD1A, size: 0x8, addend: 0x0, symName: __ZN11__gnu_debug14_Safe_iteratorIN9__gnu_cxx17__normal_iteratorIPiNSt9__cxx19986vectorIiSaIiEEEEENSt7__debug6vectorIiS6_EESt26random_access_iterator_tagEppEv, symObjAddr: 0x2338, symBinAddr: 0x100002B20, symSize: 0x20 }
  - { offset: 0x2BD47, size: 0x8, addend: 0x0, symName: __ZN11__gnu_debugneERKNS_14_Safe_iteratorIN9__gnu_cxx17__normal_iteratorIPiNSt9__cxx19986vectorIiSaIiEEEEENSt7__debug6vectorIiS6_EESt26random_access_iterator_tagEESF_, symObjAddr: 0x2148, symBinAddr: 0x100002930, symSize: 0x1F0 }
  - { offset: 0x2BDBD, size: 0x8, addend: 0x0, symName: __ZN11__gnu_debug16_Error_formatter11_M_iteratorINS_14_Safe_iteratorIN9__gnu_cxx17__normal_iteratorIPiNSt9__cxx19986vectorIiSaIiEEEEENSt7__debug6vectorIiS8_EESt26random_access_iterator_tagEEEERS0_RKT_PKc, symObjAddr: 0x20AC, symBinAddr: 0x100002894, symSize: 0x9C }
  - { offset: 0x2BE11, size: 0x8, addend: 0x0, symName: __ZN11__gnu_debug13__valid_rangeIN9__gnu_cxx17__normal_iteratorIPiNSt9__cxx19986vectorIiSaIiEEEEENSt7__debug6vectorIiS6_EESt26random_access_iterator_tagEEbRKNS_14_Safe_iteratorIT_T0_T1_EESJ_, symObjAddr: 0x207C, symBinAddr: 0x100002864, symSize: 0x30 }
  - { offset: 0x2BE7C, size: 0x8, addend: 0x0, symName: __ZNSt9__cxx19986vectorIiSaIiEE3endEv, symObjAddr: 0x2054, symBinAddr: 0x10000283C, symSize: 0x28 }
  - { offset: 0x2BEDC, size: 0x8, addend: 0x0, symName: __ZN11__gnu_debug14_Safe_iteratorIN9__gnu_cxx17__normal_iteratorIPiNSt9__cxx19986vectorIiSaIiEEEEENSt7__debug6vectorIiS6_EESt26random_access_iterator_tagEC1ES8_PKNS_19_Safe_sequence_baseE, symObjAddr: 0x2024, symBinAddr: 0x10000280C, symSize: 0x30 }
  - { offset: 0x2BF14, size: 0x8, addend: 0x0, symName: __ZNSt9__cxx19986vectorIiSaIiEE5beginEv, symObjAddr: 0x2000, symBinAddr: 0x1000027E8, symSize: 0x24 }
  - { offset: 0x2BF3E, size: 0x8, addend: 0x0, symName: __ZNSt9__cxx19986vectorIiSaIiEE6assignEmRKi, symObjAddr: 0x1FD0, symBinAddr: 0x1000027B8, symSize: 0x30 }
  - { offset: 0x2BF8A, size: 0x8, addend: 0x0, symName: __ZNSt7__debug6vectorIiSaIiEE23_M_invalidate_after_nthEl, symObjAddr: 0x1F70, symBinAddr: 0x100002758, symSize: 0x60 }
  - { offset: 0x2BFC5, size: 0x8, addend: 0x0, symName: __ZNKSt9__cxx19986vectorIiSaIiEE4sizeEv, symObjAddr: 0x1F48, symBinAddr: 0x100002730, symSize: 0x28 }
  - { offset: 0x2BFEF, size: 0x8, addend: 0x0, symName: __ZNK11__gnu_debug12_Safe_vectorINSt7__debug6vectorIiSaIiEEENSt9__cxx19986vectorIiS3_EEE24_M_requires_reallocationEm, symObjAddr: 0x1F10, symBinAddr: 0x1000026F8, symSize: 0x38 }
  - { offset: 0x2C029, size: 0x8, addend: 0x0, symName: __ZNSt9__cxx19986vectorIiSaIiEE6resizeEm, symObjAddr: 0x1E60, symBinAddr: 0x100002648, symSize: 0xB0 }
  - { offset: 0x2C064, size: 0x8, addend: 0x0, symName: __ZN11__gnu_debug12_Safe_vectorINSt7__debug6vectorIiSaIiEEENSt9__cxx19986vectorIiS3_EEE29_M_update_guaranteed_capacityEv, symObjAddr: 0x1DF8, symBinAddr: 0x1000025E0, symSize: 0x68 }
  - { offset: 0x2C0C9, size: 0x8, addend: 0x0, symName: __ZNSt9__cxx199812_Vector_baseIiSaIiEE19_M_get_Tp_allocatorEv, symObjAddr: 0x1DE4, symBinAddr: 0x1000025CC, symSize: 0x14 }
  - { offset: 0x2C0F3, size: 0x8, addend: 0x0, symName: __ZNSt9__cxx199812_Vector_baseIiSaIiEE13_M_deallocateEPim, symObjAddr: 0x1D8C, symBinAddr: 0x100002574, symSize: 0x58 }
  - { offset: 0x2C199, size: 0x8, addend: 0x0, symName: __ZNSt15__new_allocatorIiED2Ev, symObjAddr: 0x1D78, symBinAddr: 0x100002560, symSize: 0x14 }
  - { offset: 0x2C1D9, size: 0x8, addend: 0x0, symName: __ZNSt9__cxx199812_Vector_baseIiSaIiEE17_Vector_impl_dataC1Ev, symObjAddr: 0x1D4C, symBinAddr: 0x100002534, symSize: 0x2C }
  - { offset: 0x2C203, size: 0x8, addend: 0x0, symName: __ZNSt9__cxx199812_Vector_baseIiSaIiEE17_Vector_impl_dataC2Ev, symObjAddr: 0x1D20, symBinAddr: 0x100002508, symSize: 0x2C }
  - { offset: 0x2C229, size: 0x8, addend: 0x0, symName: __ZNSt7__debug6vectorIxSaIxEEixEm, symObjAddr: 0x1C3C, symBinAddr: 0x100002424, symSize: 0xE4 }
  - { offset: 0x2C27F, size: 0x8, addend: 0x0, symName: __ZNSt7__debug6vectorISt4pairIiiESaIS2_EEixEm, symObjAddr: 0x1B58, symBinAddr: 0x100002340, symSize: 0xE4 }
  - { offset: 0x2C2D7, size: 0x8, addend: 0x0, symName: __ZNKSt9__cxx19986vectorISt4pairIiiESaIS2_EE4sizeEv, symObjAddr: 0x1B30, symBinAddr: 0x100002318, symSize: 0x28 }
  - { offset: 0x2C325, size: 0x8, addend: 0x0, symName: __ZNSt9__cxx19986vectorIxSaIxEED2Ev, symObjAddr: 0x1AD4, symBinAddr: 0x1000022BC, symSize: 0x5C }
  - { offset: 0x2C3B5, size: 0x8, addend: 0x0, symName: __ZNSt7__debug6vectorIxSaIxEEC1EmRKS1_, symObjAddr: 0x1A6C, symBinAddr: 0x100002254, symSize: 0x68 }
  - { offset: 0x2C407, size: 0x8, addend: 0x0, symName: __ZN11__gnu_debug15_Safe_containerINSt7__debug6vectorIxSaIxEEES3_NS_14_Safe_sequenceELb1EEC2Ev, symObjAddr: 0x1A4C, symBinAddr: 0x100002234, symSize: 0x20 }
  - { offset: 0x2C455, size: 0x8, addend: 0x0, symName: __ZN11__gnu_debug14_Safe_sequenceINSt7__debug6vectorIxSaIxEEEEC2Ev, symObjAddr: 0x1A2C, symBinAddr: 0x100002214, symSize: 0x20 }
  - { offset: 0x2C4B1, size: 0x8, addend: 0x0, symName: __ZNSt7__debug6vectorISt4pairIiiESaIS2_EE9push_backIS2_EEN9__gnu_cxx11__enable_ifIXntsrSt10__are_sameIT_bE7__valueEvE6__typeEOS2_, symObjAddr: 0x19FC, symBinAddr: 0x1000021E4, symSize: 0x30 }
  - { offset: 0x2C53D, size: 0x8, addend: 0x0, symName: __ZNSt4pairIiiEC1IRiiLb1EEEOT_OT0_, symObjAddr: 0x19B4, symBinAddr: 0x10000219C, symSize: 0x48 }
  - { offset: 0x2C587, size: 0x8, addend: 0x0, symName: __ZNSt7__debug6vectorINS0_ISt4pairIiiESaIS2_EEESaIS4_EEixEm, symObjAddr: 0x18D0, symBinAddr: 0x1000020B8, symSize: 0xE4 }
  - { offset: 0x2C603, size: 0x8, addend: 0x0, symName: __ZNSt9__cxx19986vectorINSt7__debug6vectorISt4pairIiiESaIS4_EEESaIS6_EED2Ev, symObjAddr: 0x1874, symBinAddr: 0x10000205C, symSize: 0x5C }
  - { offset: 0x2C693, size: 0x8, addend: 0x0, symName: __ZNSt7__debug6vectorINS0_ISt4pairIiiESaIS2_EEESaIS4_EEC1EmRKS5_, symObjAddr: 0x180C, symBinAddr: 0x100001FF4, symSize: 0x68 }
  - { offset: 0x2C6E5, size: 0x8, addend: 0x0, symName: __ZN11__gnu_debug15_Safe_containerINSt7__debug6vectorINS2_ISt4pairIiiESaIS4_EEESaIS6_EEES7_NS_14_Safe_sequenceELb1EEC2Ev, symObjAddr: 0x17EC, symBinAddr: 0x100001FD4, symSize: 0x20 }
  - { offset: 0x2C733, size: 0x8, addend: 0x0, symName: __ZN11__gnu_debug14_Safe_sequenceINSt7__debug6vectorINS2_ISt4pairIiiESaIS4_EEESaIS6_EEEEC2Ev, symObjAddr: 0x17CC, symBinAddr: 0x100001FB4, symSize: 0x20 }
  - { offset: 0x2C7C3, size: 0x8, addend: 0x0, symName: __ZNSt7__debug6vectorIiSaIiEEC1EmRKS1_, symObjAddr: 0x1764, symBinAddr: 0x100001F4C, symSize: 0x68 }
  - { offset: 0x2C80D, size: 0x8, addend: 0x0, symName: __ZSt3maxIiERKT_S2_S2_, symObjAddr: 0x172C, symBinAddr: 0x100001F14, symSize: 0x38 }
  - { offset: 0x2C851, size: 0x8, addend: 0x0, symName: __ZSt4swapIiENSt9enable_ifIXsrSt6__and_IJSt6__not_ISt15__is_tuple_likeIT_EESt21is_move_constructibleIS4_ESt18is_move_assignableIS4_EEE5valueEvE4typeERS4_SE_, symObjAddr: 0x16D8, symBinAddr: 0x100001EC0, symSize: 0x54 }
  - { offset: 0x2C8AA, size: 0x8, addend: 0x0, symName: __ZSt4moveIRiEONSt16remove_referenceIT_E4typeEOS2_, symObjAddr: 0x16C4, symBinAddr: 0x100001EAC, symSize: 0x14 }
  - { offset: 0x2C8E0, size: 0x8, addend: 0x0, symName: __ZNSt7__debug6vectorIiSaIiEEixEm, symObjAddr: 0x15E0, symBinAddr: 0x100001DC8, symSize: 0xE4 }
  - { offset: 0x2C932, size: 0x8, addend: 0x0, symName: __ZSt4iotaIN11__gnu_debug14_Safe_iteratorIN9__gnu_cxx17__normal_iteratorIPiNSt9__cxx19986vectorIiSaIiEEEEENSt7__debug6vectorIiS7_EESt26random_access_iterator_tagEEiEvT_SF_T0_, symObjAddr: 0x14F4, symBinAddr: 0x100001CDC, symSize: 0xEC }
  - { offset: 0x2C9AE, size: 0x8, addend: 0x0, symName: __ZNSt7__debug6vectorIiSaIiEE3endEv, symObjAddr: 0x14B0, symBinAddr: 0x100001C98, symSize: 0x44 }
  - { offset: 0x2C9D8, size: 0x8, addend: 0x0, symName: __ZNSt7__debug6vectorIiSaIiEE5beginEv, symObjAddr: 0x146C, symBinAddr: 0x100001C54, symSize: 0x44 }
  - { offset: 0x2CA02, size: 0x8, addend: 0x0, symName: __ZNSt7__debug6vectorIiSaIiEE6assignEmRKi, symObjAddr: 0x140C, symBinAddr: 0x100001BF4, symSize: 0x60 }
  - { offset: 0x2CA68, size: 0x8, addend: 0x0, symName: __ZNSt7__debug6vectorIiSaIiEE6resizeEm, symObjAddr: 0x134C, symBinAddr: 0x100001B34, symSize: 0xC0 }
  - { offset: 0x2CAE8, size: 0x8, addend: 0x0, symName: __ZN11__gnu_debug12_Safe_vectorINSt7__debug6vectorIiSaIiEEENSt9__cxx19986vectorIiS3_EEEC2Ev, symObjAddr: 0x1324, symBinAddr: 0x100001B0C, symSize: 0x28 }
  - { offset: 0x2CB32, size: 0x8, addend: 0x0, symName: __ZNSt9__cxx19986vectorIiSaIiEED1Ev, symObjAddr: 0x12C8, symBinAddr: 0x100001AB0, symSize: 0x5C }
  - { offset: 0x2CB92, size: 0x8, addend: 0x0, symName: __ZNSt9__cxx19986vectorIiSaIiEED2Ev, symObjAddr: 0x126C, symBinAddr: 0x100001A54, symSize: 0x5C }
  - { offset: 0x2CC12, size: 0x8, addend: 0x0, symName: __ZNSt9__cxx199812_Vector_baseIiSaIiEED2Ev, symObjAddr: 0x121C, symBinAddr: 0x100001A04, symSize: 0x50 }
  - { offset: 0x2CC72, size: 0x8, addend: 0x0, symName: __ZNSt9__cxx199812_Vector_baseIiSaIiEE12_Vector_implC1Ev, symObjAddr: 0x11E4, symBinAddr: 0x1000019CC, symSize: 0x38 }
  - { offset: 0x2CCE1, size: 0x8, addend: 0x0, symName: __ZSt7forwardIiEOT_RNSt16remove_referenceIS0_E4typeE, symObjAddr: 0x11D0, symBinAddr: 0x1000019B8, symSize: 0x14 }
  - { offset: 0x2CD13, size: 0x8, addend: 0x0, symName: __ZSt3maxImERKT_S2_S2_, symObjAddr: 0x1198, symBinAddr: 0x100001980, symSize: 0x38 }
  - { offset: 0x2CD5E, size: 0x8, addend: 0x0, symName: _main, symObjAddr: 0x1128, symBinAddr: 0x100001910, symSize: 0x70 }
  - { offset: 0x2CD8E, size: 0x8, addend: 0x0, symName: __Z5solvev, symObjAddr: 0xD90, symBinAddr: 0x100001578, symSize: 0x398 }
  - { offset: 0x2D05D, size: 0x8, addend: 0x0, symName: __ZNSt7__debug6vectorIxSaIxEED1Ev, symObjAddr: 0xD64, symBinAddr: 0x10000154C, symSize: 0x2C }
  - { offset: 0x2D0AA, size: 0x8, addend: 0x0, symName: __ZN11__gnu_debug15_Safe_containerINSt7__debug6vectorIxSaIxEEES3_NS_14_Safe_sequenceELb1EED2Ev, symObjAddr: 0xD44, symBinAddr: 0x10000152C, symSize: 0x20 }
  - { offset: 0x2D0F7, size: 0x8, addend: 0x0, symName: __ZN11__gnu_debug14_Safe_sequenceINSt7__debug6vectorIxSaIxEEEED2Ev, symObjAddr: 0xD24, symBinAddr: 0x10000150C, symSize: 0x20 }
  - { offset: 0x2D144, size: 0x8, addend: 0x0, symName: __ZN3DSUD1Ev, symObjAddr: 0xCF8, symBinAddr: 0x1000014E0, symSize: 0x2C }
  - { offset: 0x2D18E, size: 0x8, addend: 0x0, symName: __ZNSt7__debug6vectorINS0_ISt4pairIiiESaIS2_EEESaIS4_EED1Ev, symObjAddr: 0xCCC, symBinAddr: 0x1000014B4, symSize: 0x2C }
  - { offset: 0x2D1DB, size: 0x8, addend: 0x0, symName: __ZN11__gnu_debug15_Safe_containerINSt7__debug6vectorINS2_ISt4pairIiiESaIS4_EEESaIS6_EEES7_NS_14_Safe_sequenceELb1EED2Ev, symObjAddr: 0xCAC, symBinAddr: 0x100001494, symSize: 0x20 }
  - { offset: 0x2D228, size: 0x8, addend: 0x0, symName: __ZN11__gnu_debug14_Safe_sequenceINSt7__debug6vectorINS2_ISt4pairIiiESaIS4_EEESaIS6_EEEED2Ev, symObjAddr: 0xC8C, symBinAddr: 0x100001474, symSize: 0x20 }
  - { offset: 0x2D24E, size: 0x8, addend: 0x0, symName: __ZN3DSU5uniteEii, symObjAddr: 0xB04, symBinAddr: 0x1000012EC, symSize: 0x188 }
  - { offset: 0x2D2B8, size: 0x8, addend: 0x0, symName: __ZN3DSU4findEi, symObjAddr: 0xA7C, symBinAddr: 0x100001264, symSize: 0x88 }
  - { offset: 0x2D319, size: 0x8, addend: 0x0, symName: __ZN3DSUC1Ei, symObjAddr: 0x96C, symBinAddr: 0x100001154, symSize: 0x110 }
  - { offset: 0x2D372, size: 0x8, addend: 0x0, symName: __ZN11__gnu_debug14_Safe_iteratorIN9__gnu_cxx17__normal_iteratorIPiNSt9__cxx19986vectorIiSaIiEEEEENSt7__debug6vectorIiS6_EESt26random_access_iterator_tagED1Ev, symObjAddr: 0x94C, symBinAddr: 0x100001134, symSize: 0x20 }
  - { offset: 0x2D3C0, size: 0x8, addend: 0x0, symName: __ZN11__gnu_debug14_Safe_iteratorIN9__gnu_cxx17__normal_iteratorIPiNSt9__cxx19986vectorIiSaIiEEEEENSt7__debug6vectorIiS6_EESt26bidirectional_iterator_tagED2Ev, symObjAddr: 0x92C, symBinAddr: 0x100001114, symSize: 0x20 }
  - { offset: 0x2D40D, size: 0x8, addend: 0x0, symName: __ZN11__gnu_debug14_Safe_iteratorIN9__gnu_cxx17__normal_iteratorIPiNSt9__cxx19986vectorIiSaIiEEEEENSt7__debug6vectorIiS6_EESt20forward_iterator_tagED2Ev, symObjAddr: 0x908, symBinAddr: 0x1000010F0, symSize: 0x24 }
  - { offset: 0x2D457, size: 0x8, addend: 0x0, symName: __ZNSt7__debug6vectorIiSaIiEED1Ev, symObjAddr: 0x8DC, symBinAddr: 0x1000010C4, symSize: 0x2C }
  - { offset: 0x2D497, size: 0x8, addend: 0x0, symName: __ZNSt7__debug6vectorIiSaIiEEC1Ev, symObjAddr: 0x8A4, symBinAddr: 0x10000108C, symSize: 0x38 }
  - { offset: 0x2D4D7, size: 0x8, addend: 0x0, symName: __ZNSt9__cxx19986vectorIiSaIiEEC2Ev, symObjAddr: 0x884, symBinAddr: 0x10000106C, symSize: 0x20 }
  - { offset: 0x2D517, size: 0x8, addend: 0x0, symName: __ZNSt9__cxx199812_Vector_baseIiSaIiEEC2Ev, symObjAddr: 0x864, symBinAddr: 0x10000104C, symSize: 0x20 }
  - { offset: 0x2D564, size: 0x8, addend: 0x0, symName: __ZNSt9__cxx199812_Vector_baseIiSaIiEE12_Vector_implD1Ev, symObjAddr: 0x838, symBinAddr: 0x100001020, symSize: 0x2C }
  - { offset: 0x2D5D4, size: 0x8, addend: 0x0, symName: __ZN11__gnu_debug15_Safe_containerINSt7__debug6vectorIiSaIiEEES3_NS_14_Safe_sequenceELb1EED2Ev, symObjAddr: 0x818, symBinAddr: 0x100001000, symSize: 0x20 }
  - { offset: 0x2D614, size: 0x8, addend: 0x0, symName: __ZN11__gnu_debug15_Safe_containerINSt7__debug6vectorIiSaIiEEES3_NS_14_Safe_sequenceELb1EEC2Ev, symObjAddr: 0x7F8, symBinAddr: 0x100000FE0, symSize: 0x20 }
  - { offset: 0x2D661, size: 0x8, addend: 0x0, symName: __ZN11__gnu_debug14_Safe_sequenceINSt7__debug6vectorIiSaIiEEEED2Ev, symObjAddr: 0x7D8, symBinAddr: 0x100000FC0, symSize: 0x20 }
  - { offset: 0x2D6A4, size: 0x8, addend: 0x0, symName: __ZN11__gnu_debug14_Safe_sequenceINSt7__debug6vectorIiSaIiEEEEC2Ev, symObjAddr: 0x7B8, symBinAddr: 0x100000FA0, symSize: 0x20 }
  - { offset: 0x2D6C6, size: 0x8, addend: 0x0, symName: __ZSt3minImERKT_S2_S2_, symObjAddr: 0x780, symBinAddr: 0x100000F68, symSize: 0x38 }
  - { offset: 0x2D70C, size: 0x8, addend: 0x0, symName: __ZNK11__gnu_debug19_Safe_sequence_base17_M_invalidate_allEv, symObjAddr: 0x72C, symBinAddr: 0x100000F14, symSize: 0x54 }
  - { offset: 0x2D75A, size: 0x8, addend: 0x0, symName: __ZN11__gnu_debug19_Safe_sequence_baseD2Ev, symObjAddr: 0x6F4, symBinAddr: 0x100000EDC, symSize: 0x38 }
  - { offset: 0x2D7B3, size: 0x8, addend: 0x0, symName: __ZN11__gnu_debug19_Safe_sequence_baseC2Ev, symObjAddr: 0x6C4, symBinAddr: 0x100000EAC, symSize: 0x30 }
  - { offset: 0x2D7D9, size: 0x8, addend: 0x0, symName: __ZN11__gnu_debug19_Safe_iterator_base13_M_invalidateEv, symObjAddr: 0x6A8, symBinAddr: 0x100000E90, symSize: 0x1C }
  - { offset: 0x2D827, size: 0x8, addend: 0x0, symName: __ZN11__gnu_debug19_Safe_iterator_baseD2Ev, symObjAddr: 0x670, symBinAddr: 0x100000E58, symSize: 0x38 }
  - { offset: 0x2D89A, size: 0x8, addend: 0x0, symName: __ZN11__gnu_debug19_Safe_iterator_baseC2EPKNS_19_Safe_sequence_baseEb, symObjAddr: 0x600, symBinAddr: 0x100000DE8, symSize: 0x70 }
  - { offset: 0x2D90F, size: 0x8, addend: 0x0, symName: __ZN9__gnu_cxx13__scoped_lockD1Ev, symObjAddr: 0x5DC, symBinAddr: 0x100000DC4, symSize: 0x24 }
  - { offset: 0x2D95C, size: 0x8, addend: 0x0, symName: __ZN9__gnu_cxx13__scoped_lockC1ERNS_7__mutexE, symObjAddr: 0x5A8, symBinAddr: 0x100000D90, symSize: 0x34 }
  - { offset: 0x2D98B, size: 0x8, addend: 0x0, symName: __ZN9__gnu_cxx7__mutex6unlockEv, symObjAddr: 0x550, symBinAddr: 0x100000D38, symSize: 0x58 }
  - { offset: 0x2D9B5, size: 0x8, addend: 0x0, symName: __ZN9__gnu_cxx7__mutex4lockEv, symObjAddr: 0x4F8, symBinAddr: 0x100000CE0, symSize: 0x58 }
  - { offset: 0x2D9DB, size: 0x8, addend: 0x0, symName: __ZN9__gnu_cxx32__throw_concurrence_unlock_errorEv, symObjAddr: 0x4BC, symBinAddr: 0x100000CA4, symSize: 0x3C }
  - { offset: 0x2DA1E, size: 0x8, addend: 0x0, symName: __ZN9__gnu_cxx26__concurrence_unlock_errorD0Ev, symObjAddr: 0x494, symBinAddr: 0x100000C7C, symSize: 0x28 }
  - { offset: 0x2DA48, size: 0x8, addend: 0x0, symName: __ZN9__gnu_cxx26__concurrence_unlock_errorD1Ev, symObjAddr: 0x460, symBinAddr: 0x100000C48, symSize: 0x34 }
  - { offset: 0x2DA8B, size: 0x8, addend: 0x0, symName: __ZN9__gnu_cxx26__concurrence_unlock_errorC1Ev, symObjAddr: 0x42C, symBinAddr: 0x100000C14, symSize: 0x34 }
  - { offset: 0x2DAAD, size: 0x8, addend: 0x0, symName: __ZN9__gnu_cxx30__throw_concurrence_lock_errorEv, symObjAddr: 0x3F0, symBinAddr: 0x100000BD8, symSize: 0x3C }
  - { offset: 0x2DAF0, size: 0x8, addend: 0x0, symName: __ZN9__gnu_cxx24__concurrence_lock_errorD0Ev, symObjAddr: 0x3C8, symBinAddr: 0x100000BB0, symSize: 0x28 }
  - { offset: 0x2DB1A, size: 0x8, addend: 0x0, symName: __ZN9__gnu_cxx24__concurrence_lock_errorD1Ev, symObjAddr: 0x394, symBinAddr: 0x100000B7C, symSize: 0x34 }
  - { offset: 0x2DB5D, size: 0x8, addend: 0x0, symName: __ZN9__gnu_cxx24__concurrence_lock_errorC1Ev, symObjAddr: 0x360, symBinAddr: 0x100000B48, symSize: 0x34 }
  - { offset: 0x2DB83, size: 0x8, addend: 0x0, symName: __ZNK9__gnu_cxx26__concurrence_unlock_error4whatEv, symObjAddr: 0x348, symBinAddr: 0x100000B30, symSize: 0x18 }
  - { offset: 0x2DBAD, size: 0x8, addend: 0x0, symName: __ZNK9__gnu_cxx24__concurrence_lock_error4whatEv, symObjAddr: 0x330, symBinAddr: 0x100000B18, symSize: 0x18 }
  - { offset: 0x2DBDB, size: 0x8, addend: 0x0, symName: __ZL22__gthread_mutex_unlockP23_opaque_pthread_mutex_t, symObjAddr: 0x2F0, symBinAddr: 0x100000AD8, symSize: 0x40 }
  - { offset: 0x2DC0D, size: 0x8, addend: 0x0, symName: __ZL20__gthread_mutex_lockP23_opaque_pthread_mutex_t, symObjAddr: 0x2B0, symBinAddr: 0x100000A98, symSize: 0x40 }
  - { offset: 0x2DC3F, size: 0x8, addend: 0x0, symName: __ZL18__gthread_active_pv, symObjAddr: 0x2A8, symBinAddr: 0x100000A90, symSize: 0x8 }
  - { offset: 0x2DC62, size: 0x8, addend: 0x0, symName: __ZnwmPv, symObjAddr: 0x290, symBinAddr: 0x100000A78, symSize: 0x18 }
  - { offset: 0x2DC94, size: 0x8, addend: 0x0, symName: __ZSt17__size_to_integerm, symObjAddr: 0x27C, symBinAddr: 0x100000A64, symSize: 0x14 }
  - { offset: 0x2DCBE, size: 0x8, addend: 0x0, symName: __ZN11__gnu_debug16_Error_formatter5_S_atEPKcjS2_, symObjAddr: 0x1E8, symBinAddr: 0x1000009D0, symSize: 0x94 }
  - { offset: 0x2DD17, size: 0x8, addend: 0x0, symName: __ZZN11__gnu_debug16_Error_formatter5_S_atEPKcjS2_E11__formatter, symObjAddr: 0x6F48, symBinAddr: 0x100014000, symSize: 0x0 }
  - { offset: 0x2DD6E, size: 0x8, addend: 0x0, symName: __ZN11__gnu_debug16_Error_formatterC1EPKcjS2_, symObjAddr: 0x15C, symBinAddr: 0x100000944, symSize: 0x8C }
  - { offset: 0x2DDAF, size: 0x8, addend: 0x0, symName: __ZN11__gnu_debug16_Error_formatter10_M_integerElPKc, symObjAddr: 0xC0, symBinAddr: 0x1000008A8, symSize: 0x9C }
  - { offset: 0x2DE34, size: 0x8, addend: 0x0, symName: __ZN11__gnu_debug16_Error_formatter10_ParameterC1ElPKc, symObjAddr: 0x6C, symBinAddr: 0x100000854, symSize: 0x54 }
  - { offset: 0x2DE86, size: 0x8, addend: 0x0, symName: __ZN11__gnu_debug16_Error_formatter10_ParameterC1Ev, symObjAddr: 0x3C, symBinAddr: 0x100000824, symSize: 0x30 }
  - { offset: 0x2DEC6, size: 0x8, addend: 0x0, symName: __ZNSt9exceptionC2Ev, symObjAddr: 0x14, symBinAddr: 0x1000007FC, symSize: 0x28 }
  - { offset: 0x2DEE8, size: 0x8, addend: 0x0, symName: __ZN11__gnu_debug20__check_singular_auxEPKv, symObjAddr: 0x0, symBinAddr: 0x1000007E8, symSize: 0x14 }
...
