---
triple:          'arm64-apple-darwin'
binary-path:     '/Users/mengchengxi/Documents/code/C++C/competition/E. Graph Composition'
relocations:
  - { offset: 0x1D4A9, size: 0x8, addend: 0x0, symName: __ZStL8__ioinit, symObjAddr: 0x93582, symBinAddr: 0x10000C000, symSize: 0x0 }
  - { offset: 0x1D79C, size: 0x8, addend: 0x0, symName: __ZL3INF, symObjAddr: 0x210C, symBinAddr: 0x100002F18, symSize: 0x0 }
  - { offset: 0x1D7B3, size: 0x8, addend: 0x0, symName: __ZL3mod, symObjAddr: 0x2110, symBinAddr: 0x100002F1C, symSize: 0x0 }
  - { offset: 0x1DE92, size: 0x8, addend: 0x0, symName: __GLOBAL__sub_I_E._Graph_Composition.cpp, symObjAddr: 0x21E4, symBinAddr: 0x10000283C, symSize: 0x14 }
  - { offset: 0x1DEAA, size: 0x8, addend: 0x0, symName: __Z41__static_initialization_and_destruction_0v, symObjAddr: 0x21A8, symBinAddr: 0x100002800, symSize: 0x3C }
  - { offset: 0x1DEC2, size: 0x8, addend: 0x0, symName: __ZNSt10_Head_baseILm0EOSt4pairIiiELb0EE7_M_headERS3_, symObjAddr: 0x20F0, symBinAddr: 0x1000027E8, symSize: 0x18 }
  - { offset: 0x1DEEB, size: 0x8, addend: 0x0, symName: __ZNSt11_Tuple_implILm0EJOSt4pairIiiEEE7_M_headERS3_, symObjAddr: 0x20D4, symBinAddr: 0x1000027CC, symSize: 0x1C }
  - { offset: 0x1DF15, size: 0x8, addend: 0x0, symName: __ZSt12__get_helperILm0EOSt4pairIiiEJEERT0_RSt11_Tuple_implIXT_EJS3_DpT1_EE, symObjAddr: 0x20B8, symBinAddr: 0x1000027B0, symSize: 0x1C }
  - { offset: 0x1DF5E, size: 0x8, addend: 0x0, symName: __ZSt7forwardIOSt4pairIiiEEOT_RNSt16remove_referenceIS3_E4typeE, symObjAddr: 0x20A4, symBinAddr: 0x10000279C, symSize: 0x14 }
  - { offset: 0x1DF90, size: 0x8, addend: 0x0, symName: __ZSt3getILm0EJOSt4pairIiiEEERNSt13tuple_elementIXT_ESt5tupleIJDpT0_EEE4typeERS7_, symObjAddr: 0x2088, symBinAddr: 0x100002780, symSize: 0x1C }
  - { offset: 0x1E03C, size: 0x8, addend: 0x0, symName: __ZNSt4pairIKS_IiiENSt7__cxx1112basic_stringIcSt11char_traitsIcESaIcEEEEC1IJOS0_EJLm0EEJEJEEERSt5tupleIJDpT_EERSB_IJDpT1_EESt12_Index_tupleIJXspT0_EEESK_IJXspT2_EEE, symObjAddr: 0x2038, symBinAddr: 0x100002730, symSize: 0x50 }
  - { offset: 0x1E0AF, size: 0x8, addend: 0x0, symName: __ZNSt15__new_allocatorIPNSt8__detail15_Hash_node_baseEE8allocateEmPKv, symObjAddr: 0x1FBC, symBinAddr: 0x1000026B4, symSize: 0x7C }
  - { offset: 0x1E137, size: 0x8, addend: 0x0, symName: __ZSt11__addressofINSt8__detail10_Hash_nodeISt4pairIKS2_IiiENSt7__cxx1112basic_stringIcSt11char_traitsIcESaIcEEEELb1EEEEPT_RSD_, symObjAddr: 0x1FA8, symBinAddr: 0x1000026A0, symSize: 0x14 }
  - { offset: 0x1E171, size: 0x8, addend: 0x0, symName: __ZNK9__gnu_cxx16__aligned_bufferISt4pairIKS1_IiiENSt7__cxx1112basic_stringIcSt11char_traitsIcESaIcEEEEE7_M_addrEv, symObjAddr: 0x1F94, symBinAddr: 0x10000268C, symSize: 0x14 }
  - { offset: 0x1E1E6, size: 0x8, addend: 0x0, symName: __ZNSt4pairIKS_IiiENSt7__cxx1112basic_stringIcSt11char_traitsIcESaIcEEEEC1IJOS0_EJEEESt21piecewise_construct_tSt5tupleIJDpT_EESC_IJDpT0_EE, symObjAddr: 0x1F58, symBinAddr: 0x100002650, symSize: 0x3C }
  - { offset: 0x1E260, size: 0x8, addend: 0x0, symName: __ZNSt11_Tuple_implILm0EJOSt4pairIiiEEEC2EOS3_, symObjAddr: 0x1F30, symBinAddr: 0x100002628, symSize: 0x28 }
  - { offset: 0x1E28B, size: 0x8, addend: 0x0, symName: __ZSt12__to_addressIPNSt8__detail15_Hash_node_baseEEPT_S4_, symObjAddr: 0x1F1C, symBinAddr: 0x100002614, symSize: 0x14 }
  - { offset: 0x1E2E1, size: 0x8, addend: 0x0, symName: __ZSt11__addressofIPNSt8__detail15_Hash_node_baseEEPT_RS3_, symObjAddr: 0x1F08, symBinAddr: 0x100002600, symSize: 0x14 }
  - { offset: 0x1E313, size: 0x8, addend: 0x0, symName: __ZSt9addressofINSt8__detail10_Hash_nodeISt4pairIKS2_IiiENSt7__cxx1112basic_stringIcSt11char_traitsIcESaIcEEEELb1EEEEPT_RSD_, symObjAddr: 0x1EEC, symBinAddr: 0x1000025E4, symSize: 0x1C }
  - { offset: 0x1E349, size: 0x8, addend: 0x0, symName: __ZNK9__gnu_cxx16__aligned_bufferISt4pairIKS1_IiiENSt7__cxx1112basic_stringIcSt11char_traitsIcESaIcEEEEE6_M_ptrEv, symObjAddr: 0x1ED0, symBinAddr: 0x1000025C8, symSize: 0x1C }
  - { offset: 0x1E36F, size: 0x8, addend: 0x0, symName: __ZSteqIiiEbRKSt4pairIT_T0_ES5_, symObjAddr: 0x1E80, symBinAddr: 0x100002578, symSize: 0x50 }
  - { offset: 0x1E3C0, size: 0x8, addend: 0x0, symName: __ZNKSt8__detail21_Hashtable_ebo_helperILi0ESt8equal_toISt4pairIiiEELb1EE7_M_cgetEv, symObjAddr: 0x1E6C, symBinAddr: 0x100002564, symSize: 0x14 }
  - { offset: 0x1E3EA, size: 0x8, addend: 0x0, symName: __ZNSt15__new_allocatorINSt8__detail10_Hash_nodeISt4pairIKS2_IiiENSt7__cxx1112basic_stringIcSt11char_traitsIcESaIcEEEELb1EEEE10deallocateEPSC_m, symObjAddr: 0x1E30, symBinAddr: 0x100002528, symSize: 0x3C }
  - { offset: 0x1E4B7, size: 0x8, addend: 0x0, symName: __ZNSt5tupleIJOSt4pairIiiEEEC1EOS3_, symObjAddr: 0x1E08, symBinAddr: 0x100002500, symSize: 0x28 }
  - { offset: 0x1E4E6, size: 0x8, addend: 0x0, symName: __ZNSt15__new_allocatorINSt8__detail10_Hash_nodeISt4pairIKS2_IiiENSt7__cxx1112basic_stringIcSt11char_traitsIcESaIcEEEELb1EEEE8allocateEmPKv, symObjAddr: 0x1D70, symBinAddr: 0x100002468, symSize: 0x98 }
  - { offset: 0x1E5A2, size: 0x8, addend: 0x0, symName: __ZNSt10_Head_baseILm0EOSt4pairIiiELb0EEC2IS1_EEOT_, symObjAddr: 0x1D40, symBinAddr: 0x100002438, symSize: 0x30 }
  - { offset: 0x1E5DE, size: 0x8, addend: 0x0, symName: __ZN9__gnu_cxx16__aligned_bufferISt4pairIKS1_IiiENSt7__cxx1112basic_stringIcSt11char_traitsIcESaIcEEEEE7_M_addrEv, symObjAddr: 0x1D2C, symBinAddr: 0x100002424, symSize: 0x14 }
  - { offset: 0x1E604, size: 0x8, addend: 0x0, symName: __ZNSt8__detail15_Hashtable_baseISt4pairIiiES1_IKS2_NSt7__cxx1112basic_stringIcSt11char_traitsIcESaIcEEEENS_10_Select1stESt8equal_toIS2_E8PairHashNS_18_Mod_range_hashingENS_20_Default_ranged_hashENS_17_Hashtable_traitsILb1ELb0ELb1EEEE9_S_equalsEmRKNS_21_Hash_node_code_cacheILb1EEE, symObjAddr: 0x1D00, symBinAddr: 0x1000023F8, symSize: 0x2C }
  - { offset: 0x1E643, size: 0x8, addend: 0x0, symName: __ZNSt8__detail16_Hashtable_allocISaINS_10_Hash_nodeISt4pairIKS2_IiiENSt7__cxx1112basic_stringIcSt11char_traitsIcESaIcEEEELb1EEEEE19_M_allocate_bucketsEm, symObjAddr: 0x1C50, symBinAddr: 0x100002348, symSize: 0xB0 }
  - { offset: 0x1E76A, size: 0x8, addend: 0x0, symName: __ZNSt15__new_allocatorIPNSt8__detail15_Hash_node_baseEE10deallocateEPS2_m, symObjAddr: 0x1C20, symBinAddr: 0x100002318, symSize: 0x30 }
  - { offset: 0x1E7D8, size: 0x8, addend: 0x0, symName: __ZNSt15__new_allocatorIPNSt8__detail15_Hash_node_baseEED2Ev, symObjAddr: 0x1C0C, symBinAddr: 0x100002304, symSize: 0x14 }
  - { offset: 0x1E810, size: 0x8, addend: 0x0, symName: __ZSt9addressofIPNSt8__detail15_Hash_node_baseEEPT_RS3_, symObjAddr: 0x1BF0, symBinAddr: 0x1000022E8, symSize: 0x1C }
  - { offset: 0x1E842, size: 0x8, addend: 0x0, symName: __ZNSt19__ptr_traits_ptr_toIPNSt8__detail10_Hash_nodeISt4pairIKS2_IiiENSt7__cxx1112basic_stringIcSt11char_traitsIcESaIcEEEELb1EEESC_Lb0EE10pointer_toERSC_, symObjAddr: 0x1BD4, symBinAddr: 0x1000022CC, symSize: 0x1C }
  - { offset: 0x1E8C3, size: 0x8, addend: 0x0, symName: __ZNSt4pairIKS_IiiENSt7__cxx1112basic_stringIcSt11char_traitsIcESaIcEEEED1Ev, symObjAddr: 0x1BB0, symBinAddr: 0x1000022A8, symSize: 0x24 }
  - { offset: 0x1E8E9, size: 0x8, addend: 0x0, symName: __ZNSt8__detail21_Hashtable_ebo_helperILi0ESaINS_10_Hash_nodeISt4pairIKS2_IiiENSt7__cxx1112basic_stringIcSt11char_traitsIcESaIcEEEELb1EEEELb1EE6_M_getEv, symObjAddr: 0x1B9C, symBinAddr: 0x100002294, symSize: 0x14 }
  - { offset: 0x1E916, size: 0x8, addend: 0x0, symName: __ZSt7forwardIRKSt4pairIKS0_IiiENSt7__cxx1112basic_stringIcSt11char_traitsIcESaIcEEEEEOT_RNSt16remove_referenceISC_E4typeE, symObjAddr: 0x1B88, symBinAddr: 0x100002280, symSize: 0x14 }
  - { offset: 0x1E962, size: 0x8, addend: 0x0, symName: __ZNKSt8equal_toISt4pairIiiEEclERKS1_S4_, symObjAddr: 0x1B60, symBinAddr: 0x100002258, symSize: 0x28 }
  - { offset: 0x1E9AE, size: 0x8, addend: 0x0, symName: __ZNKSt8__detail15_Hashtable_baseISt4pairIiiES1_IKS2_NSt7__cxx1112basic_stringIcSt11char_traitsIcESaIcEEEENS_10_Select1stESt8equal_toIS2_E8PairHashNS_18_Mod_range_hashingENS_20_Default_ranged_hashENS_17_Hashtable_traitsILb1ELb0ELb1EEEE5_M_eqEv, symObjAddr: 0x1B44, symBinAddr: 0x10000223C, symSize: 0x1C }
  - { offset: 0x1E9D4, size: 0x8, addend: 0x0, symName: __ZNSt8__detail22_Hashtable_hash_traitsI8PairHashE22__small_size_thresholdEv, symObjAddr: 0x1B3C, symBinAddr: 0x100002234, symSize: 0x8 }
  - { offset: 0x1EA18, size: 0x8, addend: 0x0, symName: __ZNSt8__detail19_Node_iterator_baseISt4pairIKS1_IiiENSt7__cxx1112basic_stringIcSt11char_traitsIcESaIcEEEELb1EEC2EPNS_10_Hash_nodeISA_Lb1EEE, symObjAddr: 0x1B18, symBinAddr: 0x100002210, symSize: 0x24 }
  - { offset: 0x1EACD, size: 0x8, addend: 0x0, symName: __ZSt12__to_addressINSt8__detail10_Hash_nodeISt4pairIKS2_IiiENSt7__cxx1112basic_stringIcSt11char_traitsIcESaIcEEEELb1EEEEPT_SE_, symObjAddr: 0x1B04, symBinAddr: 0x1000021FC, symSize: 0x14 }
  - { offset: 0x1EB58, size: 0x8, addend: 0x0, symName: __ZNSt11_Tuple_implILm0EJOSt4pairIiiEEEC2IS1_EEOT_, symObjAddr: 0x1AC8, symBinAddr: 0x1000021C0, symSize: 0x3C }
  - { offset: 0x1EB90, size: 0x8, addend: 0x0, symName: __ZN9__gnu_cxx16__aligned_bufferISt4pairIKS1_IiiENSt7__cxx1112basic_stringIcSt11char_traitsIcESaIcEEEEE6_M_ptrEv, symObjAddr: 0x1AAC, symBinAddr: 0x1000021A4, symSize: 0x1C }
  - { offset: 0x1EBBA, size: 0x8, addend: 0x0, symName: __ZNKSt10_HashtableISt4pairIiiES0_IKS1_NSt7__cxx1112basic_stringIcSt11char_traitsIcESaIcEEEESaIS9_ENSt8__detail10_Select1stESt8equal_toIS1_E8PairHashNSB_18_Mod_range_hashingENSB_20_Default_ranged_hashENSB_20_Prime_rehash_policyENSB_17_Hashtable_traitsILb1ELb0ELb1EEEE15_M_bucket_indexERKNSB_16_Hash_node_valueIS9_Lb1EEE, symObjAddr: 0x1A7C, symBinAddr: 0x100002174, symSize: 0x30 }
  - { offset: 0x1EBF5, size: 0x8, addend: 0x0, symName: __ZNKSt8__detail15_Hashtable_baseISt4pairIiiES1_IKS2_NSt7__cxx1112basic_stringIcSt11char_traitsIcESaIcEEEENS_10_Select1stESt8equal_toIS2_E8PairHashNS_18_Mod_range_hashingENS_20_Default_ranged_hashENS_17_Hashtable_traitsILb1ELb0ELb1EEEE9_M_equalsERS3_mRKNS_16_Hash_node_valueISA_Lb1EEE, symObjAddr: 0x1A14, symBinAddr: 0x10000210C, symSize: 0x68 }
  - { offset: 0x1EC52, size: 0x8, addend: 0x0, symName: __ZNKSt8__detail21_Hashtable_ebo_helperILi1E8PairHashLb1EE7_M_cgetEv, symObjAddr: 0x1A00, symBinAddr: 0x1000020F8, symSize: 0x14 }
  - { offset: 0x1EC7C, size: 0x8, addend: 0x0, symName: __ZNKSt8__detail15_Hash_code_baseISt4pairIiiES1_IKS2_NSt7__cxx1112basic_stringIcSt11char_traitsIcESaIcEEEENS_10_Select1stE8PairHashNS_18_Mod_range_hashingENS_20_Default_ranged_hashELb1EE15_M_bucket_indexERKNS_16_Hash_node_valueISA_Lb1EEEm, symObjAddr: 0x19D0, symBinAddr: 0x1000020C8, symSize: 0x30 }
  - { offset: 0x1ECC8, size: 0x8, addend: 0x0, symName: __ZNSt10_HashtableISt4pairIiiES0_IKS1_NSt7__cxx1112basic_stringIcSt11char_traitsIcESaIcEEEESaIS9_ENSt8__detail10_Select1stESt8equal_toIS1_E8PairHashNSB_18_Mod_range_hashingENSB_20_Default_ranged_hashENSB_20_Prime_rehash_policyENSB_17_Hashtable_traitsILb1ELb0ELb1EEEE19_M_allocate_bucketsEm, symObjAddr: 0x1978, symBinAddr: 0x100002070, symSize: 0x58 }
  - { offset: 0x1ECFF, size: 0x8, addend: 0x0, symName: __ZSt11__addressofINSt8__detail20_Prime_rehash_policyEEPT_RS2_, symObjAddr: 0x1964, symBinAddr: 0x10000205C, symSize: 0x14 }
  - { offset: 0x1EDA7, size: 0x8, addend: 0x0, symName: __ZNSt19__ptr_traits_ptr_toIPPNSt8__detail15_Hash_node_baseES2_Lb0EE10pointer_toERS2_, symObjAddr: 0x1948, symBinAddr: 0x100002040, symSize: 0x1C }
  - { offset: 0x1EDD4, size: 0x8, addend: 0x0, symName: __ZNSt8__detail16_Hashtable_allocISaINS_10_Hash_nodeISt4pairIKS2_IiiENSt7__cxx1112basic_stringIcSt11char_traitsIcESaIcEEEELb1EEEEE22_M_deallocate_node_ptrEPSC_, symObjAddr: 0x18F0, symBinAddr: 0x100001FE8, symSize: 0x58 }
  - { offset: 0x1EE83, size: 0x8, addend: 0x0, symName: __ZNSt8__detail16_Hashtable_allocISaINS_10_Hash_nodeISt4pairIKS2_IiiENSt7__cxx1112basic_stringIcSt11char_traitsIcESaIcEEEELb1EEEEE17_M_node_allocatorEv, symObjAddr: 0x18D4, symBinAddr: 0x100001FCC, symSize: 0x1C }
  - { offset: 0x1EEB8, size: 0x8, addend: 0x0, symName: __ZNKSt8__detail10_Select1stclIRKSt4pairIKS2_IiiENSt7__cxx1112basic_stringIcSt11char_traitsIcESaIcEEEEEEONS0_10__1st_typeIT_E4typeEOSF_, symObjAddr: 0x18B4, symBinAddr: 0x100001FAC, symSize: 0x20 }
  - { offset: 0x1EF11, size: 0x8, addend: 0x0, symName: __ZNKSt10_HashtableISt4pairIiiES0_IKS1_NSt7__cxx1112basic_stringIcSt11char_traitsIcESaIcEEEESaIS9_ENSt8__detail10_Select1stESt8equal_toIS1_E8PairHashNSB_18_Mod_range_hashingENSB_20_Default_ranged_hashENSB_20_Prime_rehash_policyENSB_17_Hashtable_traitsILb1ELb0ELb1EEEE3endEv, symObjAddr: 0x1890, symBinAddr: 0x100001F88, symSize: 0x24 }
  - { offset: 0x1EF63, size: 0x8, addend: 0x0, symName: __ZNSt8__detail20_Node_const_iteratorISt4pairIKS1_IiiENSt7__cxx1112basic_stringIcSt11char_traitsIcESaIcEEEELb0ELb1EEC1EPNS_10_Hash_nodeISA_Lb1EEE, symObjAddr: 0x1868, symBinAddr: 0x100001F60, symSize: 0x28 }
  - { offset: 0x1EF92, size: 0x8, addend: 0x0, symName: __ZNKSt8__detail15_Hashtable_baseISt4pairIiiES1_IKS2_NSt7__cxx1112basic_stringIcSt11char_traitsIcESaIcEEEENS_10_Select1stESt8equal_toIS2_E8PairHashNS_18_Mod_range_hashingENS_20_Default_ranged_hashENS_17_Hashtable_traitsILb1ELb0ELb1EEEE13_M_key_equalsERS3_RKNS_16_Hash_node_valueISA_Lb1EEE, symObjAddr: 0x17FC, symBinAddr: 0x100001EF4, symSize: 0x6C }
  - { offset: 0x1F022, size: 0x8, addend: 0x0, symName: __ZNSt10_HashtableISt4pairIiiES0_IKS1_NSt7__cxx1112basic_stringIcSt11char_traitsIcESaIcEEEESaIS9_ENSt8__detail10_Select1stESt8equal_toIS1_E8PairHashNSB_18_Mod_range_hashingENSB_20_Default_ranged_hashENSB_20_Prime_rehash_policyENSB_17_Hashtable_traitsILb1ELb0ELb1EEEE22__small_size_thresholdEv, symObjAddr: 0x17E8, symBinAddr: 0x100001EE0, symSize: 0x14 }
  - { offset: 0x1F03E, size: 0x8, addend: 0x0, symName: __ZNKSt10_HashtableISt4pairIiiES0_IKS1_NSt7__cxx1112basic_stringIcSt11char_traitsIcESaIcEEEESaIS9_ENSt8__detail10_Select1stESt8equal_toIS1_E8PairHashNSB_18_Mod_range_hashingENSB_20_Default_ranged_hashENSB_20_Prime_rehash_policyENSB_17_Hashtable_traitsILb1ELb0ELb1EEEE4sizeEv, symObjAddr: 0x17D0, symBinAddr: 0x100001EC8, symSize: 0x18 }
  - { offset: 0x1F090, size: 0x8, addend: 0x0, symName: __ZNSt8__detail14_Node_iteratorISt4pairIKS1_IiiENSt7__cxx1112basic_stringIcSt11char_traitsIcESaIcEEEELb0ELb1EEC1EPNS_10_Hash_nodeISA_Lb1EEE, symObjAddr: 0x17A8, symBinAddr: 0x100001EA0, symSize: 0x28 }
  - { offset: 0x1F0BF, size: 0x8, addend: 0x0, symName: __ZNSt10_HashtableISt4pairIiiES0_IKS1_NSt7__cxx1112basic_stringIcSt11char_traitsIcESaIcEEEESaIS9_ENSt8__detail10_Select1stESt8equal_toIS1_E8PairHashNSB_18_Mod_range_hashingENSB_20_Default_ranged_hashENSB_20_Prime_rehash_policyENSB_17_Hashtable_traitsILb1ELb0ELb1EEEE22_M_insert_bucket_beginEmPNSB_10_Hash_nodeIS9_Lb1EEE, symObjAddr: 0x169C, symBinAddr: 0x100001D94, symSize: 0x10C }
  - { offset: 0x1F10B, size: 0x8, addend: 0x0, symName: __ZNKSt8__detail15_Hash_code_baseISt4pairIiiES1_IKS2_NSt7__cxx1112basic_stringIcSt11char_traitsIcESaIcEEEENS_10_Select1stE8PairHashNS_18_Mod_range_hashingENS_20_Default_ranged_hashELb1EE13_M_store_codeERNS_21_Hash_node_code_cacheILb1EEEm, symObjAddr: 0x1674, symBinAddr: 0x100001D6C, symSize: 0x28 }
  - { offset: 0x1F157, size: 0x8, addend: 0x0, symName: __ZNSt8__detail16_Hashtable_allocISaINS_10_Hash_nodeISt4pairIKS2_IiiENSt7__cxx1112basic_stringIcSt11char_traitsIcESaIcEEEELb1EEEEE16_M_allocate_nodeIJRKSt21piecewise_construct_tSt5tupleIJOS3_EESJ_IJEEEEEPSC_DpOT_, symObjAddr: 0x1488, symBinAddr: 0x100001B80, symSize: 0x1EC }
  - { offset: 0x1F327, size: 0x8, addend: 0x0, symName: __ZNSt8__detail10_Hash_nodeISt4pairIKS1_IiiENSt7__cxx1112basic_stringIcSt11char_traitsIcESaIcEEEELb1EEC1Ev, symObjAddr: 0x1468, symBinAddr: 0x100001B60, symSize: 0x20 }
  - { offset: 0x1F350, size: 0x8, addend: 0x0, symName: __ZSt7forwardISt5tupleIJEEEOT_RNSt16remove_referenceIS2_E4typeE, symObjAddr: 0x1454, symBinAddr: 0x100001B4C, symSize: 0x14 }
  - { offset: 0x1F389, size: 0x8, addend: 0x0, symName: __ZSt7forwardISt5tupleIJOSt4pairIiiEEEEOT_RNSt16remove_referenceIS5_E4typeE, symObjAddr: 0x1440, symBinAddr: 0x100001B38, symSize: 0x14 }
  - { offset: 0x1F3C2, size: 0x8, addend: 0x0, symName: __ZSt7forwardIRKSt21piecewise_construct_tEOT_RNSt16remove_referenceIS3_E4typeE, symObjAddr: 0x142C, symBinAddr: 0x100001B24, symSize: 0x14 }
  - { offset: 0x1F433, size: 0x8, addend: 0x0, symName: __ZNSt5tupleIJOSt4pairIiiEEEC1IJS1_ELb1ELb1EEEDpOT_, symObjAddr: 0x13F0, symBinAddr: 0x100001AE8, symSize: 0x3C }
  - { offset: 0x1F481, size: 0x8, addend: 0x0, symName: __ZSt7forwardISt4pairIiiEEOT_RNSt16remove_referenceIS2_E4typeE, symObjAddr: 0x13DC, symBinAddr: 0x100001AD4, symSize: 0x14 }
  - { offset: 0x1F4CD, size: 0x8, addend: 0x0, symName: __ZNKSt10_HashtableISt4pairIiiES0_IKS1_NSt7__cxx1112basic_stringIcSt11char_traitsIcESaIcEEEESaIS9_ENSt8__detail10_Select1stESt8equal_toIS1_E8PairHashNSB_18_Mod_range_hashingENSB_20_Default_ranged_hashENSB_20_Prime_rehash_policyENSB_17_Hashtable_traitsILb1ELb0ELb1EEEE19_M_find_before_nodeEmRS2_m, symObjAddr: 0x12E0, symBinAddr: 0x1000019D8, symSize: 0xFC }
  - { offset: 0x1F55F, size: 0x8, addend: 0x0, symName: __ZNKSt8__detail15_Hash_code_baseISt4pairIiiES1_IKS2_NSt7__cxx1112basic_stringIcSt11char_traitsIcESaIcEEEENS_10_Select1stE8PairHashNS_18_Mod_range_hashingENS_20_Default_ranged_hashELb1EE15_M_bucket_indexEmm, symObjAddr: 0x12B4, symBinAddr: 0x1000019AC, symSize: 0x2C }
  - { offset: 0x1F5B6, size: 0x8, addend: 0x0, symName: __ZNK8PairHashclIiiEEmRKSt4pairIT_T0_E, symObjAddr: 0x1264, symBinAddr: 0x10000195C, symSize: 0x50 }
  - { offset: 0x1F622, size: 0x8, addend: 0x0, symName: __ZNKSt8__detail15_Hash_code_baseISt4pairIiiES1_IKS2_NSt7__cxx1112basic_stringIcSt11char_traitsIcESaIcEEEENS_10_Select1stE8PairHashNS_18_Mod_range_hashingENS_20_Default_ranged_hashELb1EE7_M_hashEv, symObjAddr: 0x1248, symBinAddr: 0x100001940, symSize: 0x1C }
  - { offset: 0x1F64C, size: 0x8, addend: 0x0, symName: __ZNSt10_HashtableISt4pairIiiES0_IKS1_NSt7__cxx1112basic_stringIcSt11char_traitsIcESaIcEEEESaIS9_ENSt8__detail10_Select1stESt8equal_toIS1_E8PairHashNSB_18_Mod_range_hashingENSB_20_Default_ranged_hashENSB_20_Prime_rehash_policyENSB_17_Hashtable_traitsILb1ELb0ELb1EEEE9_M_rehashEmSt17integral_constantIbLb1EE, symObjAddr: 0x10DC, symBinAddr: 0x1000017D4, symSize: 0x16C }
  - { offset: 0x1F71D, size: 0x8, addend: 0x0, symName: __ZNSt8__detail17_RehashStateGuardINS_20_Prime_rehash_policyEED1Ev, symObjAddr: 0x1098, symBinAddr: 0x100001790, symSize: 0x44 }
  - { offset: 0x1F76B, size: 0x8, addend: 0x0, symName: __ZNSt8__detail17_RehashStateGuardINS_20_Prime_rehash_policyEEC1ERS1_, symObjAddr: 0x1054, symBinAddr: 0x10000174C, symSize: 0x44 }
  - { offset: 0x1F79A, size: 0x8, addend: 0x0, symName: __ZNSt8__detail16_Hashtable_allocISaINS_10_Hash_nodeISt4pairIKS2_IiiENSt7__cxx1112basic_stringIcSt11char_traitsIcESaIcEEEELb1EEEEE21_M_deallocate_bucketsEPPNS_15_Hash_node_baseEm, symObjAddr: 0xFDC, symBinAddr: 0x1000016D4, symSize: 0x78 }
  - { offset: 0x1F8AA, size: 0x8, addend: 0x0, symName: __ZNKSt10_HashtableISt4pairIiiES0_IKS1_NSt7__cxx1112basic_stringIcSt11char_traitsIcESaIcEEEESaIS9_ENSt8__detail10_Select1stESt8equal_toIS1_E8PairHashNSB_18_Mod_range_hashingENSB_20_Default_ranged_hashENSB_20_Prime_rehash_policyENSB_17_Hashtable_traitsILb1ELb0ELb1EEEE21_M_uses_single_bucketEPPNSB_15_Hash_node_baseE, symObjAddr: 0xFA0, symBinAddr: 0x100001698, symSize: 0x3C }
  - { offset: 0x1F8E5, size: 0x8, addend: 0x0, symName: __ZNSt8__detail16_Hashtable_allocISaINS_10_Hash_nodeISt4pairIKS2_IiiENSt7__cxx1112basic_stringIcSt11char_traitsIcESaIcEEEELb1EEEEE18_M_deallocate_nodeEPSC_, symObjAddr: 0xF24, symBinAddr: 0x10000161C, symSize: 0x7C }
  - { offset: 0x1F99E, size: 0x8, addend: 0x0, symName: __ZNKSt8__detail10_Hash_nodeISt4pairIKS1_IiiENSt7__cxx1112basic_stringIcSt11char_traitsIcESaIcEEEELb1EE7_M_nextEv, symObjAddr: 0xF0C, symBinAddr: 0x100001604, symSize: 0x18 }
  - { offset: 0x1F9C8, size: 0x8, addend: 0x0, symName: __ZNKSt10_HashtableISt4pairIiiES0_IKS1_NSt7__cxx1112basic_stringIcSt11char_traitsIcESaIcEEEESaIS9_ENSt8__detail10_Select1stESt8equal_toIS1_E8PairHashNSB_18_Mod_range_hashingENSB_20_Default_ranged_hashENSB_20_Prime_rehash_policyENSB_17_Hashtable_traitsILb1ELb0ELb1EEEE4findERS2_, symObjAddr: 0xE14, symBinAddr: 0x10000150C, symSize: 0xF8 }
  - { offset: 0x1FA49, size: 0x8, addend: 0x0, symName: __ZNKSt8__detail14_Node_iteratorISt4pairIKS1_IiiENSt7__cxx1112basic_stringIcSt11char_traitsIcESaIcEEEELb0ELb1EEptEv, symObjAddr: 0xDE4, symBinAddr: 0x1000014DC, symSize: 0x30 }
  - { offset: 0x1FA97, size: 0x8, addend: 0x0, symName: __ZNSt10_HashtableISt4pairIiiES0_IKS1_NSt7__cxx1112basic_stringIcSt11char_traitsIcESaIcEEEESaIS9_ENSt8__detail10_Select1stESt8equal_toIS1_E8PairHashNSB_18_Mod_range_hashingENSB_20_Default_ranged_hashENSB_20_Prime_rehash_policyENSB_17_Hashtable_traitsILb1ELb0ELb1EEEE21_M_insert_unique_nodeEmmPNSB_10_Hash_nodeIS9_Lb1EEEm, symObjAddr: 0xCD4, symBinAddr: 0x1000013CC, symSize: 0x110 }
  - { offset: 0x1FB4E, size: 0x8, addend: 0x0, symName: __ZNSt10_HashtableISt4pairIiiES0_IKS1_NSt7__cxx1112basic_stringIcSt11char_traitsIcESaIcEEEESaIS9_ENSt8__detail10_Select1stESt8equal_toIS1_E8PairHashNSB_18_Mod_range_hashingENSB_20_Default_ranged_hashENSB_20_Prime_rehash_policyENSB_17_Hashtable_traitsILb1ELb0ELb1EEEE12_Scoped_nodeD1Ev, symObjAddr: 0xC90, symBinAddr: 0x100001388, symSize: 0x44 }
  - { offset: 0x1FBC7, size: 0x8, addend: 0x0, symName: __ZNSt10_HashtableISt4pairIiiES0_IKS1_NSt7__cxx1112basic_stringIcSt11char_traitsIcESaIcEEEESaIS9_ENSt8__detail10_Select1stESt8equal_toIS1_E8PairHashNSB_18_Mod_range_hashingENSB_20_Default_ranged_hashENSB_20_Prime_rehash_policyENSB_17_Hashtable_traitsILb1ELb0ELb1EEEE12_Scoped_nodeC1IJRKSt21piecewise_construct_tSt5tupleIJOS1_EESR_IJEEEEEPNSB_16_Hashtable_allocISaINSB_10_Hash_nodeIS9_Lb1EEEEEEDpOT_, symObjAddr: 0xC08, symBinAddr: 0x100001300, symSize: 0x88 }
  - { offset: 0x1FC29, size: 0x8, addend: 0x0, symName: __ZSt16forward_as_tupleIJSt4pairIiiEEESt5tupleIJDpOT_EES5_, symObjAddr: 0xBD0, symBinAddr: 0x1000012C8, symSize: 0x38 }
  - { offset: 0x1FC77, size: 0x8, addend: 0x0, symName: __ZNKSt10_HashtableISt4pairIiiES0_IKS1_NSt7__cxx1112basic_stringIcSt11char_traitsIcESaIcEEEESaIS9_ENSt8__detail10_Select1stESt8equal_toIS1_E8PairHashNSB_18_Mod_range_hashingENSB_20_Default_ranged_hashENSB_20_Prime_rehash_policyENSB_17_Hashtable_traitsILb1ELb0ELb1EEEE12_M_find_nodeEmRS2_m, symObjAddr: 0xB7C, symBinAddr: 0x100001274, symSize: 0x54 }
  - { offset: 0x1FCE5, size: 0x8, addend: 0x0, symName: __ZNKSt10_HashtableISt4pairIiiES0_IKS1_NSt7__cxx1112basic_stringIcSt11char_traitsIcESaIcEEEESaIS9_ENSt8__detail10_Select1stESt8equal_toIS1_E8PairHashNSB_18_Mod_range_hashingENSB_20_Default_ranged_hashENSB_20_Prime_rehash_policyENSB_17_Hashtable_traitsILb1ELb0ELb1EEEE15_M_bucket_indexEm, symObjAddr: 0xB4C, symBinAddr: 0x100001244, symSize: 0x30 }
  - { offset: 0x1FD20, size: 0x8, addend: 0x0, symName: __ZNKSt8__detail15_Hash_code_baseISt4pairIiiES1_IKS2_NSt7__cxx1112basic_stringIcSt11char_traitsIcESaIcEEEENS_10_Select1stE8PairHashNS_18_Mod_range_hashingENS_20_Default_ranged_hashELb1EE12_M_hash_codeERS3_, symObjAddr: 0xB24, symBinAddr: 0x10000121C, symSize: 0x28 }
  - { offset: 0x1FD5B, size: 0x8, addend: 0x0, symName: __ZNSt10_HashtableISt4pairIiiES0_IKS1_NSt7__cxx1112basic_stringIcSt11char_traitsIcESaIcEEEESaIS9_ENSt8__detail10_Select1stESt8equal_toIS1_E8PairHashNSB_18_Mod_range_hashingENSB_20_Default_ranged_hashENSB_20_Prime_rehash_policyENSB_17_Hashtable_traitsILb1ELb0ELb1EEEE6rehashEm, symObjAddr: 0xA5C, symBinAddr: 0x100001154, symSize: 0xC8 }
  - { offset: 0x1FDA7, size: 0x8, addend: 0x0, symName: __ZNKSt10_HashtableISt4pairIiiES0_IKS1_NSt7__cxx1112basic_stringIcSt11char_traitsIcESaIcEEEESaIS9_ENSt8__detail10_Select1stESt8equal_toIS1_E8PairHashNSB_18_Mod_range_hashingENSB_20_Default_ranged_hashENSB_20_Prime_rehash_policyENSB_17_Hashtable_traitsILb1ELb0ELb1EEEE15__rehash_policyEv, symObjAddr: 0xA44, symBinAddr: 0x10000113C, symSize: 0x18 }
  - { offset: 0x1FDD1, size: 0x8, addend: 0x0, symName: __ZNSt10_HashtableISt4pairIiiES0_IKS1_NSt7__cxx1112basic_stringIcSt11char_traitsIcESaIcEEEESaIS9_ENSt8__detail10_Select1stESt8equal_toIS1_E8PairHashNSB_18_Mod_range_hashingENSB_20_Default_ranged_hashENSB_20_Prime_rehash_policyENSB_17_Hashtable_traitsILb1ELb0ELb1EEEE21_M_deallocate_bucketsEPPNSB_15_Hash_node_baseEm, symObjAddr: 0x9F8, symBinAddr: 0x1000010F0, symSize: 0x4C }
  - { offset: 0x1FE1D, size: 0x8, addend: 0x0, symName: __ZNSt8__detail16_Hashtable_allocISaINS_10_Hash_nodeISt4pairIKS2_IiiENSt7__cxx1112basic_stringIcSt11char_traitsIcESaIcEEEELb1EEEEE19_M_deallocate_nodesEPSC_, symObjAddr: 0x9A8, symBinAddr: 0x1000010A0, symSize: 0x50 }
  - { offset: 0x1FE7C, size: 0x8, addend: 0x0, symName: __ZNKSt10_HashtableISt4pairIiiES0_IKS1_NSt7__cxx1112basic_stringIcSt11char_traitsIcESaIcEEEESaIS9_ENSt8__detail10_Select1stESt8equal_toIS1_E8PairHashNSB_18_Mod_range_hashingENSB_20_Default_ranged_hashENSB_20_Prime_rehash_policyENSB_17_Hashtable_traitsILb1ELb0ELb1EEEE8_M_beginEv, symObjAddr: 0x990, symBinAddr: 0x100001088, symSize: 0x18 }
  - { offset: 0x1FEBC, size: 0x8, addend: 0x0, symName: __ZNKSt10_HashtableISt4pairIiiES0_IKS1_NSt7__cxx1112basic_stringIcSt11char_traitsIcESaIcEEEESaIS9_ENSt8__detail10_Select1stESt8equal_toIS1_E8PairHashNSB_18_Mod_range_hashingENSB_20_Default_ranged_hashENSB_20_Prime_rehash_policyENSB_17_Hashtable_traitsILb1ELb0ELb1EEEE5countERS2_, symObjAddr: 0x950, symBinAddr: 0x100001048, symSize: 0x40 }
  - { offset: 0x1FF27, size: 0x8, addend: 0x0, symName: __ZNSt8__detail9_Map_baseISt4pairIiiES1_IKS2_NSt7__cxx1112basic_stringIcSt11char_traitsIcESaIcEEEESaISA_ENS_10_Select1stESt8equal_toIS2_E8PairHashNS_18_Mod_range_hashingENS_20_Default_ranged_hashENS_20_Prime_rehash_policyENS_17_Hashtable_traitsILb1ELb0ELb1EEELb1EEixEOS2_, symObjAddr: 0x820, symBinAddr: 0x100000F18, symSize: 0x130 }
  - { offset: 0x20030, size: 0x8, addend: 0x0, symName: __ZSt4moveIRSt4pairIiiEEONSt16remove_referenceIT_E4typeEOS4_, symObjAddr: 0x80C, symBinAddr: 0x100000F04, symSize: 0x14 }
  - { offset: 0x20069, size: 0x8, addend: 0x0, symName: __ZSt7forwardIRiEOT_RNSt16remove_referenceIS1_E4typeE, symObjAddr: 0x7F8, symBinAddr: 0x100000EF0, symSize: 0x14 }
  - { offset: 0x2009F, size: 0x8, addend: 0x0, symName: __ZNSt8__detail12_Rehash_baseISt4pairIiiES1_IKS2_NSt7__cxx1112basic_stringIcSt11char_traitsIcESaIcEEEESaISA_ENS_10_Select1stESt8equal_toIS2_E8PairHashNS_18_Mod_range_hashingENS_20_Default_ranged_hashENS_20_Prime_rehash_policyENS_17_Hashtable_traitsILb1ELb0ELb1EEESt17integral_constantIbLb1EEE7reserveEm, symObjAddr: 0x7AC, symBinAddr: 0x100000EA4, symSize: 0x4C }
  - { offset: 0x200F1, size: 0x8, addend: 0x0, symName: __ZNSt10_HashtableISt4pairIiiES0_IKS1_NSt7__cxx1112basic_stringIcSt11char_traitsIcESaIcEEEESaIS9_ENSt8__detail10_Select1stESt8equal_toIS1_E8PairHashNSB_18_Mod_range_hashingENSB_20_Default_ranged_hashENSB_20_Prime_rehash_policyENSB_17_Hashtable_traitsILb1ELb0ELb1EEEE21_M_deallocate_bucketsEv, symObjAddr: 0x778, symBinAddr: 0x100000E70, symSize: 0x34 }
  - { offset: 0x2011B, size: 0x8, addend: 0x0, symName: __ZNSt10_HashtableISt4pairIiiES0_IKS1_NSt7__cxx1112basic_stringIcSt11char_traitsIcESaIcEEEESaIS9_ENSt8__detail10_Select1stESt8equal_toIS1_E8PairHashNSB_18_Mod_range_hashingENSB_20_Default_ranged_hashENSB_20_Prime_rehash_policyENSB_17_Hashtable_traitsILb1ELb0ELb1EEEE5clearEv, symObjAddr: 0x718, symBinAddr: 0x100000E10, symSize: 0x60 }
  - { offset: 0x20169, size: 0x8, addend: 0x0, symName: __ZNSt15__new_allocatorINSt8__detail10_Hash_nodeISt4pairIKS2_IiiENSt7__cxx1112basic_stringIcSt11char_traitsIcESaIcEEEELb1EEEED2Ev, symObjAddr: 0x704, symBinAddr: 0x100000DFC, symSize: 0x14 }
  - { offset: 0x201A5, size: 0x8, addend: 0x0, symName: __ZNKSt13unordered_mapISt4pairIiiENSt7__cxx1112basic_stringIcSt11char_traitsIcESaIcEEE8PairHashSt8equal_toIS1_ESaIS0_IKS1_S7_EEE5countERSB_, symObjAddr: 0x6E0, symBinAddr: 0x100000DD8, symSize: 0x24 }
  - { offset: 0x201E0, size: 0x8, addend: 0x0, symName: __ZNSt13unordered_mapISt4pairIiiENSt7__cxx1112basic_stringIcSt11char_traitsIcESaIcEEE8PairHashSt8equal_toIS1_ESaIS0_IKS1_S7_EEEixEOS1_, symObjAddr: 0x6A8, symBinAddr: 0x100000DA0, symSize: 0x38 }
  - { offset: 0x20263, size: 0x8, addend: 0x0, symName: __ZNSt4pairIiiEC1IRiS2_Lb1EEEOT_OT0_, symObjAddr: 0x660, symBinAddr: 0x100000D58, symSize: 0x48 }
  - { offset: 0x202AD, size: 0x8, addend: 0x0, symName: __ZNSt13unordered_mapISt4pairIiiENSt7__cxx1112basic_stringIcSt11char_traitsIcESaIcEEE8PairHashSt8equal_toIS1_ESaIS0_IKS1_S7_EEE7reserveEm, symObjAddr: 0x638, symBinAddr: 0x100000D30, symSize: 0x28 }
  - { offset: 0x2030C, size: 0x8, addend: 0x0, symName: __ZNSt10_HashtableISt4pairIiiES0_IKS1_NSt7__cxx1112basic_stringIcSt11char_traitsIcESaIcEEEESaIS9_ENSt8__detail10_Select1stESt8equal_toIS1_E8PairHashNSB_18_Mod_range_hashingENSB_20_Default_ranged_hashENSB_20_Prime_rehash_policyENSB_17_Hashtable_traitsILb1ELb0ELb1EEEED1Ev, symObjAddr: 0x608, symBinAddr: 0x100000D00, symSize: 0x30 }
  - { offset: 0x2036C, size: 0x8, addend: 0x0, symName: __ZNSt8__detail21_Hashtable_ebo_helperILi0ESaINS_10_Hash_nodeISt4pairIKS2_IiiENSt7__cxx1112basic_stringIcSt11char_traitsIcESaIcEEEELb1EEEELb1EEC2Ev, symObjAddr: 0x5DC, symBinAddr: 0x100000CD4, symSize: 0x2C }
  - { offset: 0x203F3, size: 0x8, addend: 0x0, symName: __ZNSt8__detail21_Hashtable_ebo_helperILi0ESt8equal_toISt4pairIiiEELb1EEC2Ev, symObjAddr: 0x5C8, symBinAddr: 0x100000CC0, symSize: 0x14 }
  - { offset: 0x20433, size: 0x8, addend: 0x0, symName: __ZNSt8__detail21_Hashtable_ebo_helperILi1E8PairHashLb1EEC2Ev, symObjAddr: 0x5B4, symBinAddr: 0x100000CAC, symSize: 0x14 }
  - { offset: 0x20455, size: 0x8, addend: 0x0, symName: __ZSt3maxImERKT_S2_S2_, symObjAddr: 0x57C, symBinAddr: 0x100000C74, symSize: 0x38 }
  - { offset: 0x204A0, size: 0x8, addend: 0x0, symName: _main, symObjAddr: 0x50C, symBinAddr: 0x100000C04, symSize: 0x70 }
  - { offset: 0x204D0, size: 0x8, addend: 0x0, symName: __Z5solvev, symObjAddr: 0x2B4, symBinAddr: 0x1000009AC, symSize: 0x258 }
  - { offset: 0x20615, size: 0x8, addend: 0x0, symName: __ZNSt13unordered_mapISt4pairIiiENSt7__cxx1112basic_stringIcSt11char_traitsIcESaIcEEE8PairHashSt8equal_toIS1_ESaIS0_IKS1_S7_EEED1Ev, symObjAddr: 0x294, symBinAddr: 0x10000098C, symSize: 0x20 }
  - { offset: 0x20655, size: 0x8, addend: 0x0, symName: __ZNSt13unordered_mapISt4pairIiiENSt7__cxx1112basic_stringIcSt11char_traitsIcESaIcEEE8PairHashSt8equal_toIS1_ESaIS0_IKS1_S7_EEEC1Ev, symObjAddr: 0x274, symBinAddr: 0x10000096C, symSize: 0x20 }
  - { offset: 0x20695, size: 0x8, addend: 0x0, symName: __ZNSt10_HashtableISt4pairIiiES0_IKS1_NSt7__cxx1112basic_stringIcSt11char_traitsIcESaIcEEEESaIS9_ENSt8__detail10_Select1stESt8equal_toIS1_E8PairHashNSB_18_Mod_range_hashingENSB_20_Default_ranged_hashENSB_20_Prime_rehash_policyENSB_17_Hashtable_traitsILb1ELb0ELb1EEEEC1Ev, symObjAddr: 0x204, symBinAddr: 0x1000008FC, symSize: 0x70 }
  - { offset: 0x206E3, size: 0x8, addend: 0x0, symName: __ZNSt8__detail16_Hashtable_allocISaINS_10_Hash_nodeISt4pairIKS2_IiiENSt7__cxx1112basic_stringIcSt11char_traitsIcESaIcEEEELb1EEEEED2Ev, symObjAddr: 0x1E4, symBinAddr: 0x1000008DC, symSize: 0x20 }
  - { offset: 0x20723, size: 0x8, addend: 0x0, symName: __ZNSt8__detail16_Hashtable_allocISaINS_10_Hash_nodeISt4pairIKS2_IiiENSt7__cxx1112basic_stringIcSt11char_traitsIcESaIcEEEELb1EEEEEC2Ev, symObjAddr: 0x1C4, symBinAddr: 0x1000008BC, symSize: 0x20 }
  - { offset: 0x20771, size: 0x8, addend: 0x0, symName: __ZNSt8__detail21_Hashtable_ebo_helperILi0ESaINS_10_Hash_nodeISt4pairIKS2_IiiENSt7__cxx1112basic_stringIcSt11char_traitsIcESaIcEEEELb1EEEELb1EED2Ev, symObjAddr: 0x198, symBinAddr: 0x100000890, symSize: 0x2C }
  - { offset: 0x207D5, size: 0x8, addend: 0x0, symName: __ZNSt8__detail15_Hashtable_baseISt4pairIiiES1_IKS2_NSt7__cxx1112basic_stringIcSt11char_traitsIcESaIcEEEENS_10_Select1stESt8equal_toIS2_E8PairHashNS_18_Mod_range_hashingENS_20_Default_ranged_hashENS_17_Hashtable_traitsILb1ELb0ELb1EEEEC2Ev, symObjAddr: 0x170, symBinAddr: 0x100000868, symSize: 0x28 }
  - { offset: 0x20815, size: 0x8, addend: 0x0, symName: __ZNSt8__detail15_Hash_code_baseISt4pairIiiES1_IKS2_NSt7__cxx1112basic_stringIcSt11char_traitsIcESaIcEEEENS_10_Select1stE8PairHashNS_18_Mod_range_hashingENS_20_Default_ranged_hashELb1EEC2Ev, symObjAddr: 0x150, symBinAddr: 0x100000848, symSize: 0x20 }
  - { offset: 0x2083B, size: 0x8, addend: 0x0, symName: __ZNSt8__detail20_Prime_rehash_policy8_M_resetEm, symObjAddr: 0x12C, symBinAddr: 0x100000824, symSize: 0x24 }
  - { offset: 0x20876, size: 0x8, addend: 0x0, symName: __ZNKSt8__detail20_Prime_rehash_policy8_M_stateEv, symObjAddr: 0x114, symBinAddr: 0x10000080C, symSize: 0x18 }
  - { offset: 0x208A0, size: 0x8, addend: 0x0, symName: __ZNKSt8__detail20_Prime_rehash_policy19_M_bkt_for_elementsEm, symObjAddr: 0xDC, symBinAddr: 0x1000007D4, symSize: 0x38 }
  - { offset: 0x20903, size: 0x8, addend: 0x0, symName: __ZNSt8__detail20_Prime_rehash_policyC1Ef, symObjAddr: 0xB0, symBinAddr: 0x1000007A8, symSize: 0x2C }
  - { offset: 0x20932, size: 0x8, addend: 0x0, symName: __ZNKSt8__detail18_Mod_range_hashingclEmm, symObjAddr: 0x80, symBinAddr: 0x100000778, symSize: 0x30 }
  - { offset: 0x20998, size: 0x8, addend: 0x0, symName: __ZNSt8__detail15_Hash_node_baseC1Ev, symObjAddr: 0x64, symBinAddr: 0x10000075C, symSize: 0x1C }
  - { offset: 0x209C2, size: 0x8, addend: 0x0, symName: __ZNSt8__detail15_Hash_node_baseC2Ev, symObjAddr: 0x48, symBinAddr: 0x100000740, symSize: 0x1C }
  - { offset: 0x209E8, size: 0x8, addend: 0x0, symName: __ZNKSt4hashIiEclEi, symObjAddr: 0x30, symBinAddr: 0x100000728, symSize: 0x18 }
  - { offset: 0x20A25, size: 0x8, addend: 0x0, symName: __ZdlPvS_, symObjAddr: 0x18, symBinAddr: 0x100000710, symSize: 0x18 }
  - { offset: 0x20A5B, size: 0x8, addend: 0x0, symName: __ZnwmPv, symObjAddr: 0x0, symBinAddr: 0x1000006F8, symSize: 0x18 }
...
