---
triple:          'arm64-apple-darwin'
binary-path:     '/Users/mengchengxi/Documents/code/C++C/competition/H. Dont Blame Me'
relocations:
  - { offset: 0x1FB19, size: 0x8, addend: 0x0, symName: __ZStL8__ioinit, symObjAddr: 0x952F6, symBinAddr: 0x100010228, symSize: 0x0 }
  - { offset: 0x20053, size: 0x8, addend: 0x0, symName: __ZL3INF, symObjAddr: 0x4190, symBinAddr: 0x100005100, symSize: 0x0 }
  - { offset: 0x2006A, size: 0x8, addend: 0x0, symName: __ZL3mod, symObjAddr: 0x4194, symBinAddr: 0x100005104, symSize: 0x0 }
  - { offset: 0x20484, size: 0x8, addend: 0x0, symName: __GLOBAL__sub_I_H._Dont_Blame_Me.cpp, symObjAddr: 0x4F54, symBinAddr: 0x1000046C8, symSize: 0x14 }
  - { offset: 0x2049C, size: 0x8, addend: 0x0, symName: __Z41__static_initialization_and_destruction_0v, symObjAddr: 0x4F18, symBinAddr: 0x10000468C, symSize: 0x3C }
  - { offset: 0x204BA, size: 0x8, addend: 0x0, symName: __ZSt11__addressofIKPiEPT_RS2_, symObjAddr: 0x3E90, symBinAddr: 0x100004678, symSize: 0x14 }
  - { offset: 0x204EC, size: 0x8, addend: 0x0, symName: __ZSt9__fill_a1IPxxEN9__gnu_cxx11__enable_ifIXsrSt11__is_scalarIT0_E7__valueEvE6__typeET_S8_RKS4_, symObjAddr: 0x3E38, symBinAddr: 0x100004620, symSize: 0x58 }
  - { offset: 0x2055B, size: 0x8, addend: 0x0, symName: __ZSt9__fill_a1IPiiEN9__gnu_cxx11__enable_ifIXsrSt11__is_scalarIT0_E7__valueEvE6__typeET_S8_RKS4_, symObjAddr: 0x3DE0, symBinAddr: 0x1000045C8, symSize: 0x58 }
  - { offset: 0x20612, size: 0x8, addend: 0x0, symName: __ZN11__gnu_debug16_Error_formatter10_ParameterC1IiEERKPT_PKcNS0_12_Is_iteratorE, symObjAddr: 0x3D30, symBinAddr: 0x100004518, symSize: 0xB0 }
  - { offset: 0x20658, size: 0x8, addend: 0x0, symName: __ZSt8__fill_aIPxxEvT_S1_RKT0_, symObjAddr: 0x3D00, symBinAddr: 0x1000044E8, symSize: 0x30 }
  - { offset: 0x206B6, size: 0x8, addend: 0x0, symName: __ZN11__gnu_debug13__can_advanceIPxmEEbT_T0_, symObjAddr: 0x3CE8, symBinAddr: 0x1000044D0, symSize: 0x18 }
  - { offset: 0x206F3, size: 0x8, addend: 0x0, symName: __ZSt8__fill_aIPiiEvT_S1_RKT0_, symObjAddr: 0x3CB8, symBinAddr: 0x1000044A0, symSize: 0x30 }
  - { offset: 0x20755, size: 0x8, addend: 0x0, symName: __ZN11__gnu_debug16_Error_formatter11_M_iteratorIPiEERS0_RKT_PKc, symObjAddr: 0x3C1C, symBinAddr: 0x100004404, symSize: 0x9C }
  - { offset: 0x207A9, size: 0x8, addend: 0x0, symName: __ZN11__gnu_debug13__can_advanceIPimEEbT_T0_, symObjAddr: 0x3C04, symBinAddr: 0x1000043EC, symSize: 0x18 }
  - { offset: 0x20832, size: 0x8, addend: 0x0, symName: __ZNSt4pairIlN11__gnu_debug19_Distance_precisionEEC1IlS1_Lb1EEEOT_OT0_, symObjAddr: 0x3BBC, symBinAddr: 0x1000043A4, symSize: 0x48 }
  - { offset: 0x20878, size: 0x8, addend: 0x0, symName: __ZSt10__fill_n_aIPxmxET_S1_T0_RKT1_St26random_access_iterator_tag, symObjAddr: 0x3AD0, symBinAddr: 0x1000042B8, symSize: 0xEC }
  - { offset: 0x20903, size: 0x8, addend: 0x0, symName: __ZSt10__fill_n_aIPimiET_S1_T0_RKT1_St26random_access_iterator_tag, symObjAddr: 0x39E4, symBinAddr: 0x1000041CC, symSize: 0xEC }
  - { offset: 0x209A4, size: 0x8, addend: 0x0, symName: __ZNSt11__copy_moveILb0ELb0ESt26random_access_iterator_tagE12__assign_oneIxxEEvPT_PT0_, symObjAddr: 0x39BC, symBinAddr: 0x1000041A4, symSize: 0x28 }
  - { offset: 0x209F1, size: 0x8, addend: 0x0, symName: __ZNSt11__copy_moveILb0ELb0ESt26random_access_iterator_tagE12__assign_oneIxKxEEvPT_PT0_, symObjAddr: 0x3994, symBinAddr: 0x10000417C, symSize: 0x28 }
  - { offset: 0x20A3E, size: 0x8, addend: 0x0, symName: __ZSt9make_pairIlN11__gnu_debug19_Distance_precisionEESt4pairINSt25__strip_reference_wrapperINSt5decayIT_E4typeEE6__typeENS3_INS4_IT0_E4typeEE6__typeEEOS5_OSA_, symObjAddr: 0x3948, symBinAddr: 0x100004130, symSize: 0x4C }
  - { offset: 0x20A92, size: 0x8, addend: 0x0, symName: __ZN9__gnu_cxxmiIPKxNSt9__cxx19986vectorIxSaIxEEEEENS_17__normal_iteratorIT_T0_E15difference_typeERKSA_SD_, symObjAddr: 0x3908, symBinAddr: 0x1000040F0, symSize: 0x40 }
  - { offset: 0x20ADF, size: 0x8, addend: 0x0, symName: __ZSt13__copy_move_aILb0EN9__gnu_cxx17__normal_iteratorIPKxNSt9__cxx19986vectorIxSaIxEEEEEPxET1_T0_SB_SA_, symObjAddr: 0x38A8, symBinAddr: 0x100004090, symSize: 0x60 }
  - { offset: 0x20B47, size: 0x8, addend: 0x0, symName: __ZSt6fill_nIPxmxET_S1_T0_RKT1_, symObjAddr: 0x3860, symBinAddr: 0x100004048, symSize: 0x48 }
  - { offset: 0x20BCF, size: 0x8, addend: 0x0, symName: __ZSt6fill_nIPimiET_S1_T0_RKT1_, symObjAddr: 0x3818, symBinAddr: 0x100004000, symSize: 0x48 }
  - { offset: 0x20C5B, size: 0x8, addend: 0x0, symName: __ZNSt15__new_allocatorIiE8allocateEmPKv, symObjAddr: 0x379C, symBinAddr: 0x100003F84, symSize: 0x7C }
  - { offset: 0x20CE3, size: 0x8, addend: 0x0, symName: __ZNSt11__copy_moveILb0ELb1ESt26random_access_iterator_tagE8__copy_mIxxEEPT0_PT_S6_S4_, symObjAddr: 0x370C, symBinAddr: 0x100003EF4, symSize: 0x90 }
  - { offset: 0x20D52, size: 0x8, addend: 0x0, symName: __ZN11__gnu_debug14__get_distanceIPxEENS_16_Distance_traitsIT_NSt12__is_integerIS3_E6__typeEE6__typeES3_S3_St26random_access_iterator_tag, symObjAddr: 0x36C8, symBinAddr: 0x100003EB0, symSize: 0x44 }
  - { offset: 0x20DB3, size: 0x8, addend: 0x0, symName: __ZNSt11__copy_moveILb0ELb1ESt26random_access_iterator_tagE8__copy_mIKxxEEPT0_PT_S7_S5_, symObjAddr: 0x3638, symBinAddr: 0x100003E20, symSize: 0x90 }
  - { offset: 0x20E28, size: 0x8, addend: 0x0, symName: __ZSt11__addressofIKPKxEPT_RS3_, symObjAddr: 0x3624, symBinAddr: 0x100003E0C, symSize: 0x14 }
  - { offset: 0x20E61, size: 0x8, addend: 0x0, symName: __ZSt7forwardIN11__gnu_debug19_Distance_precisionEEOT_RNSt16remove_referenceIS2_E4typeE, symObjAddr: 0x3610, symBinAddr: 0x100003DF8, symSize: 0x14 }
  - { offset: 0x20E9A, size: 0x8, addend: 0x0, symName: __ZSt7forwardIlEOT_RNSt16remove_referenceIS0_E4typeE, symObjAddr: 0x35FC, symBinAddr: 0x100003DE4, symSize: 0x14 }
  - { offset: 0x20ECC, size: 0x8, addend: 0x0, symName: __ZN11__gnu_debug14__get_distanceIN9__gnu_cxx17__normal_iteratorIPKxNSt9__cxx19986vectorIxSaIxEEEEEEENS_16_Distance_traitsIT_NSt12__is_integerISB_E6__typeEE6__typeESB_SB_St26random_access_iterator_tag, symObjAddr: 0x35BC, symBinAddr: 0x100003DA4, symSize: 0x40 }
  - { offset: 0x20F2D, size: 0x8, addend: 0x0, symName: __ZSt11__addressofIKN9__gnu_cxx17__normal_iteratorIPKxNSt9__cxx19986vectorIxSaIxEEEEEEPT_RSA_, symObjAddr: 0x35A8, symBinAddr: 0x100003D90, symSize: 0x14 }
  - { offset: 0x20F5F, size: 0x8, addend: 0x0, symName: __ZN9__gnu_cxxeqIPKxNSt9__cxx19986vectorIxSaIxEEEEEbRKNS_17__normal_iteratorIT_T0_EESC_, symObjAddr: 0x3564, symBinAddr: 0x100003D4C, symSize: 0x44 }
  - { offset: 0x20FAC, size: 0x8, addend: 0x0, symName: __ZSt4copyIN9__gnu_cxx17__normal_iteratorIPKxNSt9__cxx19986vectorIxSaIxEEEEEPxET0_T_SB_SA_, symObjAddr: 0x3400, symBinAddr: 0x100003BE8, symSize: 0x164 }
  - { offset: 0x21049, size: 0x8, addend: 0x0, symName: __ZNSt22__uninitialized_fill_nILb1EE15__uninit_fill_nIPxmxEET_S3_T0_RKT1_, symObjAddr: 0x33D4, symBinAddr: 0x100003BBC, symSize: 0x2C }
  - { offset: 0x210C6, size: 0x8, addend: 0x0, symName: __ZNSt22__uninitialized_fill_nILb1EE15__uninit_fill_nIPimiEET_S3_T0_RKT1_, symObjAddr: 0x33A8, symBinAddr: 0x100003B90, symSize: 0x2C }
  - { offset: 0x21167, size: 0x8, addend: 0x0, symName: __ZSt14__copy_move_a2ILb0EPxS0_ET1_T0_S2_S1_, symObjAddr: 0x337C, symBinAddr: 0x100003B64, symSize: 0x2C }
  - { offset: 0x211D5, size: 0x8, addend: 0x0, symName: __ZSt11__addressofIKPxEPT_RS2_, symObjAddr: 0x3368, symBinAddr: 0x100003B50, symSize: 0x14 }
  - { offset: 0x21207, size: 0x8, addend: 0x0, symName: __ZN11__gnu_debug14__get_distanceIPxEENS_16_Distance_traitsIT_NSt12__is_integerIS3_E6__typeEE6__typeES3_S3_, symObjAddr: 0x3340, symBinAddr: 0x100003B28, symSize: 0x28 }
  - { offset: 0x21269, size: 0x8, addend: 0x0, symName: __ZN11__gnu_debug17__valid_range_auxIPxEEbT_S2_St18input_iterator_tag, symObjAddr: 0x32D0, symBinAddr: 0x100003AB8, symSize: 0x70 }
  - { offset: 0x212B4, size: 0x8, addend: 0x0, symName: __ZN11__gnu_debug16__check_singularIxEEbRKPT_, symObjAddr: 0x32AC, symBinAddr: 0x100003A94, symSize: 0x24 }
  - { offset: 0x212EA, size: 0x8, addend: 0x0, symName: __ZNK9__gnu_cxx17__normal_iteratorIPxNSt9__cxx19986vectorIxSaIxEEEEplEl, symObjAddr: 0x326C, symBinAddr: 0x100003A54, symSize: 0x40 }
  - { offset: 0x21321, size: 0x8, addend: 0x0, symName: __ZSt14__copy_move_a2ILb0EPKxPxET1_T0_S4_S3_, symObjAddr: 0x3240, symBinAddr: 0x100003A28, symSize: 0x2C }
  - { offset: 0x2138D, size: 0x8, addend: 0x0, symName: __ZNK9__gnu_cxx17__normal_iteratorIPxNSt9__cxx19986vectorIxSaIxEEEE4baseEv, symObjAddr: 0x322C, symBinAddr: 0x100003A14, symSize: 0x14 }
  - { offset: 0x213FB, size: 0x8, addend: 0x0, symName: __ZN11__gnu_debug16_Error_formatter10_ParameterC1IxEERKPKT_PKcNS0_12_Is_iteratorE, symObjAddr: 0x317C, symBinAddr: 0x100003964, symSize: 0xB0 }
  - { offset: 0x21445, size: 0x8, addend: 0x0, symName: __ZNK9__gnu_cxx17__normal_iteratorIPKxNSt9__cxx19986vectorIxSaIxEEEE4baseEv, symObjAddr: 0x3168, symBinAddr: 0x100003950, symSize: 0x14 }
  - { offset: 0x2146F, size: 0x8, addend: 0x0, symName: __ZNSt4pairIlN11__gnu_debug19_Distance_precisionEEaSEOS2_, symObjAddr: 0x3120, symBinAddr: 0x100003908, symSize: 0x48 }
  - { offset: 0x214A6, size: 0x8, addend: 0x0, symName: __ZN11__gnu_debug14__get_distanceIN9__gnu_cxx17__normal_iteratorIPKxNSt9__cxx19986vectorIxSaIxEEEEEEENS_16_Distance_traitsIT_NSt12__is_integerISB_E6__typeEE6__typeESB_SB_, symObjAddr: 0x30F8, symBinAddr: 0x1000038E0, symSize: 0x28 }
  - { offset: 0x21508, size: 0x8, addend: 0x0, symName: __ZN11__gnu_debug17__valid_range_auxIN9__gnu_cxx17__normal_iteratorIPKxNSt9__cxx19986vectorIxSaIxEEEEEEEbT_SA_St18input_iterator_tag, symObjAddr: 0x3080, symBinAddr: 0x100003868, symSize: 0x78 }
  - { offset: 0x21553, size: 0x8, addend: 0x0, symName: __ZN11__gnu_debug16__check_singularIN9__gnu_cxx17__normal_iteratorIPKxNSt9__cxx19986vectorIxSaIxEEEEEEEbRKT_, symObjAddr: 0x3030, symBinAddr: 0x100003818, symSize: 0x50 }
  - { offset: 0x2159E, size: 0x8, addend: 0x0, symName: __ZNSt20__uninitialized_copyILb1EE13__uninit_copyIN9__gnu_cxx17__normal_iteratorIPKxNSt9__cxx19986vectorIxSaIxEEEEEPxEET0_T_SD_SC_, symObjAddr: 0x3004, symBinAddr: 0x1000037EC, symSize: 0x2C }
  - { offset: 0x215FD, size: 0x8, addend: 0x0, symName: __ZNSt15__new_allocatorIxE8allocateEmPKv, symObjAddr: 0x2F88, symBinAddr: 0x100003770, symSize: 0x7C }
  - { offset: 0x21685, size: 0x8, addend: 0x0, symName: __ZSt20uninitialized_fill_nIPxmxET_S1_T0_RKT1_, symObjAddr: 0x2F54, symBinAddr: 0x10000373C, symSize: 0x34 }
  - { offset: 0x2171B, size: 0x8, addend: 0x0, symName: __ZNSt9__cxx199812_Vector_baseIxSaIxEE17_Vector_impl_dataC2Ev, symObjAddr: 0x2F28, symBinAddr: 0x100003710, symSize: 0x2C }
  - { offset: 0x21772, size: 0x8, addend: 0x0, symName: __ZNSt15__new_allocatorIiE10deallocateEPim, symObjAddr: 0x2EF8, symBinAddr: 0x1000036E0, symSize: 0x30 }
  - { offset: 0x217B8, size: 0x8, addend: 0x0, symName: __ZSt20uninitialized_fill_nIPimiET_S1_T0_RKT1_, symObjAddr: 0x2EC4, symBinAddr: 0x1000036AC, symSize: 0x34 }
  - { offset: 0x21834, size: 0x8, addend: 0x0, symName: __ZNSt9__cxx199812_Vector_baseIiSaIiEE11_M_allocateEm, symObjAddr: 0x2E74, symBinAddr: 0x10000365C, symSize: 0x50 }
  - { offset: 0x218B6, size: 0x8, addend: 0x0, symName: __ZNSt9__cxx199812_Vector_baseIiSaIiEE17_Vector_impl_dataC2Ev, symObjAddr: 0x2E48, symBinAddr: 0x100003630, symSize: 0x2C }
  - { offset: 0x21909, size: 0x8, addend: 0x0, symName: __ZSt11__addressofIKNSt7__debug6vectorIxSaIxEEEEPT_RS5_, symObjAddr: 0x2E34, symBinAddr: 0x10000361C, symSize: 0x14 }
  - { offset: 0x2193B, size: 0x8, addend: 0x0, symName: __ZNSt20__uninitialized_copyILb1EE13__uninit_copyIPxS2_EET0_T_S4_S3_, symObjAddr: 0x2E08, symBinAddr: 0x1000035F0, symSize: 0x2C }
  - { offset: 0x21996, size: 0x8, addend: 0x0, symName: __ZSt12__niter_wrapIPxET_RKS1_S1_, symObjAddr: 0x2DF0, symBinAddr: 0x1000035D8, symSize: 0x18 }
  - { offset: 0x219D2, size: 0x8, addend: 0x0, symName: __ZSt14__copy_move_a1ILb0EPxS0_ET1_T0_S2_S1_, symObjAddr: 0x2DC4, symBinAddr: 0x1000035AC, symSize: 0x2C }
  - { offset: 0x21A3A, size: 0x8, addend: 0x0, symName: __ZSt12__niter_baseIPxET_S1_, symObjAddr: 0x2DB0, symBinAddr: 0x100003598, symSize: 0x14 }
  - { offset: 0x21AB5, size: 0x8, addend: 0x0, symName: __ZN11__gnu_debug16_Error_formatter10_ParameterC1IxEERKPT_PKcNS0_12_Is_iteratorE, symObjAddr: 0x2D00, symBinAddr: 0x1000034E8, symSize: 0xB0 }
  - { offset: 0x21B02, size: 0x8, addend: 0x0, symName: __ZN11__gnu_debug17__valid_range_auxIPxEEbT_S2_RNS_16_Distance_traitsIS2_NSt12__is_integerIS2_E6__typeEE6__typeESt12__false_type, symObjAddr: 0x2C2C, symBinAddr: 0x100003414, symSize: 0xD4 }
  - { offset: 0x21B5D, size: 0x8, addend: 0x0, symName: __ZNSt12_Destroy_auxILb1EE9__destroyIN9__gnu_cxx17__normal_iteratorIPxNSt9__cxx19986vectorIxSaIxEEEEEEEvT_SA_, symObjAddr: 0x2C14, symBinAddr: 0x1000033FC, symSize: 0x18 }
  - { offset: 0x21B91, size: 0x8, addend: 0x0, symName: __ZSt12__niter_wrapIN9__gnu_cxx17__normal_iteratorIPxNSt9__cxx19986vectorIxSaIxEEEEES2_ET_S8_T0_, symObjAddr: 0x2BCC, symBinAddr: 0x1000033B4, symSize: 0x48 }
  - { offset: 0x21BDE, size: 0x8, addend: 0x0, symName: __ZSt14__copy_move_a1ILb0EPKxPxET1_T0_S4_S3_, symObjAddr: 0x2BA0, symBinAddr: 0x100003388, symSize: 0x2C }
  - { offset: 0x21C46, size: 0x8, addend: 0x0, symName: __ZSt12__niter_baseIPxNSt9__cxx19986vectorIxSaIxEEEET_N9__gnu_cxx17__normal_iteratorIS5_T0_EE, symObjAddr: 0x2B80, symBinAddr: 0x100003368, symSize: 0x20 }
  - { offset: 0x21C82, size: 0x8, addend: 0x0, symName: __ZSt12__niter_baseIPKxNSt9__cxx19986vectorIxSaIxEEEET_N9__gnu_cxx17__normal_iteratorIS6_T0_EE, symObjAddr: 0x2B60, symBinAddr: 0x100003348, symSize: 0x20 }
  - { offset: 0x21D16, size: 0x8, addend: 0x0, symName: __ZN11__gnu_debug16_Error_formatter10_ParameterC1IPxNSt9__cxx19986vectorIxSaIxEEEEERKN9__gnu_cxx17__normal_iteratorIT_T0_EEPKcNS0_12_Is_iteratorE, symObjAddr: 0x2B08, symBinAddr: 0x1000032F0, symSize: 0x58 }
  - { offset: 0x21DB6, size: 0x8, addend: 0x0, symName: __ZN11__gnu_debug16_Error_formatter10_ParameterC1IPKxNSt9__cxx19986vectorIxSaIxEEEEERKN9__gnu_cxx17__normal_iteratorIT_T0_EEPKcNS0_12_Is_iteratorE, symObjAddr: 0x2AB0, symBinAddr: 0x100003298, symSize: 0x58 }
  - { offset: 0x21E0C, size: 0x8, addend: 0x0, symName: __ZN11__gnu_debug17__valid_range_auxIN9__gnu_cxx17__normal_iteratorIPKxNSt9__cxx19986vectorIxSaIxEEEEEEEbT_SA_RNS_16_Distance_traitsISA_NSt12__is_integerISA_E6__typeEE6__typeESt12__false_type, symObjAddr: 0x29DC, symBinAddr: 0x1000031C4, symSize: 0xD4 }
  - { offset: 0x21E67, size: 0x8, addend: 0x0, symName: __ZSt18uninitialized_copyIN9__gnu_cxx17__normal_iteratorIPKxNSt9__cxx19986vectorIxSaIxEEEEEPxET0_T_SB_SA_, symObjAddr: 0x29A0, symBinAddr: 0x100003188, symSize: 0x3C }
  - { offset: 0x21F0A, size: 0x8, addend: 0x0, symName: __ZNSt15__new_allocatorIxE10deallocateEPxm, symObjAddr: 0x2970, symBinAddr: 0x100003158, symSize: 0x30 }
  - { offset: 0x21F50, size: 0x8, addend: 0x0, symName: __ZNSt12_Destroy_auxILb1EE9__destroyIPxEEvT_S3_, symObjAddr: 0x2958, symBinAddr: 0x100003140, symSize: 0x18 }
  - { offset: 0x21F84, size: 0x8, addend: 0x0, symName: __ZSt24__uninitialized_fill_n_aIPxmxxET_S1_T0_RKT1_RSaIT2_E, symObjAddr: 0x2928, symBinAddr: 0x100003110, symSize: 0x30 }
  - { offset: 0x22001, size: 0x8, addend: 0x0, symName: __ZNSt9__cxx199812_Vector_baseIxSaIxEE17_M_create_storageEm, symObjAddr: 0x28C8, symBinAddr: 0x1000030B0, symSize: 0x60 }
  - { offset: 0x22063, size: 0x8, addend: 0x0, symName: __ZNSt9__cxx199812_Vector_baseIxSaIxEE12_Vector_implC1ERKS1_, symObjAddr: 0x287C, symBinAddr: 0x100003064, symSize: 0x4C }
  - { offset: 0x22109, size: 0x8, addend: 0x0, symName: __ZNSt9__cxx19986vectorIxSaIxEE11_S_max_sizeERKS1_, symObjAddr: 0x2828, symBinAddr: 0x100003010, symSize: 0x54 }
  - { offset: 0x221C0, size: 0x8, addend: 0x0, symName: __ZSt11__addressofIKNSt7__debug6vectorIiSaIiEEEEPT_RS5_, symObjAddr: 0x2814, symBinAddr: 0x100002FFC, symSize: 0x14 }
  - { offset: 0x221F2, size: 0x8, addend: 0x0, symName: __ZNSt12_Destroy_auxILb1EE9__destroyIPiEEvT_S3_, symObjAddr: 0x27FC, symBinAddr: 0x100002FE4, symSize: 0x18 }
  - { offset: 0x2225C, size: 0x8, addend: 0x0, symName: __ZNK11__gnu_debug12_Safe_vectorINSt7__debug6vectorIiSaIiEEENSt9__cxx19986vectorIiS3_EEE6_M_seqEv, symObjAddr: 0x27E4, symBinAddr: 0x100002FCC, symSize: 0x18 }
  - { offset: 0x22282, size: 0x8, addend: 0x0, symName: __ZSt24__uninitialized_fill_n_aIPimiiET_S1_T0_RKT1_RSaIT2_E, symObjAddr: 0x27B4, symBinAddr: 0x100002F9C, symSize: 0x30 }
  - { offset: 0x222FF, size: 0x8, addend: 0x0, symName: __ZNSt9__cxx199812_Vector_baseIiSaIiEE17_M_create_storageEm, symObjAddr: 0x2754, symBinAddr: 0x100002F3C, symSize: 0x60 }
  - { offset: 0x22361, size: 0x8, addend: 0x0, symName: __ZNSt9__cxx199812_Vector_baseIiSaIiEE12_Vector_implC1ERKS1_, symObjAddr: 0x2708, symBinAddr: 0x100002EF0, symSize: 0x4C }
  - { offset: 0x22407, size: 0x8, addend: 0x0, symName: __ZNSt9__cxx19986vectorIiSaIiEE11_S_max_sizeERKS1_, symObjAddr: 0x26B4, symBinAddr: 0x100002E9C, symSize: 0x54 }
  - { offset: 0x22506, size: 0x8, addend: 0x0, symName: __ZN11__gnu_debug16_Error_formatter10_ParameterC1INSt7__debug6vectorIxSaIxEEEEERKT_PKcNS0_12_Is_sequenceE, symObjAddr: 0x2640, symBinAddr: 0x100002E28, symSize: 0x74 }
  - { offset: 0x22550, size: 0x8, addend: 0x0, symName: __ZNK11__gnu_debug12_Safe_vectorINSt7__debug6vectorIxSaIxEEENSt9__cxx19986vectorIxS3_EEE6_M_seqEv, symObjAddr: 0x2628, symBinAddr: 0x100002E10, symSize: 0x18 }
  - { offset: 0x22576, size: 0x8, addend: 0x0, symName: __ZSt18uninitialized_copyIPxS0_ET0_T_S2_S1_, symObjAddr: 0x25EC, symBinAddr: 0x100002DD4, symSize: 0x3C }
  - { offset: 0x225F1, size: 0x8, addend: 0x0, symName: __ZSt13__copy_move_aILb0EPxS0_ET1_T0_S2_S1_, symObjAddr: 0x258C, symBinAddr: 0x100002D74, symSize: 0x60 }
  - { offset: 0x22659, size: 0x8, addend: 0x0, symName: __ZSt12__miter_baseIPxET_S1_, symObjAddr: 0x2578, symBinAddr: 0x100002D60, symSize: 0x14 }
  - { offset: 0x2268C, size: 0x8, addend: 0x0, symName: __ZN11__gnu_debug13__can_advanceIPxlEEbT_RKSt4pairIT0_NS_19_Distance_precisionEEi, symObjAddr: 0x255C, symBinAddr: 0x100002D44, symSize: 0x1C }
  - { offset: 0x226D6, size: 0x8, addend: 0x0, symName: __ZN11__gnu_debug16_Error_formatter11_M_iteratorIPxEERS0_RKT_PKc, symObjAddr: 0x24C0, symBinAddr: 0x100002CA8, symSize: 0x9C }
  - { offset: 0x2272A, size: 0x8, addend: 0x0, symName: __ZN11__gnu_debug13__valid_rangeIPxEEbT_S2_RNS_16_Distance_traitsIS2_NSt12__is_integerIS2_E6__typeEE6__typeE, symObjAddr: 0x2494, symBinAddr: 0x100002C7C, symSize: 0x2C }
  - { offset: 0x2277C, size: 0x8, addend: 0x0, symName: __ZSt8_DestroyIN9__gnu_cxx17__normal_iteratorIPxNSt9__cxx19986vectorIxSaIxEEEEEEvT_S8_, symObjAddr: 0x246C, symBinAddr: 0x100002C54, symSize: 0x28 }
  - { offset: 0x227BE, size: 0x8, addend: 0x0, symName: __ZSt13__copy_move_aILb0EN9__gnu_cxx17__normal_iteratorIPKxNSt9__cxx19986vectorIxSaIxEEEEENS1_IPxS7_EEET1_T0_SC_SB_, symObjAddr: 0x240C, symBinAddr: 0x100002BF4, symSize: 0x60 }
  - { offset: 0x22826, size: 0x8, addend: 0x0, symName: __ZSt12__miter_baseIN9__gnu_cxx17__normal_iteratorIPKxNSt9__cxx19986vectorIxSaIxEEEEEET_S9_, symObjAddr: 0x23F8, symBinAddr: 0x100002BE0, symSize: 0x14 }
  - { offset: 0x2285D, size: 0x8, addend: 0x0, symName: __ZN11__gnu_debug16_Error_formatter11_M_iteratorIN9__gnu_cxx17__normal_iteratorIPxNSt9__cxx19986vectorIxSaIxEEEEEEERS0_RKT_PKc, symObjAddr: 0x235C, symBinAddr: 0x100002B44, symSize: 0x9C }
  - { offset: 0x228B1, size: 0x8, addend: 0x0, symName: __ZN11__gnu_debug13__can_advanceIN9__gnu_cxx17__normal_iteratorIPxNSt9__cxx19986vectorIxSaIxEEEEElEEbT_RKSt4pairIT0_NS_19_Distance_precisionEEi, symObjAddr: 0x2340, symBinAddr: 0x100002B28, symSize: 0x1C }
  - { offset: 0x228FB, size: 0x8, addend: 0x0, symName: __ZN11__gnu_debug16_Error_formatter11_M_iteratorIN9__gnu_cxx17__normal_iteratorIPKxNSt9__cxx19986vectorIxSaIxEEEEEEERS0_RKT_PKc, symObjAddr: 0x22A4, symBinAddr: 0x100002A8C, symSize: 0x9C }
  - { offset: 0x2294F, size: 0x8, addend: 0x0, symName: __ZN11__gnu_debug13__valid_rangeIN9__gnu_cxx17__normal_iteratorIPKxNSt9__cxx19986vectorIxSaIxEEEEEEEbT_SA_RNS_16_Distance_traitsISA_NSt12__is_integerISA_E6__typeEE6__typeE, symObjAddr: 0x2278, symBinAddr: 0x100002A60, symSize: 0x2C }
  - { offset: 0x229CD, size: 0x8, addend: 0x0, symName: __ZN9__gnu_cxx17__normal_iteratorIPxNSt9__cxx19986vectorIxSaIxEEEEC1ERKS1_, symObjAddr: 0x2250, symBinAddr: 0x100002A38, symSize: 0x28 }
  - { offset: 0x229F8, size: 0x8, addend: 0x0, symName: __ZSt22__uninitialized_copy_aIN9__gnu_cxx17__normal_iteratorIPKxNSt9__cxx19986vectorIxSaIxEEEEEPxxET0_T_SB_SA_RSaIT1_E, symObjAddr: 0x2220, symBinAddr: 0x100002A08, symSize: 0x30 }
  - { offset: 0x22A6C, size: 0x8, addend: 0x0, symName: __ZNSt9__cxx199812_Vector_baseIxSaIxEE11_M_allocateEm, symObjAddr: 0x21D0, symBinAddr: 0x1000029B8, symSize: 0x50 }
  - { offset: 0x22AFC, size: 0x8, addend: 0x0, symName: __ZN9__gnu_cxx17__normal_iteratorIPKxNSt9__cxx19986vectorIxSaIxEEEEC1ERKS2_, symObjAddr: 0x21A8, symBinAddr: 0x100002990, symSize: 0x28 }
  - { offset: 0x22B5D, size: 0x8, addend: 0x0, symName: __ZNSt9__cxx19986vectorIxSaIxEE15_M_erase_at_endEPx, symObjAddr: 0x2120, symBinAddr: 0x100002908, symSize: 0x88 }
  - { offset: 0x22BEE, size: 0x8, addend: 0x0, symName: __ZSt8_DestroyIPxEvT_S1_, symObjAddr: 0x20F8, symBinAddr: 0x1000028E0, symSize: 0x28 }
  - { offset: 0x22C34, size: 0x8, addend: 0x0, symName: __ZNSt9__cxx19986vectorIxSaIxEE18_M_fill_initializeEmRKx, symObjAddr: 0x20A0, symBinAddr: 0x100002888, symSize: 0x58 }
  - { offset: 0x22CB6, size: 0x8, addend: 0x0, symName: __ZNSt9__cxx199812_Vector_baseIxSaIxEEC2EmRKS1_, symObjAddr: 0x204C, symBinAddr: 0x100002834, symSize: 0x54 }
  - { offset: 0x22CEA, size: 0x8, addend: 0x0, symName: __ZNSt9__cxx19986vectorIxSaIxEE17_S_check_init_lenEmRKS1_, symObjAddr: 0x1FC8, symBinAddr: 0x1000027B0, symSize: 0x84 }
  - { offset: 0x22DE4, size: 0x8, addend: 0x0, symName: __ZN11__gnu_debug16_Error_formatter10_ParameterC1INSt7__debug6vectorIiSaIiEEEEERKT_PKcNS0_12_Is_sequenceE, symObjAddr: 0x1F54, symBinAddr: 0x10000273C, symSize: 0x74 }
  - { offset: 0x22E2A, size: 0x8, addend: 0x0, symName: __ZSt8_DestroyIPiEvT_S1_, symObjAddr: 0x1F2C, symBinAddr: 0x100002714, symSize: 0x28 }
  - { offset: 0x22E70, size: 0x8, addend: 0x0, symName: __ZNSt9__cxx199812_Vector_baseIiSaIiEE13_M_deallocateEPim, symObjAddr: 0x1ED4, symBinAddr: 0x1000026BC, symSize: 0x58 }
  - { offset: 0x22EF2, size: 0x8, addend: 0x0, symName: __ZN11__gnu_debug12_Safe_vectorINSt7__debug6vectorIiSaIiEEENSt9__cxx19986vectorIiS3_EEE29_M_update_guaranteed_capacityEv, symObjAddr: 0x1E6C, symBinAddr: 0x100002654, symSize: 0x68 }
  - { offset: 0x22F1C, size: 0x8, addend: 0x0, symName: __ZNSt9__cxx19986vectorIiSaIiEE18_M_fill_initializeEmRKi, symObjAddr: 0x1E14, symBinAddr: 0x1000025FC, symSize: 0x58 }
  - { offset: 0x22F9E, size: 0x8, addend: 0x0, symName: __ZNSt9__cxx199812_Vector_baseIiSaIiEEC2EmRKS1_, symObjAddr: 0x1DC0, symBinAddr: 0x1000025A8, symSize: 0x54 }
  - { offset: 0x22FD2, size: 0x8, addend: 0x0, symName: __ZNSt9__cxx19986vectorIiSaIiEE17_S_check_init_lenEmRKS1_, symObjAddr: 0x1D3C, symBinAddr: 0x100002524, symSize: 0x84 }
  - { offset: 0x23088, size: 0x8, addend: 0x0, symName: __ZNSt9__cxx19986vectorIxSaIxEEixEm, symObjAddr: 0x1CB8, symBinAddr: 0x1000024A0, symSize: 0x84 }
  - { offset: 0x230DE, size: 0x8, addend: 0x0, symName: __ZN11__gnu_debug16_Error_formatter11_M_sequenceINSt7__debug6vectorIxSaIxEEEEERS0_RKT_PKc, symObjAddr: 0x1C1C, symBinAddr: 0x100002404, symSize: 0x9C }
  - { offset: 0x23136, size: 0x8, addend: 0x0, symName: __ZN11__gnu_debug12_Safe_vectorINSt7__debug6vectorIxSaIxEEENSt9__cxx19986vectorIxS3_EEE29_M_update_guaranteed_capacityEv, symObjAddr: 0x1BB4, symBinAddr: 0x10000239C, symSize: 0x68 }
  - { offset: 0x2315C, size: 0x8, addend: 0x0, symName: __ZSt22__uninitialized_copy_aIPxS0_xET0_T_S2_S1_RSaIT1_E, symObjAddr: 0x1B84, symBinAddr: 0x10000236C, symSize: 0x30 }
  - { offset: 0x231CC, size: 0x8, addend: 0x0, symName: __ZSt4copyIPxS0_ET0_T_S2_S1_, symObjAddr: 0x1A24, symBinAddr: 0x10000220C, symSize: 0x160 }
  - { offset: 0x232A8, size: 0x8, addend: 0x0, symName: __ZNSt9__cxx19986vectorIxSaIxEE3endEv, symObjAddr: 0x19FC, symBinAddr: 0x1000021E4, symSize: 0x28 }
  - { offset: 0x232CE, size: 0x8, addend: 0x0, symName: __ZSt4copyIN9__gnu_cxx17__normal_iteratorIPKxNSt9__cxx19986vectorIxSaIxEEEEENS1_IPxS7_EEET0_T_SC_SB_, symObjAddr: 0x1898, symBinAddr: 0x100002080, symSize: 0x164 }
  - { offset: 0x23371, size: 0x8, addend: 0x0, symName: __ZNSt9__cxx19986vectorIxSaIxEE5beginEv, symObjAddr: 0x1874, symBinAddr: 0x10000205C, symSize: 0x24 }
  - { offset: 0x2339B, size: 0x8, addend: 0x0, symName: __ZNSt9__cxx19986vectorIxSaIxEE20_M_allocate_and_copyIN9__gnu_cxx17__normal_iteratorIPKxS2_EEEEPxmT_SA_, symObjAddr: 0x17F0, symBinAddr: 0x100001FD8, symSize: 0x84 }
  - { offset: 0x23412, size: 0x8, addend: 0x0, symName: __ZNKSt9__cxx19986vectorIxSaIxEE3endEv, symObjAddr: 0x17C8, symBinAddr: 0x100001FB0, symSize: 0x28 }
  - { offset: 0x2343C, size: 0x8, addend: 0x0, symName: __ZNKSt9__cxx19986vectorIxSaIxEE5beginEv, symObjAddr: 0x17A4, symBinAddr: 0x100001F8C, symSize: 0x24 }
  - { offset: 0x23466, size: 0x8, addend: 0x0, symName: __ZNKSt9__cxx19986vectorIxSaIxEE8capacityEv, symObjAddr: 0x177C, symBinAddr: 0x100001F64, symSize: 0x28 }
  - { offset: 0x23490, size: 0x8, addend: 0x0, symName: __ZNKSt9__cxx19986vectorIxSaIxEE4sizeEv, symObjAddr: 0x1754, symBinAddr: 0x100001F3C, symSize: 0x28 }
  - { offset: 0x234E7, size: 0x8, addend: 0x0, symName: __ZNSt9__cxx199812_Vector_baseIxSaIxEE13_M_deallocateEPxm, symObjAddr: 0x16FC, symBinAddr: 0x100001EE4, symSize: 0x58 }
  - { offset: 0x23569, size: 0x8, addend: 0x0, symName: __ZNSt9__cxx19986vectorIxSaIxEE5clearEv, symObjAddr: 0x16D0, symBinAddr: 0x100001EB8, symSize: 0x2C }
  - { offset: 0x235A5, size: 0x8, addend: 0x0, symName: __ZNKSt9__cxx199812_Vector_baseIxSaIxEE19_M_get_Tp_allocatorEv, symObjAddr: 0x16BC, symBinAddr: 0x100001EA4, symSize: 0x14 }
  - { offset: 0x2360A, size: 0x8, addend: 0x0, symName: __ZNSt9__cxx199812_Vector_baseIxSaIxEE19_M_get_Tp_allocatorEv, symObjAddr: 0x16A8, symBinAddr: 0x100001E90, symSize: 0x14 }
  - { offset: 0x23658, size: 0x8, addend: 0x0, symName: __ZNSt9__cxx199812_Vector_baseIxSaIxEED2Ev, symObjAddr: 0x1658, symBinAddr: 0x100001E40, symSize: 0x50 }
  - { offset: 0x236A5, size: 0x8, addend: 0x0, symName: __ZNSt9__cxx199812_Vector_baseIxSaIxEE12_Vector_implD1Ev, symObjAddr: 0x162C, symBinAddr: 0x100001E14, symSize: 0x2C }
  - { offset: 0x23708, size: 0x8, addend: 0x0, symName: __ZN11__gnu_debug12_Safe_vectorINSt7__debug6vectorIxSaIxEEENSt9__cxx19986vectorIxS3_EEEC2Ev, symObjAddr: 0x1604, symBinAddr: 0x100001DEC, symSize: 0x28 }
  - { offset: 0x23772, size: 0x8, addend: 0x0, symName: __ZNSt9__cxx19986vectorIxSaIxEEC2EmRKxRKS1_, symObjAddr: 0x1594, symBinAddr: 0x100001D7C, symSize: 0x70 }
  - { offset: 0x237D7, size: 0x8, addend: 0x0, symName: __ZNSt15__new_allocatorIxED2Ev, symObjAddr: 0x1580, symBinAddr: 0x100001D68, symSize: 0x14 }
  - { offset: 0x23813, size: 0x8, addend: 0x0, symName: __ZNSt9__cxx19986vectorIiSaIiEEixEm, symObjAddr: 0x14FC, symBinAddr: 0x100001CE4, symSize: 0x84 }
  - { offset: 0x23869, size: 0x8, addend: 0x0, symName: __ZN11__gnu_debug16_Error_formatter11_M_sequenceINSt7__debug6vectorIiSaIiEEEEERS0_RKT_PKc, symObjAddr: 0x1460, symBinAddr: 0x100001C48, symSize: 0x9C }
  - { offset: 0x238C1, size: 0x8, addend: 0x0, symName: __ZNKSt9__cxx19986vectorIiSaIiEE4sizeEv, symObjAddr: 0x1438, symBinAddr: 0x100001C20, symSize: 0x28 }
  - { offset: 0x23926, size: 0x8, addend: 0x0, symName: __ZNSt9__cxx199812_Vector_baseIiSaIiEE19_M_get_Tp_allocatorEv, symObjAddr: 0x1424, symBinAddr: 0x100001C0C, symSize: 0x14 }
  - { offset: 0x23974, size: 0x8, addend: 0x0, symName: __ZNSt9__cxx199812_Vector_baseIiSaIiEED2Ev, symObjAddr: 0x13D4, symBinAddr: 0x100001BBC, symSize: 0x50 }
  - { offset: 0x239C1, size: 0x8, addend: 0x0, symName: __ZNSt9__cxx199812_Vector_baseIiSaIiEE12_Vector_implD1Ev, symObjAddr: 0x13A8, symBinAddr: 0x100001B90, symSize: 0x2C }
  - { offset: 0x23A24, size: 0x8, addend: 0x0, symName: __ZN11__gnu_debug12_Safe_vectorINSt7__debug6vectorIiSaIiEEENSt9__cxx19986vectorIiS3_EEEC2Ev, symObjAddr: 0x1380, symBinAddr: 0x100001B68, symSize: 0x28 }
  - { offset: 0x23A8E, size: 0x8, addend: 0x0, symName: __ZNSt9__cxx19986vectorIiSaIiEEC2EmRKiRKS1_, symObjAddr: 0x1310, symBinAddr: 0x100001AF8, symSize: 0x70 }
  - { offset: 0x23AF3, size: 0x8, addend: 0x0, symName: __ZNSt15__new_allocatorIiED2Ev, symObjAddr: 0x12FC, symBinAddr: 0x100001AE4, symSize: 0x14 }
  - { offset: 0x23B2F, size: 0x8, addend: 0x0, symName: __ZNSt7__debug6vectorIxSaIxEEixEm, symObjAddr: 0x1218, symBinAddr: 0x100001A00, symSize: 0xE4 }
  - { offset: 0x23B85, size: 0x8, addend: 0x0, symName: __ZN11__gnu_debug12_Safe_vectorINSt7__debug6vectorIxSaIxEEENSt9__cxx19986vectorIxS3_EEEaSERKS8_, symObjAddr: 0x11F4, symBinAddr: 0x1000019DC, symSize: 0x24 }
  - { offset: 0x23BB8, size: 0x8, addend: 0x0, symName: __ZNSt9__cxx19986vectorIxSaIxEEaSERKS2_, symObjAddr: 0xEAC, symBinAddr: 0x100001694, symSize: 0x348 }
  - { offset: 0x23D3C, size: 0x8, addend: 0x0, symName: __ZSt11__addressofIKNSt9__cxx19986vectorIxSaIxEEEEPT_RS5_, symObjAddr: 0xE98, symBinAddr: 0x100001680, symSize: 0x14 }
  - { offset: 0x23D72, size: 0x8, addend: 0x0, symName: __ZN11__gnu_debug15_Safe_containerINSt7__debug6vectorIxSaIxEEES3_NS_14_Safe_sequenceELb1EEaSERKS6_, symObjAddr: 0xE5C, symBinAddr: 0x100001644, symSize: 0x3C }
  - { offset: 0x23DE2, size: 0x8, addend: 0x0, symName: __ZNSt9__cxx19986vectorIxSaIxEED2Ev, symObjAddr: 0xE00, symBinAddr: 0x1000015E8, symSize: 0x5C }
  - { offset: 0x23E7F, size: 0x8, addend: 0x0, symName: __ZNSt7__debug6vectorIxSaIxEEC1EmRKxRKS1_, symObjAddr: 0xD94, symBinAddr: 0x10000157C, symSize: 0x6C }
  - { offset: 0x23EDA, size: 0x8, addend: 0x0, symName: __ZN11__gnu_debug15_Safe_containerINSt7__debug6vectorIxSaIxEEES3_NS_14_Safe_sequenceELb1EEC2Ev, symObjAddr: 0xD74, symBinAddr: 0x10000155C, symSize: 0x20 }
  - { offset: 0x23F28, size: 0x8, addend: 0x0, symName: __ZN11__gnu_debug14_Safe_sequenceINSt7__debug6vectorIxSaIxEEEEC2Ev, symObjAddr: 0xD54, symBinAddr: 0x10000153C, symSize: 0x20 }
  - { offset: 0x23F84, size: 0x8, addend: 0x0, symName: __ZNSt7__debug6vectorIiSaIiEEixEm, symObjAddr: 0xC70, symBinAddr: 0x100001458, symSize: 0xE4 }
  - { offset: 0x23FFE, size: 0x8, addend: 0x0, symName: __ZNSt9__cxx19986vectorIiSaIiEED2Ev, symObjAddr: 0xC14, symBinAddr: 0x1000013FC, symSize: 0x5C }
  - { offset: 0x2409B, size: 0x8, addend: 0x0, symName: __ZNSt7__debug6vectorIiSaIiEEC1EmRKiRKS1_, symObjAddr: 0xBA8, symBinAddr: 0x100001390, symSize: 0x6C }
  - { offset: 0x240F6, size: 0x8, addend: 0x0, symName: __ZN11__gnu_debug15_Safe_containerINSt7__debug6vectorIiSaIiEEES3_NS_14_Safe_sequenceELb1EEC2Ev, symObjAddr: 0xB88, symBinAddr: 0x100001370, symSize: 0x20 }
  - { offset: 0x24144, size: 0x8, addend: 0x0, symName: __ZN11__gnu_debug14_Safe_sequenceINSt7__debug6vectorIiSaIiEEEEC2Ev, symObjAddr: 0xB68, symBinAddr: 0x100001350, symSize: 0x20 }
  - { offset: 0x241A3, size: 0x8, addend: 0x0, symName: _main, symObjAddr: 0xAF8, symBinAddr: 0x1000012E0, symSize: 0x70 }
  - { offset: 0x241D3, size: 0x8, addend: 0x0, symName: __Z5solvev, symObjAddr: 0x604, symBinAddr: 0x100000DEC, symSize: 0x4F4 }
  - { offset: 0x244DF, size: 0x8, addend: 0x0, symName: __ZNSt7__debug6vectorIxSaIxEEaSERKS2_, symObjAddr: 0x5A4, symBinAddr: 0x100000D8C, symSize: 0x60 }
  - { offset: 0x24536, size: 0x8, addend: 0x0, symName: __ZNSt7__debug6vectorIxSaIxEED1Ev, symObjAddr: 0x578, symBinAddr: 0x100000D60, symSize: 0x2C }
  - { offset: 0x24583, size: 0x8, addend: 0x0, symName: __ZN11__gnu_debug15_Safe_containerINSt7__debug6vectorIxSaIxEEES3_NS_14_Safe_sequenceELb1EED2Ev, symObjAddr: 0x558, symBinAddr: 0x100000D40, symSize: 0x20 }
  - { offset: 0x245D0, size: 0x8, addend: 0x0, symName: __ZN11__gnu_debug14_Safe_sequenceINSt7__debug6vectorIxSaIxEEEED2Ev, symObjAddr: 0x538, symBinAddr: 0x100000D20, symSize: 0x20 }
  - { offset: 0x2461A, size: 0x8, addend: 0x0, symName: __ZNSt7__debug6vectorIiSaIiEED1Ev, symObjAddr: 0x50C, symBinAddr: 0x100000CF4, symSize: 0x2C }
  - { offset: 0x24667, size: 0x8, addend: 0x0, symName: __ZN11__gnu_debug15_Safe_containerINSt7__debug6vectorIiSaIiEEES3_NS_14_Safe_sequenceELb1EED2Ev, symObjAddr: 0x4EC, symBinAddr: 0x100000CD4, symSize: 0x20 }
  - { offset: 0x246B4, size: 0x8, addend: 0x0, symName: __ZN11__gnu_debug14_Safe_sequenceINSt7__debug6vectorIiSaIiEEEED2Ev, symObjAddr: 0x4CC, symBinAddr: 0x100000CB4, symSize: 0x20 }
  - { offset: 0x246E1, size: 0x8, addend: 0x0, symName: __Z10modInversex, symObjAddr: 0x4A8, symBinAddr: 0x100000C90, symSize: 0x24 }
  - { offset: 0x24715, size: 0x8, addend: 0x0, symName: __Z9fastPowerxx, symObjAddr: 0x35C, symBinAddr: 0x100000B44, symSize: 0x14C }
  - { offset: 0x2475E, size: 0x8, addend: 0x0, symName: __ZSt3minImERKT_S2_S2_, symObjAddr: 0x324, symBinAddr: 0x100000B0C, symSize: 0x38 }
  - { offset: 0x247A4, size: 0x8, addend: 0x0, symName: __ZNK11__gnu_debug19_Safe_sequence_base17_M_invalidate_allEv, symObjAddr: 0x2D0, symBinAddr: 0x100000AB8, symSize: 0x54 }
  - { offset: 0x247F2, size: 0x8, addend: 0x0, symName: __ZN11__gnu_debug19_Safe_sequence_baseD2Ev, symObjAddr: 0x298, symBinAddr: 0x100000A80, symSize: 0x38 }
  - { offset: 0x2484B, size: 0x8, addend: 0x0, symName: __ZN11__gnu_debug19_Safe_sequence_baseC2Ev, symObjAddr: 0x268, symBinAddr: 0x100000A50, symSize: 0x30 }
  - { offset: 0x2486D, size: 0x8, addend: 0x0, symName: __ZSt17__size_to_integerm, symObjAddr: 0x254, symBinAddr: 0x100000A3C, symSize: 0x14 }
  - { offset: 0x24897, size: 0x8, addend: 0x0, symName: __ZN11__gnu_debug16_Error_formatter5_S_atEPKcjS2_, symObjAddr: 0x1C0, symBinAddr: 0x1000009A8, symSize: 0x94 }
  - { offset: 0x248F0, size: 0x8, addend: 0x0, symName: __ZZN11__gnu_debug16_Error_formatter5_S_atEPKcjS2_E11__formatter, symObjAddr: 0x3EA8, symBinAddr: 0x100010000, symSize: 0x0 }
  - { offset: 0x24947, size: 0x8, addend: 0x0, symName: __ZN11__gnu_debug16_Error_formatterC1EPKcjS2_, symObjAddr: 0x134, symBinAddr: 0x10000091C, symSize: 0x8C }
  - { offset: 0x24988, size: 0x8, addend: 0x0, symName: __ZN11__gnu_debug16_Error_formatter10_M_integerElPKc, symObjAddr: 0x98, symBinAddr: 0x100000880, symSize: 0x9C }
  - { offset: 0x24A0D, size: 0x8, addend: 0x0, symName: __ZN11__gnu_debug16_Error_formatter10_ParameterC1ElPKc, symObjAddr: 0x44, symBinAddr: 0x10000082C, symSize: 0x54 }
  - { offset: 0x24A5F, size: 0x8, addend: 0x0, symName: __ZN11__gnu_debug16_Error_formatter10_ParameterC1Ev, symObjAddr: 0x14, symBinAddr: 0x1000007FC, symSize: 0x30 }
  - { offset: 0x24A81, size: 0x8, addend: 0x0, symName: __ZN11__gnu_debug20__check_singular_auxEPKv, symObjAddr: 0x0, symBinAddr: 0x1000007E8, symSize: 0x14 }
...
