---
triple:          'arm64-apple-darwin'
binary-path:     '/Users/mengchengxi/Documents/code/C++C/competition/B. Annoying the Ghost'
relocations:
  - { offset: 0x1EA6A, size: 0x8, addend: 0x0, symName: __ZStL8__ioinit, symObjAddr: 0x9C2B8, symBinAddr: 0x100010228, symSize: 0x0 }
  - { offset: 0x1EFD6, size: 0x8, addend: 0x0, symName: __ZL3INF, symObjAddr: 0x6830, symBinAddr: 0x100007A50, symSize: 0x0 }
  - { offset: 0x1EFED, size: 0x8, addend: 0x0, symName: __ZL3mod, symObjAddr: 0x6834, symBinAddr: 0x100007A54, symSize: 0x0 }
  - { offset: 0x1F352, size: 0x8, addend: 0x0, symName: __GLOBAL__sub_I_B._Annoying_the_Ghost.cpp, symObjAddr: 0x6C5C, symBinAddr: 0x100005A80, symSize: 0x14 }
  - { offset: 0x1F36A, size: 0x8, addend: 0x0, symName: __Z41__static_initialization_and_destruction_0v, symObjAddr: 0x6C20, symBinAddr: 0x100005A44, symSize: 0x3C }
  - { offset: 0x1F382, size: 0x8, addend: 0x0, symName: __ZNSt20__copy_move_backwardILb1ELb1ESt26random_access_iterator_tagE13__copy_move_bIiiEEPT0_PT_S6_S4_, symObjAddr: 0x51B0, symBinAddr: 0x100005998, symSize: 0xAC }
  - { offset: 0x1F3F1, size: 0x8, addend: 0x0, symName: __ZN11__gnu_debug14__get_distanceIPiEENS_16_Distance_traitsIT_NSt12__is_integerIS3_E6__typeEE6__typeES3_S3_St26random_access_iterator_tag, symObjAddr: 0x516C, symBinAddr: 0x100005954, symSize: 0x44 }
  - { offset: 0x1F43C, size: 0x8, addend: 0x0, symName: __ZSt23__copy_move_backward_a2ILb1EPiS0_ET1_T0_S2_S1_, symObjAddr: 0x5140, symBinAddr: 0x100005928, symSize: 0x2C }
  - { offset: 0x1F4A4, size: 0x8, addend: 0x0, symName: __ZN11__gnu_debug14__get_distanceIPiEENS_16_Distance_traitsIT_NSt12__is_integerIS3_E6__typeEE6__typeES3_S3_, symObjAddr: 0x5118, symBinAddr: 0x100005900, symSize: 0x28 }
  - { offset: 0x1F506, size: 0x8, addend: 0x0, symName: __ZN11__gnu_debug17__valid_range_auxIPiEEbT_S2_St18input_iterator_tag, symObjAddr: 0x50A8, symBinAddr: 0x100005890, symSize: 0x70 }
  - { offset: 0x1F551, size: 0x8, addend: 0x0, symName: __ZN11__gnu_debug16__check_singularIiEEbRKPT_, symObjAddr: 0x5084, symBinAddr: 0x10000586C, symSize: 0x24 }
  - { offset: 0x1F583, size: 0x8, addend: 0x0, symName: __ZSt9__fill_a1IPiiEN9__gnu_cxx11__enable_ifIXsrSt11__is_scalarIT0_E7__valueEvE6__typeET_S8_RKS4_, symObjAddr: 0x502C, symBinAddr: 0x100005814, symSize: 0x58 }
  - { offset: 0x1F5F2, size: 0x8, addend: 0x0, symName: __ZSt14__relocate_a_1IiiENSt9enable_ifIXsrSt24__is_bitwise_relocatableIT_vE5valueEPS2_E4typeES4_S4_S4_RSaIT0_E, symObjAddr: 0x4FC8, symBinAddr: 0x1000057B0, symSize: 0x64 }
  - { offset: 0x1F676, size: 0x8, addend: 0x0, symName: __ZNKSt9__cxx199812_Vector_baseIiSaIiEE19_M_get_Tp_allocatorEv, symObjAddr: 0x4FB4, symBinAddr: 0x10000579C, symSize: 0x14 }
  - { offset: 0x1F69C, size: 0x8, addend: 0x0, symName: __ZSt12__niter_wrapIPiET_RKS1_S1_, symObjAddr: 0x4F9C, symBinAddr: 0x100005784, symSize: 0x18 }
  - { offset: 0x1F6D8, size: 0x8, addend: 0x0, symName: __ZSt23__copy_move_backward_a1ILb1EPiS0_ET1_T0_S2_S1_, symObjAddr: 0x4F70, symBinAddr: 0x100005758, symSize: 0x2C }
  - { offset: 0x1F747, size: 0x8, addend: 0x0, symName: __ZN11__gnu_debug17__valid_range_auxIPiEEbT_S2_RNS_16_Distance_traitsIS2_NSt12__is_integerIS2_E6__typeEE6__typeESt12__false_type, symObjAddr: 0x4E9C, symBinAddr: 0x100005684, symSize: 0xD4 }
  - { offset: 0x1F7A2, size: 0x8, addend: 0x0, symName: __ZNSt11__copy_moveILb1ELb0ESt26random_access_iterator_tagE12__assign_oneIiiEEvPT_PT0_, symObjAddr: 0x4E6C, symBinAddr: 0x100005654, symSize: 0x30 }
  - { offset: 0x1F7EF, size: 0x8, addend: 0x0, symName: __ZSt8__fill_aIPiiEvT_S1_RKT0_, symObjAddr: 0x4E3C, symBinAddr: 0x100005624, symSize: 0x30 }
  - { offset: 0x1F84D, size: 0x8, addend: 0x0, symName: __ZN11__gnu_debug13__can_advanceIPimEEbT_T0_, symObjAddr: 0x4E24, symBinAddr: 0x10000560C, symSize: 0x18 }
  - { offset: 0x1F88A, size: 0x8, addend: 0x0, symName: __ZSt12__relocate_aIPiS0_SaIiEET0_T_S3_S2_RT1_, symObjAddr: 0x4DC8, symBinAddr: 0x1000055B0, symSize: 0x5C }
  - { offset: 0x1F906, size: 0x8, addend: 0x0, symName: __ZNKSt9__cxx19986vectorIiSaIiEE8max_sizeEv, symObjAddr: 0x4DA8, symBinAddr: 0x100005590, symSize: 0x20 }
  - { offset: 0x1F92C, size: 0x8, addend: 0x0, symName: __ZSt22__copy_move_backward_aILb1EPiS0_ET1_T0_S2_S1_, symObjAddr: 0x4D48, symBinAddr: 0x100005530, symSize: 0x60 }
  - { offset: 0x1F994, size: 0x8, addend: 0x0, symName: __ZSt12__miter_baseIPiET_S1_, symObjAddr: 0x4D34, symBinAddr: 0x10000551C, symSize: 0x14 }
  - { offset: 0x1F9C7, size: 0x8, addend: 0x0, symName: __ZN11__gnu_debug13__can_advanceIPilEEbT_RKSt4pairIT0_NS_19_Distance_precisionEEi, symObjAddr: 0x4D18, symBinAddr: 0x100005500, symSize: 0x1C }
  - { offset: 0x1FA11, size: 0x8, addend: 0x0, symName: __ZN11__gnu_debug16_Error_formatter11_M_iteratorIPiEERS0_RKT_PKc, symObjAddr: 0x4C7C, symBinAddr: 0x100005464, symSize: 0x9C }
  - { offset: 0x1FA65, size: 0x8, addend: 0x0, symName: __ZN11__gnu_debug13__valid_rangeIPiEEbT_S2_RNS_16_Distance_traitsIS2_NSt12__is_integerIS2_E6__typeEE6__typeE, symObjAddr: 0x4C50, symBinAddr: 0x100005438, symSize: 0x2C }
  - { offset: 0x1FAB7, size: 0x8, addend: 0x0, symName: __ZNSt11__copy_moveILb1ELb1ESt26random_access_iterator_tagE8__copy_mIiiEEPT0_PT_S6_S4_, symObjAddr: 0x4BC0, symBinAddr: 0x1000053A8, symSize: 0x90 }
  - { offset: 0x1FB2C, size: 0x8, addend: 0x0, symName: __ZSt11__addressofIKPiEPT_RS2_, symObjAddr: 0x4BAC, symBinAddr: 0x100005394, symSize: 0x14 }
  - { offset: 0x1FB5E, size: 0x8, addend: 0x0, symName: __ZSt11__addressofIKN9__gnu_cxx17__normal_iteratorIPiNSt9__cxx19986vectorIiSaIiEEEEEEPT_RS9_, symObjAddr: 0x4B98, symBinAddr: 0x100005380, symSize: 0x14 }
  - { offset: 0x1FB90, size: 0x8, addend: 0x0, symName: __ZSt10__fill_n_aIPimiET_S1_T0_RKT1_St26random_access_iterator_tag, symObjAddr: 0x4AAC, symBinAddr: 0x100005294, symSize: 0xEC }
  - { offset: 0x1FC31, size: 0x8, addend: 0x0, symName: __ZNSt9__cxx19986vectorIiSaIiEE11_S_relocateEPiS3_S3_RS1_, symObjAddr: 0x4A78, symBinAddr: 0x100005260, symSize: 0x34 }
  - { offset: 0x1FC8E, size: 0x8, addend: 0x0, symName: __ZSt12__to_addressIiEPT_S1_, symObjAddr: 0x4A64, symBinAddr: 0x10000524C, symSize: 0x14 }
  - { offset: 0x1FCC4, size: 0x8, addend: 0x0, symName: __ZNKSt9__cxx19986vectorIiSaIiEE12_M_check_lenEmPKc, symObjAddr: 0x4994, symBinAddr: 0x10000517C, symSize: 0xD0 }
  - { offset: 0x1FD21, size: 0x8, addend: 0x0, symName: __ZNK9__gnu_cxx17__normal_iteratorIPiNSt9__cxx19986vectorIiSaIiEEEEdeEv, symObjAddr: 0x497C, symBinAddr: 0x100005164, symSize: 0x18 }
  - { offset: 0x1FD47, size: 0x8, addend: 0x0, symName: __ZSt13move_backwardIPiS0_ET0_T_S2_S1_, symObjAddr: 0x4818, symBinAddr: 0x100005000, symSize: 0x164 }
  - { offset: 0x1FE26, size: 0x8, addend: 0x0, symName: __ZSt12__niter_baseIPiET_S1_, symObjAddr: 0x4804, symBinAddr: 0x100004FEC, symSize: 0x14 }
  - { offset: 0x1FE59, size: 0x8, addend: 0x0, symName: __ZSt14__copy_move_a2ILb1EPiS0_ET1_T0_S2_S1_, symObjAddr: 0x47D8, symBinAddr: 0x100004FC0, symSize: 0x2C }
  - { offset: 0x1FF09, size: 0x8, addend: 0x0, symName: __ZN11__gnu_debug16_Error_formatter10_ParameterC1IiEERKPT_PKcNS0_12_Is_iteratorE, symObjAddr: 0x4728, symBinAddr: 0x100004F10, symSize: 0xB0 }
  - { offset: 0x1FF53, size: 0x8, addend: 0x0, symName: __ZNSt4pairIlN11__gnu_debug19_Distance_precisionEEaSEOS2_, symObjAddr: 0x46E0, symBinAddr: 0x100004EC8, symSize: 0x48 }
  - { offset: 0x1FF8A, size: 0x8, addend: 0x0, symName: __ZN11__gnu_debug17__valid_range_auxIN9__gnu_cxx17__normal_iteratorIPiNSt9__cxx19986vectorIiSaIiEEEEEEEbT_S9_St18input_iterator_tag, symObjAddr: 0x4668, symBinAddr: 0x100004E50, symSize: 0x78 }
  - { offset: 0x1FFD5, size: 0x8, addend: 0x0, symName: __ZN11__gnu_debug16__check_singularIN9__gnu_cxx17__normal_iteratorIPiNSt9__cxx19986vectorIiSaIiEEEEEEEbRKT_, symObjAddr: 0x4618, symBinAddr: 0x100004E00, symSize: 0x50 }
  - { offset: 0x2006C, size: 0x8, addend: 0x0, symName: __ZNSt4pairIlN11__gnu_debug19_Distance_precisionEEC1IlS1_Lb1EEEOT_OT0_, symObjAddr: 0x45D0, symBinAddr: 0x100004DB8, symSize: 0x48 }
  - { offset: 0x200B9, size: 0x8, addend: 0x0, symName: __ZSt7forwardIlEOT_RNSt16remove_referenceIS0_E4typeE, symObjAddr: 0x45BC, symBinAddr: 0x100004DA4, symSize: 0x14 }
  - { offset: 0x200EB, size: 0x8, addend: 0x0, symName: __ZSt6fill_nIPimiET_S1_T0_RKT1_, symObjAddr: 0x4574, symBinAddr: 0x100004D5C, symSize: 0x48 }
  - { offset: 0x20173, size: 0x8, addend: 0x0, symName: __ZSt10_ConstructIiJEEvPT_DpOT0_, symObjAddr: 0x4548, symBinAddr: 0x100004D30, symSize: 0x2C }
  - { offset: 0x201AF, size: 0x8, addend: 0x0, symName: __ZSt11__addressofIiEPT_RS0_, symObjAddr: 0x4534, symBinAddr: 0x100004D1C, symSize: 0x14 }
  - { offset: 0x201E5, size: 0x8, addend: 0x0, symName: __ZNSt15__new_allocatorIiE8allocateEmPKv, symObjAddr: 0x44B8, symBinAddr: 0x100004CA0, symSize: 0x7C }
  - { offset: 0x20271, size: 0x8, addend: 0x0, symName: __ZNSt9__cxx19986vectorIiSaIiEE17_M_realloc_insertIJiEEEvN9__gnu_cxx17__normal_iteratorIPiS2_EEDpOT_, symObjAddr: 0x42CC, symBinAddr: 0x100004AB4, symSize: 0x1EC }
  - { offset: 0x20408, size: 0x8, addend: 0x0, symName: __ZZNSt9__cxx19986vectorIiSaIiEE17_M_realloc_insertIJiEEEvN9__gnu_cxx17__normal_iteratorIPiS2_EEDpOT_EN6_GuardC1ES6_mRS1_, symObjAddr: 0x4228, symBinAddr: 0x100004A10, symSize: 0x44 }
  - { offset: 0x2044D, size: 0x8, addend: 0x0, symName: __ZZNSt9__cxx19986vectorIiSaIiEE17_M_realloc_insertIJiEEEvN9__gnu_cxx17__normal_iteratorIPiS2_EEDpOT_EN6_GuardD1Ev, symObjAddr: 0x426C, symBinAddr: 0x100004A54, symSize: 0x60 }
  - { offset: 0x20540, size: 0x8, addend: 0x0, symName: __ZNSt9__cxx19986vectorIiSaIiEE13_M_insert_auxIiEEvN9__gnu_cxx17__normal_iteratorIPiS2_EEOT_, symObjAddr: 0x4130, symBinAddr: 0x100004918, symSize: 0xF8 }
  - { offset: 0x20646, size: 0x8, addend: 0x0, symName: __ZNKSt9__cxx19986vectorIiSaIiEE4cendEv, symObjAddr: 0x4108, symBinAddr: 0x1000048F0, symSize: 0x28 }
  - { offset: 0x2066C, size: 0x8, addend: 0x0, symName: __ZSt12__niter_wrapIN9__gnu_cxx17__normal_iteratorIPiNSt9__cxx19986vectorIiSaIiEEEEES2_ET_S8_T0_, symObjAddr: 0x40C0, symBinAddr: 0x1000048A8, symSize: 0x48 }
  - { offset: 0x206B9, size: 0x8, addend: 0x0, symName: __ZSt14__copy_move_a1ILb1EPiS0_ET1_T0_S2_S1_, symObjAddr: 0x4094, symBinAddr: 0x10000487C, symSize: 0x2C }
  - { offset: 0x20721, size: 0x8, addend: 0x0, symName: __ZSt12__niter_baseIPiNSt9__cxx19986vectorIiSaIiEEEET_N9__gnu_cxx17__normal_iteratorIS5_T0_EE, symObjAddr: 0x4074, symBinAddr: 0x10000485C, symSize: 0x20 }
  - { offset: 0x207AE, size: 0x8, addend: 0x0, symName: __ZN11__gnu_debug16_Error_formatter10_ParameterC1IPiNSt9__cxx19986vectorIiSaIiEEEEERKN9__gnu_cxx17__normal_iteratorIT_T0_EEPKcNS0_12_Is_iteratorE, symObjAddr: 0x401C, symBinAddr: 0x100004804, symSize: 0x58 }
  - { offset: 0x20804, size: 0x8, addend: 0x0, symName: __ZN11__gnu_debug17__valid_range_auxIN9__gnu_cxx17__normal_iteratorIPiNSt9__cxx19986vectorIiSaIiEEEEEEEbT_S9_RNS_16_Distance_traitsIS9_NSt12__is_integerIS9_E6__typeEE6__typeESt12__false_type, symObjAddr: 0x3F48, symBinAddr: 0x100004730, symSize: 0xD4 }
  - { offset: 0x2085F, size: 0x8, addend: 0x0, symName: __ZSt11__addressofIKN11__gnu_debug14_Safe_iteratorIN9__gnu_cxx17__normal_iteratorIPiNSt9__cxx19986vectorIiSaIiEEEEENSt7__debug6vectorIiS7_EESt20forward_iterator_tagEEEPT_RSG_, symObjAddr: 0x3F34, symBinAddr: 0x10000471C, symSize: 0x14 }
  - { offset: 0x20891, size: 0x8, addend: 0x0, symName: __ZSt11__addressofIKN11__gnu_debug14_Safe_iteratorIN9__gnu_cxx17__normal_iteratorIPKiNSt9__cxx19986vectorIiSaIiEEEEENSt7__debug6vectorIiS8_EESt20forward_iterator_tagEEEPT_RSH_, symObjAddr: 0x3F20, symBinAddr: 0x100004708, symSize: 0x14 }
  - { offset: 0x208C3, size: 0x8, addend: 0x0, symName: __ZSt9make_pairIlN11__gnu_debug19_Distance_precisionEESt4pairINSt25__strip_reference_wrapperINSt5decayIT_E4typeEE6__typeENS3_INS4_IT0_E4typeEE6__typeEEOS5_OSA_, symObjAddr: 0x3ED4, symBinAddr: 0x1000046BC, symSize: 0x4C }
  - { offset: 0x20910, size: 0x8, addend: 0x0, symName: __ZN9__gnu_cxxmiIPiNSt9__cxx19986vectorIiSaIiEEEEENS_17__normal_iteratorIT_T0_E15difference_typeERKS9_SC_, symObjAddr: 0x3E94, symBinAddr: 0x10000467C, symSize: 0x40 }
  - { offset: 0x209A9, size: 0x8, addend: 0x0, symName: __ZNSt4pairImN11__gnu_debug19_Distance_precisionEEC1ImS1_Lb1EEEOT_OT0_, symObjAddr: 0x3E4C, symBinAddr: 0x100004634, symSize: 0x48 }
  - { offset: 0x209EF, size: 0x8, addend: 0x0, symName: __ZNSt27__uninitialized_default_n_1ILb1EE18__uninit_default_nIPimEET_S3_T0_, symObjAddr: 0x3DE8, symBinAddr: 0x1000045D0, symSize: 0x64 }
  - { offset: 0x20AA4, size: 0x8, addend: 0x0, symName: __ZNKSt9__cxx19986vectorIiSaIiEE8capacityEv, symObjAddr: 0x3DC0, symBinAddr: 0x1000045A8, symSize: 0x28 }
  - { offset: 0x20ACE, size: 0x8, addend: 0x0, symName: __ZNSt9__cxx19986vectorIiSaIiEE14_M_insert_rvalEN9__gnu_cxx17__normal_iteratorIPKiS2_EEOi, symObjAddr: 0x3C2C, symBinAddr: 0x100004414, symSize: 0x194 }
  - { offset: 0x20B9A, size: 0x8, addend: 0x0, symName: __ZNKSt9__cxx19986vectorIiSaIiEE5beginEv, symObjAddr: 0x3C08, symBinAddr: 0x1000043F0, symSize: 0x24 }
  - { offset: 0x20BDE, size: 0x8, addend: 0x0, symName: __ZN9__gnu_cxx17__normal_iteratorIPKiNSt9__cxx19986vectorIiSaIiEEEEC1Ev, symObjAddr: 0x3BEC, symBinAddr: 0x1000043D4, symSize: 0x1C }
  - { offset: 0x20C2C, size: 0x8, addend: 0x0, symName: __ZSt13__copy_move_aILb1EN9__gnu_cxx17__normal_iteratorIPiNSt9__cxx19986vectorIiSaIiEEEEES7_ET1_T0_S9_S8_, symObjAddr: 0x3B8C, symBinAddr: 0x100004374, symSize: 0x60 }
  - { offset: 0x20C94, size: 0x8, addend: 0x0, symName: __ZSt12__miter_baseIN9__gnu_cxx17__normal_iteratorIPiNSt9__cxx19986vectorIiSaIiEEEEEET_S8_, symObjAddr: 0x3B78, symBinAddr: 0x100004360, symSize: 0x14 }
  - { offset: 0x20CC7, size: 0x8, addend: 0x0, symName: __ZN11__gnu_debug13__can_advanceIN9__gnu_cxx17__normal_iteratorIPiNSt9__cxx19986vectorIiSaIiEEEEElEEbT_RKSt4pairIT0_NS_19_Distance_precisionEEi, symObjAddr: 0x3B5C, symBinAddr: 0x100004344, symSize: 0x1C }
  - { offset: 0x20D11, size: 0x8, addend: 0x0, symName: __ZN11__gnu_debug16_Error_formatter11_M_iteratorIN9__gnu_cxx17__normal_iteratorIPiNSt9__cxx19986vectorIiSaIiEEEEEEERS0_RKT_PKc, symObjAddr: 0x3AC0, symBinAddr: 0x1000042A8, symSize: 0x9C }
  - { offset: 0x20D65, size: 0x8, addend: 0x0, symName: __ZN11__gnu_debug13__valid_rangeIN9__gnu_cxx17__normal_iteratorIPiNSt9__cxx19986vectorIiSaIiEEEEEEEbT_S9_RNS_16_Distance_traitsIS9_NSt12__is_integerIS9_E6__typeEE6__typeE, symObjAddr: 0x3A94, symBinAddr: 0x10000427C, symSize: 0x2C }
  - { offset: 0x20E11, size: 0x8, addend: 0x0, symName: __ZN11__gnu_debug16_Error_formatter10_ParameterC1IN9__gnu_cxx17__normal_iteratorIPiNSt9__cxx19986vectorIiSaIiEEEEENSt7__debug6vectorIiS8_EESt20forward_iterator_tagEERKNS_14_Safe_iteratorIT_T0_T1_EEPKcNS0_12_Is_iteratorE, symObjAddr: 0x392C, symBinAddr: 0x100004114, symSize: 0x168 }
  - { offset: 0x20EC3, size: 0x8, addend: 0x0, symName: __ZN11__gnu_debug16_Error_formatter10_ParameterC1IN9__gnu_cxx17__normal_iteratorIPKiNSt9__cxx19986vectorIiSaIiEEEEENSt7__debug6vectorIiS9_EESt20forward_iterator_tagEERKNS_14_Safe_iteratorIT_T0_T1_EEPKcNS0_12_Is_iteratorE, symObjAddr: 0x37C4, symBinAddr: 0x100003FAC, symSize: 0x168 }
  - { offset: 0x20F1B, size: 0x8, addend: 0x0, symName: __ZN11__gnu_debug18_BeforeBeginHelperINSt7__debug6vectorIiSaIiEEEE5_S_IsIN9__gnu_cxx17__normal_iteratorIPiNSt9__cxx19986vectorIiS3_EEEESt20forward_iterator_tagEEbRKNS_14_Safe_iteratorIT_S4_T0_EE, symObjAddr: 0x37B0, symBinAddr: 0x100003F98, symSize: 0x14 }
  - { offset: 0x20F4F, size: 0x8, addend: 0x0, symName: __ZN11__gnu_debug14__get_distanceIN9__gnu_cxx17__normal_iteratorIPiNSt9__cxx19986vectorIiSaIiEEEEEEENS_16_Distance_traitsIT_NSt12__is_integerISA_E6__typeEE6__typeESA_SA_St26random_access_iterator_tag, symObjAddr: 0x3770, symBinAddr: 0x100003F58, symSize: 0x40 }
  - { offset: 0x20FEE, size: 0x8, addend: 0x0, symName: __ZNSt4pairIlN11__gnu_debug19_Distance_precisionEEC1ImS1_Lb1EEEOS_IT_T0_E, symObjAddr: 0x3724, symBinAddr: 0x100003F0C, symSize: 0x4C }
  - { offset: 0x2102B, size: 0x8, addend: 0x0, symName: __ZSt9make_pairImN11__gnu_debug19_Distance_precisionEESt4pairINSt25__strip_reference_wrapperINSt5decayIT_E4typeEE6__typeENS3_INS4_IT0_E4typeEE6__typeEEOS5_OSA_, symObjAddr: 0x36D8, symBinAddr: 0x100003EC0, symSize: 0x4C }
  - { offset: 0x210C4, size: 0x8, addend: 0x0, symName: __ZNSt4pairIiN11__gnu_debug19_Distance_precisionEEC1IiS1_Lb1EEEOT_OT0_, symObjAddr: 0x3690, symBinAddr: 0x100003E78, symSize: 0x48 }
  - { offset: 0x21111, size: 0x8, addend: 0x0, symName: __ZSt7forwardIN11__gnu_debug19_Distance_precisionEEOT_RNSt16remove_referenceIS2_E4typeE, symObjAddr: 0x367C, symBinAddr: 0x100003E64, symSize: 0x14 }
  - { offset: 0x21147, size: 0x8, addend: 0x0, symName: __ZNSt15__new_allocatorIiE10deallocateEPim, symObjAddr: 0x364C, symBinAddr: 0x100003E34, symSize: 0x30 }
  - { offset: 0x2118D, size: 0x8, addend: 0x0, symName: __ZSt25__uninitialized_default_nIPimET_S1_T0_, symObjAddr: 0x3620, symBinAddr: 0x100003E08, symSize: 0x2C }
  - { offset: 0x211EF, size: 0x8, addend: 0x0, symName: __ZNSt9__cxx199812_Vector_baseIiSaIiEE11_M_allocateEm, symObjAddr: 0x35D0, symBinAddr: 0x100003DB8, symSize: 0x50 }
  - { offset: 0x21271, size: 0x8, addend: 0x0, symName: __ZNSt9__cxx199812_Vector_baseIiSaIiEE17_Vector_impl_dataC2Ev, symObjAddr: 0x35A4, symBinAddr: 0x100003D8C, symSize: 0x2C }
  - { offset: 0x212C8, size: 0x8, addend: 0x0, symName: __ZNKSt7__debug6vectorIiSaIiEE8capacityEv, symObjAddr: 0x3560, symBinAddr: 0x100003D48, symSize: 0x44 }
  - { offset: 0x2130C, size: 0x8, addend: 0x0, symName: __ZNK11__gnu_debug12_Safe_vectorINSt7__debug6vectorIiSaIiEEENSt9__cxx19986vectorIiS3_EEE6_M_seqEv, symObjAddr: 0x3548, symBinAddr: 0x100003D30, symSize: 0x18 }
  - { offset: 0x21336, size: 0x8, addend: 0x0, symName: __ZNSt9__cxx19986vectorIiSaIiEE14_M_emplace_auxEN9__gnu_cxx17__normal_iteratorIPKiS2_EEOi, symObjAddr: 0x3514, symBinAddr: 0x100003CFC, symSize: 0x34 }
  - { offset: 0x213C6, size: 0x8, addend: 0x0, symName: __ZN11__gnu_debug14_Safe_iteratorIN9__gnu_cxx17__normal_iteratorIPKiNSt9__cxx19986vectorIiSaIiEEEEENSt7__debug6vectorIiS7_EESt20forward_iterator_tagEC2ERKSE_, symObjAddr: 0x33FC, symBinAddr: 0x100003BE4, symSize: 0x118 }
  - { offset: 0x21423, size: 0x8, addend: 0x0, symName: __ZNK11__gnu_debug15_After_nth_fromIN9__gnu_cxx17__normal_iteratorIPKiNSt9__cxx19986vectorIiSaIiEEEEEEclERKS9_, symObjAddr: 0x33BC, symBinAddr: 0x100003BA4, symSize: 0x40 }
  - { offset: 0x2145D, size: 0x8, addend: 0x0, symName: __ZN11__gnu_debug14_Safe_iteratorIN9__gnu_cxx17__normal_iteratorIPiNSt9__cxx19986vectorIiSaIiEEEEENSt7__debug6vectorIiS6_EESt20forward_iterator_tagE4baseEv, symObjAddr: 0x33A8, symBinAddr: 0x100003B90, symSize: 0x14 }
  - { offset: 0x21487, size: 0x8, addend: 0x0, symName: __ZNK11__gnu_debug14_Safe_iteratorIN9__gnu_cxx17__normal_iteratorIPKiNSt9__cxx19986vectorIiSaIiEEEEENSt7__debug6vectorIiS7_EESt20forward_iterator_tagE11_M_is_beginEv, symObjAddr: 0x335C, symBinAddr: 0x100003B44, symSize: 0x4C }
  - { offset: 0x214B1, size: 0x8, addend: 0x0, symName: __ZNK11__gnu_debug14_Safe_iteratorIN9__gnu_cxx17__normal_iteratorIPKiNSt9__cxx19986vectorIiSaIiEEEEENSt7__debug6vectorIiS7_EESt20forward_iterator_tagE20_M_value_initializedEv, symObjAddr: 0x32F4, symBinAddr: 0x100003ADC, symSize: 0x68 }
  - { offset: 0x214D7, size: 0x8, addend: 0x0, symName: __ZSt11__addressofIKN11__gnu_debug14_Safe_iteratorIN9__gnu_cxx17__normal_iteratorIPKiNSt9__cxx19986vectorIiSaIiEEEEENSt7__debug6vectorIiS8_EESt26random_access_iterator_tagEEEPT_RSH_, symObjAddr: 0x32E0, symBinAddr: 0x100003AC8, symSize: 0x14 }
  - { offset: 0x21509, size: 0x8, addend: 0x0, symName: __ZN11__gnu_debug18_BeforeBeginHelperINSt7__debug6vectorIiSaIiEEEE5_S_IsIN9__gnu_cxx17__normal_iteratorIPKiNSt9__cxx19986vectorIiS3_EEEESt20forward_iterator_tagEEbRKNS_14_Safe_iteratorIT_S4_T0_EE, symObjAddr: 0x32CC, symBinAddr: 0x100003AB4, symSize: 0x14 }
  - { offset: 0x2153D, size: 0x8, addend: 0x0, symName: __ZN9__gnu_cxxeqIPKiNSt9__cxx19986vectorIiSaIiEEEEEbRKNS_17__normal_iteratorIT_T0_EESC_, symObjAddr: 0x3288, symBinAddr: 0x100003A70, symSize: 0x44 }
  - { offset: 0x2158E, size: 0x8, addend: 0x0, symName: __ZNKSt9__cxx19986vectorIiSaIiEE3endEv, symObjAddr: 0x3260, symBinAddr: 0x100003A48, symSize: 0x28 }
  - { offset: 0x215B8, size: 0x8, addend: 0x0, symName: __ZNKSt7__debug6vectorIiSaIiEE7_M_baseEv, symObjAddr: 0x3248, symBinAddr: 0x100003A30, symSize: 0x18 }
  - { offset: 0x215E2, size: 0x8, addend: 0x0, symName: __ZNK11__gnu_debug14_Safe_iteratorIN9__gnu_cxx17__normal_iteratorIPKiNSt9__cxx19986vectorIiSaIiEEEEENSt7__debug6vectorIiS7_EESt20forward_iterator_tagE15_M_get_sequenceEv, symObjAddr: 0x3230, symBinAddr: 0x100003A18, symSize: 0x18 }
  - { offset: 0x2160C, size: 0x8, addend: 0x0, symName: __ZNK11__gnu_debug14_Safe_iteratorIN9__gnu_cxx17__normal_iteratorIPKiNSt9__cxx19986vectorIiSaIiEEEEENSt7__debug6vectorIiS7_EESt20forward_iterator_tagE4baseEv, symObjAddr: 0x321C, symBinAddr: 0x100003A04, symSize: 0x14 }
  - { offset: 0x2165F, size: 0x8, addend: 0x0, symName: __ZSt4moveIN9__gnu_cxx17__normal_iteratorIPiNSt9__cxx19986vectorIiSaIiEEEEES7_ET0_T_S9_S8_, symObjAddr: 0x30B8, symBinAddr: 0x1000038A0, symSize: 0x164 }
  - { offset: 0x216FC, size: 0x8, addend: 0x0, symName: __ZN9__gnu_cxxneIPiNSt9__cxx19986vectorIiSaIiEEEEEbRKNS_17__normal_iteratorIT_T0_EESB_, symObjAddr: 0x3074, symBinAddr: 0x10000385C, symSize: 0x44 }
  - { offset: 0x21775, size: 0x8, addend: 0x0, symName: __ZN9__gnu_cxx17__normal_iteratorIPKiNSt9__cxx19986vectorIiSaIiEEEEC1ERKS2_, symObjAddr: 0x304C, symBinAddr: 0x100003834, symSize: 0x28 }
  - { offset: 0x217A4, size: 0x8, addend: 0x0, symName: __ZN11__gnu_debug14_Safe_iteratorIN9__gnu_cxx17__normal_iteratorIPKiNSt9__cxx19986vectorIiSaIiEEEEENSt7__debug6vectorIiS7_EESt20forward_iterator_tagE9_M_attachEPNS_19_Safe_sequence_baseE, symObjAddr: 0x300C, symBinAddr: 0x1000037F4, symSize: 0x40 }
  - { offset: 0x217DF, size: 0x8, addend: 0x0, symName: __ZN11__gnu_debug16_Error_formatter11_M_iteratorINS_14_Safe_iteratorIN9__gnu_cxx17__normal_iteratorIPiNSt9__cxx19986vectorIiSaIiEEEEENSt7__debug6vectorIiS8_EESt20forward_iterator_tagEEEERS0_RKT_PKc, symObjAddr: 0x2F70, symBinAddr: 0x100003758, symSize: 0x9C }
  - { offset: 0x21837, size: 0x8, addend: 0x0, symName: __ZN11__gnu_debug16_Error_formatter11_M_iteratorINS_14_Safe_iteratorIN9__gnu_cxx17__normal_iteratorIPKiNSt9__cxx19986vectorIiSaIiEEEEENSt7__debug6vectorIiS9_EESt20forward_iterator_tagEEEERS0_RKT_PKc, symObjAddr: 0x2ED4, symBinAddr: 0x1000036BC, symSize: 0x9C }
  - { offset: 0x2188F, size: 0x8, addend: 0x0, symName: __ZNK11__gnu_debug14_Safe_iteratorIN9__gnu_cxx17__normal_iteratorIPiNSt9__cxx19986vectorIiSaIiEEEEENSt7__debug6vectorIiS6_EESt20forward_iterator_tagE18_M_is_before_beginEv, symObjAddr: 0x2EB8, symBinAddr: 0x1000036A0, symSize: 0x1C }
  - { offset: 0x218B5, size: 0x8, addend: 0x0, symName: __ZSt11__addressofIKN11__gnu_debug14_Safe_iteratorIN9__gnu_cxx17__normal_iteratorIPiNSt9__cxx19986vectorIiSaIiEEEEENSt7__debug6vectorIiS7_EESt26random_access_iterator_tagEEEPT_RSG_, symObjAddr: 0x2EA4, symBinAddr: 0x10000368C, symSize: 0x14 }
  - { offset: 0x218EB, size: 0x8, addend: 0x0, symName: __ZNSt9__cxx19986vectorIiSaIiEE3endEv, symObjAddr: 0x2E7C, symBinAddr: 0x100003664, symSize: 0x28 }
  - { offset: 0x21911, size: 0x8, addend: 0x0, symName: __ZN11__gnu_debug14__get_distanceIN9__gnu_cxx17__normal_iteratorIPiNSt9__cxx19986vectorIiSaIiEEEEEEENS_16_Distance_traitsIT_NSt12__is_integerISA_E6__typeEE6__typeESA_SA_, symObjAddr: 0x2E54, symBinAddr: 0x10000363C, symSize: 0x28 }
  - { offset: 0x21977, size: 0x8, addend: 0x0, symName: __ZNSt7__debug6vectorIiSaIiEE7_M_baseEv, symObjAddr: 0x2E3C, symBinAddr: 0x100003624, symSize: 0x18 }
  - { offset: 0x2199D, size: 0x8, addend: 0x0, symName: __ZN11__gnu_debug16_Sequence_traitsINSt7__debug6vectorIiSaIiEEEE7_S_sizeERKS4_, symObjAddr: 0x2DF0, symBinAddr: 0x1000035D8, symSize: 0x4C }
  - { offset: 0x219CA, size: 0x8, addend: 0x0, symName: __ZNK11__gnu_debug14_Safe_iteratorIN9__gnu_cxx17__normal_iteratorIPiNSt9__cxx19986vectorIiSaIiEEEEENSt7__debug6vectorIiS6_EESt20forward_iterator_tagE15_M_get_sequenceEv, symObjAddr: 0x2DD8, symBinAddr: 0x1000035C0, symSize: 0x18 }
  - { offset: 0x219F4, size: 0x8, addend: 0x0, symName: __ZNK11__gnu_debug14_Safe_iteratorIN9__gnu_cxx17__normal_iteratorIPiNSt9__cxx19986vectorIiSaIiEEEEENSt7__debug6vectorIiS6_EESt20forward_iterator_tagE9_M_is_endEv, symObjAddr: 0x2D8C, symBinAddr: 0x100003574, symSize: 0x4C }
  - { offset: 0x21A58, size: 0x8, addend: 0x0, symName: __ZNSt4pairIlN11__gnu_debug19_Distance_precisionEEC1IiS1_Lb1EEEOS_IT_T0_E, symObjAddr: 0x2D40, symBinAddr: 0x100003528, symSize: 0x4C }
  - { offset: 0x21A95, size: 0x8, addend: 0x0, symName: __ZSt9make_pairIiN11__gnu_debug19_Distance_precisionEESt4pairINSt25__strip_reference_wrapperINSt5decayIT_E4typeEE6__typeENS3_INS4_IT0_E4typeEE6__typeEEOS5_OSA_, symObjAddr: 0x2CF4, symBinAddr: 0x1000034DC, symSize: 0x4C }
  - { offset: 0x21AE6, size: 0x8, addend: 0x0, symName: __ZNK11__gnu_debug14_Safe_iteratorIN9__gnu_cxx17__normal_iteratorIPiNSt9__cxx19986vectorIiSaIiEEEEENSt7__debug6vectorIiS6_EESt20forward_iterator_tagE11_M_is_beginEv, symObjAddr: 0x2CA8, symBinAddr: 0x100003490, symSize: 0x4C }
  - { offset: 0x21B0C, size: 0x8, addend: 0x0, symName: __ZN9__gnu_cxxeqIPiNSt9__cxx19986vectorIiSaIiEEEEEbRKNS_17__normal_iteratorIT_T0_EESB_, symObjAddr: 0x2C64, symBinAddr: 0x10000344C, symSize: 0x44 }
  - { offset: 0x21B77, size: 0x8, addend: 0x0, symName: __ZN9__gnu_cxx17__normal_iteratorIPiNSt9__cxx19986vectorIiSaIiEEEEC1Ev, symObjAddr: 0x2C48, symBinAddr: 0x100003430, symSize: 0x1C }
  - { offset: 0x21BD1, size: 0x8, addend: 0x0, symName: __ZN11__gnu_debug14_Safe_iteratorIN9__gnu_cxx17__normal_iteratorIPiNSt9__cxx19986vectorIiSaIiEEEEENSt7__debug6vectorIiS6_EESt20forward_iterator_tagEC2ES8_PKNS_19_Safe_sequence_baseE, symObjAddr: 0x2BF8, symBinAddr: 0x1000033E0, symSize: 0x50 }
  - { offset: 0x21C05, size: 0x8, addend: 0x0, symName: __ZSt11__addressofIKNSt7__debug6vectorIiSaIiEEEEPT_RS5_, symObjAddr: 0x2BE4, symBinAddr: 0x1000033CC, symSize: 0x14 }
  - { offset: 0x21C37, size: 0x8, addend: 0x0, symName: __ZNSt12_Destroy_auxILb1EE9__destroyIPiEEvT_S3_, symObjAddr: 0x2BCC, symBinAddr: 0x1000033B4, symSize: 0x18 }
  - { offset: 0x21C9D, size: 0x8, addend: 0x0, symName: __ZSt27__uninitialized_default_n_aIPimiET_S1_T0_RSaIT1_E, symObjAddr: 0x2BA4, symBinAddr: 0x10000338C, symSize: 0x28 }
  - { offset: 0x21D00, size: 0x8, addend: 0x0, symName: __ZNSt9__cxx199812_Vector_baseIiSaIiEE17_M_create_storageEm, symObjAddr: 0x2B44, symBinAddr: 0x10000332C, symSize: 0x60 }
  - { offset: 0x21D62, size: 0x8, addend: 0x0, symName: __ZNSt9__cxx199812_Vector_baseIiSaIiEE12_Vector_implC1ERKS1_, symObjAddr: 0x2AF8, symBinAddr: 0x1000032E0, symSize: 0x4C }
  - { offset: 0x21E08, size: 0x8, addend: 0x0, symName: __ZNSt9__cxx19986vectorIiSaIiEE11_S_max_sizeERKS1_, symObjAddr: 0x2AA4, symBinAddr: 0x10000328C, symSize: 0x54 }
  - { offset: 0x21EC3, size: 0x8, addend: 0x0, symName: __ZN11__gnu_debug12_Safe_vectorINSt7__debug6vectorIiSaIiEEENSt9__cxx19986vectorIiS3_EEE29_M_update_guaranteed_capacityEv, symObjAddr: 0x2A3C, symBinAddr: 0x100003224, symSize: 0x68 }
  - { offset: 0x21EED, size: 0x8, addend: 0x0, symName: __ZNK11__gnu_debug12_Safe_vectorINSt7__debug6vectorIiSaIiEEENSt9__cxx19986vectorIiS3_EEE24_M_requires_reallocationEm, symObjAddr: 0x2A04, symBinAddr: 0x1000031EC, symSize: 0x38 }
  - { offset: 0x21F27, size: 0x8, addend: 0x0, symName: __ZNSt9__cxx19986vectorIiSaIiEE7emplaceIJiEEEN9__gnu_cxx17__normal_iteratorIPiS2_EENS5_IPKiS2_EEDpOT_, symObjAddr: 0x29D0, symBinAddr: 0x1000031B8, symSize: 0x34 }
  - { offset: 0x21FA5, size: 0x8, addend: 0x0, symName: __ZN11__gnu_debug14_Safe_iteratorIN9__gnu_cxx17__normal_iteratorIPKiNSt9__cxx19986vectorIiSaIiEEEEENSt7__debug6vectorIiS7_EESt26bidirectional_iterator_tagEC2ERKSE_, symObjAddr: 0x29A8, symBinAddr: 0x100003190, symSize: 0x28 }
  - { offset: 0x21FDF, size: 0x8, addend: 0x0, symName: __ZN11__gnu_debug14_Safe_sequenceINSt7__debug6vectorIiSaIiEEEE16_M_invalidate_ifINS_15_After_nth_fromIN9__gnu_cxx17__normal_iteratorIPKiNSt9__cxx19986vectorIiS3_EEEEEEEEvT_, symObjAddr: 0x2810, symBinAddr: 0x100002FF8, symSize: 0x198 }
  - { offset: 0x22117, size: 0x8, addend: 0x0, symName: __ZN11__gnu_debug15_After_nth_fromIN9__gnu_cxx17__normal_iteratorIPKiNSt9__cxx19986vectorIiSaIiEEEEEEC1ERKlRKS9_, symObjAddr: 0x27D4, symBinAddr: 0x100002FBC, symSize: 0x3C }
  - { offset: 0x22180, size: 0x8, addend: 0x0, symName: __ZN9__gnu_cxx17__normal_iteratorIPKiNSt9__cxx19986vectorIiSaIiEEEEC1IPivEERKNS0_IT_S6_EE, symObjAddr: 0x27A4, symBinAddr: 0x100002F8C, symSize: 0x30 }
  - { offset: 0x221BC, size: 0x8, addend: 0x0, symName: __ZN9__gnu_cxx17__normal_iteratorIPKiNSt9__cxx19986vectorIiSaIiEEEEC2IPivEERKNS0_IT_S6_EE, symObjAddr: 0x2774, symBinAddr: 0x100002F5C, symSize: 0x30 }
  - { offset: 0x221F4, size: 0x8, addend: 0x0, symName: __ZNK9__gnu_cxx17__normal_iteratorIPiNSt9__cxx19986vectorIiSaIiEEEE4baseEv, symObjAddr: 0x2760, symBinAddr: 0x100002F48, symSize: 0x14 }
  - { offset: 0x2221E, size: 0x8, addend: 0x0, symName: __ZNK9__gnu_cxx17__normal_iteratorIPKiNSt9__cxx19986vectorIiSaIiEEEE4baseEv, symObjAddr: 0x274C, symBinAddr: 0x100002F34, symSize: 0x14 }
  - { offset: 0x2229E, size: 0x8, addend: 0x0, symName: __ZN11__gnu_debug16_Error_formatter10_ParameterC1IN9__gnu_cxx17__normal_iteratorIPKiNSt9__cxx19986vectorIiSaIiEEEEENSt7__debug6vectorIiS9_EESt26random_access_iterator_tagEERKNS_14_Safe_iteratorIT_T0_T1_EEPKcNS0_12_Is_iteratorE, symObjAddr: 0x25E4, symBinAddr: 0x100002DCC, symSize: 0x168 }
  - { offset: 0x222F6, size: 0x8, addend: 0x0, symName: __ZN11__gnu_debug14_Safe_iteratorIN9__gnu_cxx17__normal_iteratorIPKiNSt9__cxx19986vectorIiSaIiEEEEENSt7__debug6vectorIiS7_EESt20forward_iterator_tagE11_S_constantEv, symObjAddr: 0x25DC, symBinAddr: 0x100002DC4, symSize: 0x8 }
  - { offset: 0x22312, size: 0x8, addend: 0x0, symName: __ZNK11__gnu_debug14_Safe_iteratorIN9__gnu_cxx17__normal_iteratorIPKiNSt9__cxx19986vectorIiSaIiEEEEENSt7__debug6vectorIiS7_EESt20forward_iterator_tagE18_M_is_before_beginEv, symObjAddr: 0x25C0, symBinAddr: 0x100002DA8, symSize: 0x1C }
  - { offset: 0x2233C, size: 0x8, addend: 0x0, symName: __ZNK11__gnu_debug14_Safe_iteratorIN9__gnu_cxx17__normal_iteratorIPKiNSt9__cxx19986vectorIiSaIiEEEEENSt7__debug6vectorIiS7_EESt20forward_iterator_tagE9_M_is_endEv, symObjAddr: 0x2574, symBinAddr: 0x100002D5C, symSize: 0x4C }
  - { offset: 0x22366, size: 0x8, addend: 0x0, symName: __ZNSt9__cxx19986vectorIiSaIiEE8_M_eraseEN9__gnu_cxx17__normal_iteratorIPiS2_EE, symObjAddr: 0x24B4, symBinAddr: 0x100002C9C, symSize: 0xC0 }
  - { offset: 0x223F5, size: 0x8, addend: 0x0, symName: __ZN9__gnu_cxxmiIPKiNSt9__cxx19986vectorIiSaIiEEEEENS_17__normal_iteratorIT_T0_E15difference_typeERKSA_SD_, symObjAddr: 0x2474, symBinAddr: 0x100002C5C, symSize: 0x40 }
  - { offset: 0x22446, size: 0x8, addend: 0x0, symName: __ZNKSt9__cxx19986vectorIiSaIiEE6cbeginEv, symObjAddr: 0x2450, symBinAddr: 0x100002C38, symSize: 0x24 }
  - { offset: 0x224BD, size: 0x8, addend: 0x0, symName: __ZN11__gnu_debug14_Safe_iteratorIN9__gnu_cxx17__normal_iteratorIPKiNSt9__cxx19986vectorIiSaIiEEEEENSt7__debug6vectorIiS7_EESt20forward_iterator_tagEC2INS2_IPiS8_EEEERKNS0_IT_SC_NS1_11__enable_ifIXaaLNSt10__are_sameIS9_S9_EUt_E1EsrSK_ISI_SH_E7__valueESD_E6__typeEEE, symObjAddr: 0x2330, symBinAddr: 0x100002B18, symSize: 0x120 }
  - { offset: 0x22579, size: 0x8, addend: 0x0, symName: __ZN11__gnu_debug16_Error_formatter10_ParameterC1IN9__gnu_cxx17__normal_iteratorIPiNSt9__cxx19986vectorIiSaIiEEEEENSt7__debug6vectorIiS8_EESt26random_access_iterator_tagEERKNS_14_Safe_iteratorIT_T0_T1_EEPKcNS0_12_Is_iteratorE, symObjAddr: 0x21C8, symBinAddr: 0x1000029B0, symSize: 0x168 }
  - { offset: 0x225D1, size: 0x8, addend: 0x0, symName: __ZN11__gnu_debug14_Safe_iteratorIN9__gnu_cxx17__normal_iteratorIPiNSt9__cxx19986vectorIiSaIiEEEEENSt7__debug6vectorIiS6_EESt20forward_iterator_tagE11_S_constantEv, symObjAddr: 0x21C0, symBinAddr: 0x1000029A8, symSize: 0x8 }
  - { offset: 0x225ED, size: 0x8, addend: 0x0, symName: __ZNK11__gnu_debug14_Safe_iteratorIN9__gnu_cxx17__normal_iteratorIPiNSt9__cxx19986vectorIiSaIiEEEEENSt7__debug6vectorIiS6_EESt20forward_iterator_tagE22_M_get_distance_to_endEv, symObjAddr: 0x20CC, symBinAddr: 0x1000028B4, symSize: 0xF4 }
  - { offset: 0x22629, size: 0x8, addend: 0x0, symName: __ZNK11__gnu_debug14_Safe_iteratorIN9__gnu_cxx17__normal_iteratorIPiNSt9__cxx19986vectorIiSaIiEEEEENSt7__debug6vectorIiS6_EESt20forward_iterator_tagE26_M_get_distance_from_beginEv, symObjAddr: 0x1FD8, symBinAddr: 0x1000027C0, symSize: 0xF4 }
  - { offset: 0x22665, size: 0x8, addend: 0x0, symName: __ZNK11__gnu_debug14_Safe_iteratorIN9__gnu_cxx17__normal_iteratorIPiNSt9__cxx19986vectorIiSaIiEEEEENSt7__debug6vectorIiS6_EESt20forward_iterator_tagE20_M_value_initializedEv, symObjAddr: 0x1F70, symBinAddr: 0x100002758, symSize: 0x68 }
  - { offset: 0x226C5, size: 0x8, addend: 0x0, symName: __ZN11__gnu_debug14_Safe_iteratorIN9__gnu_cxx17__normal_iteratorIPiNSt9__cxx19986vectorIiSaIiEEEEENSt7__debug6vectorIiS6_EESt26bidirectional_iterator_tagEC2ES8_PKNS_19_Safe_sequence_baseE, symObjAddr: 0x1F40, symBinAddr: 0x100002728, symSize: 0x30 }
  - { offset: 0x22725, size: 0x8, addend: 0x0, symName: __ZN9__gnu_cxx17__normal_iteratorIPiNSt9__cxx19986vectorIiSaIiEEEEC1ERKS1_, symObjAddr: 0x1F18, symBinAddr: 0x100002700, symSize: 0x28 }
  - { offset: 0x22798, size: 0x8, addend: 0x0, symName: __ZN11__gnu_debug16_Error_formatter10_ParameterC1INSt7__debug6vectorIiSaIiEEEEERKT_PKcNS0_12_Is_sequenceE, symObjAddr: 0x1EA4, symBinAddr: 0x10000268C, symSize: 0x74 }
  - { offset: 0x227DE, size: 0x8, addend: 0x0, symName: __ZSt8_DestroyIPiEvT_S1_, symObjAddr: 0x1E7C, symBinAddr: 0x100002664, symSize: 0x28 }
  - { offset: 0x22824, size: 0x8, addend: 0x0, symName: __ZNSt9__cxx199812_Vector_baseIiSaIiEE13_M_deallocateEPim, symObjAddr: 0x1E24, symBinAddr: 0x10000260C, symSize: 0x58 }
  - { offset: 0x228A6, size: 0x8, addend: 0x0, symName: __ZNSt9__cxx19986vectorIiSaIiEE21_M_default_initializeEm, symObjAddr: 0x1DD4, symBinAddr: 0x1000025BC, symSize: 0x50 }
  - { offset: 0x22917, size: 0x8, addend: 0x0, symName: __ZNSt9__cxx199812_Vector_baseIiSaIiEEC2EmRKS1_, symObjAddr: 0x1D80, symBinAddr: 0x100002568, symSize: 0x54 }
  - { offset: 0x2294B, size: 0x8, addend: 0x0, symName: __ZNSt9__cxx19986vectorIiSaIiEE17_S_check_init_lenEmRKS1_, symObjAddr: 0x1CFC, symBinAddr: 0x1000024E4, symSize: 0x84 }
  - { offset: 0x22A01, size: 0x8, addend: 0x0, symName: __ZNSt7__debug6vectorIiSaIiEE7emplaceIJiEEEN11__gnu_debug14_Safe_iteratorIN9__gnu_cxx17__normal_iteratorIPiNSt9__cxx19986vectorIiS1_EEEES2_St26random_access_iterator_tagEENS5_INS7_IPKiSB_EES2_SD_EEDpOT_, symObjAddr: 0x1AB0, symBinAddr: 0x100002298, symSize: 0x24C }
  - { offset: 0x22AEA, size: 0x8, addend: 0x0, symName: __ZN11__gnu_debug14_Safe_iteratorIN9__gnu_cxx17__normal_iteratorIPKiNSt9__cxx19986vectorIiSaIiEEEEENSt7__debug6vectorIiS7_EESt26random_access_iterator_tagEC1ERKSE_, symObjAddr: 0x1A88, symBinAddr: 0x100002270, symSize: 0x28 }
  - { offset: 0x22B1C, size: 0x8, addend: 0x0, symName: __ZSt4moveIRiEONSt16remove_referenceIT_E4typeEOS2_, symObjAddr: 0x1A74, symBinAddr: 0x10000225C, symSize: 0x14 }
  - { offset: 0x22B52, size: 0x8, addend: 0x0, symName: __ZNSt7__debug6vectorIiSaIiEE23_M_invalidate_after_nthEl, symObjAddr: 0x1A14, symBinAddr: 0x1000021FC, symSize: 0x60 }
  - { offset: 0x22B89, size: 0x8, addend: 0x0, symName: __ZN9__gnu_cxxmiIPKiPiNSt9__cxx19986vectorIiSaIiEEEEEDTmicldtfp_4baseEcldtfp0_4baseEERKNS_17__normal_iteratorIT_T1_EERKNS9_IT0_SB_EE, symObjAddr: 0x19D4, symBinAddr: 0x1000021BC, symSize: 0x40 }
  - { offset: 0x22BE3, size: 0x8, addend: 0x0, symName: __ZN11__gnu_debug16_Error_formatter11_M_iteratorINS_14_Safe_iteratorIN9__gnu_cxx17__normal_iteratorIPKiNSt9__cxx19986vectorIiSaIiEEEEENSt7__debug6vectorIiS9_EESt26random_access_iterator_tagEEEERS0_RKT_PKc, symObjAddr: 0x1938, symBinAddr: 0x100002120, symSize: 0x9C }
  - { offset: 0x22C3B, size: 0x8, addend: 0x0, symName: __ZNK11__gnu_debug14_Safe_iteratorIN9__gnu_cxx17__normal_iteratorIPKiNSt9__cxx19986vectorIiSaIiEEEEENSt7__debug6vectorIiS7_EESt20forward_iterator_tagE18_M_dereferenceableEv, symObjAddr: 0x18C0, symBinAddr: 0x1000020A8, symSize: 0x78 }
  - { offset: 0x22C65, size: 0x8, addend: 0x0, symName: __ZNSt9__cxx19986vectorIiSaIiEE5eraseEN9__gnu_cxx17__normal_iteratorIPKiS2_EE, symObjAddr: 0x186C, symBinAddr: 0x100002054, symSize: 0x54 }
  - { offset: 0x22CA0, size: 0x8, addend: 0x0, symName: __ZN11__gnu_debug14_Safe_iteratorIN9__gnu_cxx17__normal_iteratorIPKiNSt9__cxx19986vectorIiSaIiEEEEENSt7__debug6vectorIiS7_EESt20forward_iterator_tagE4baseEv, symObjAddr: 0x1858, symBinAddr: 0x100002040, symSize: 0x14 }
  - { offset: 0x22CFB, size: 0x8, addend: 0x0, symName: __ZN11__gnu_debug14_Safe_iteratorIN9__gnu_cxx17__normal_iteratorIPKiNSt9__cxx19986vectorIiSaIiEEEEENSt7__debug6vectorIiS7_EESt26bidirectional_iterator_tagEC2INS2_IPiS8_EEEERKNS0_IT_SC_NS1_11__enable_ifIXaaLNSt10__are_sameIS9_S9_EUt_E1EsrSK_ISI_SH_E7__valueESD_E6__typeEEE, symObjAddr: 0x1830, symBinAddr: 0x100002018, symSize: 0x28 }
  - { offset: 0x22D33, size: 0x8, addend: 0x0, symName: __ZNK9__gnu_cxx17__normal_iteratorIPiNSt9__cxx19986vectorIiSaIiEEEEplEl, symObjAddr: 0x17F0, symBinAddr: 0x100001FD8, symSize: 0x40 }
  - { offset: 0x22D6E, size: 0x8, addend: 0x0, symName: __ZNK11__gnu_debug14_Safe_iteratorIN9__gnu_cxx17__normal_iteratorIPiNSt9__cxx19986vectorIiSaIiEEEEENSt7__debug6vectorIiS6_EESt20forward_iterator_tagE4baseEv, symObjAddr: 0x17DC, symBinAddr: 0x100001FC4, symSize: 0x14 }
  - { offset: 0x22D98, size: 0x8, addend: 0x0, symName: __ZN11__gnu_debug16_Error_formatter11_M_iteratorINS_14_Safe_iteratorIN9__gnu_cxx17__normal_iteratorIPiNSt9__cxx19986vectorIiSaIiEEEEENSt7__debug6vectorIiS8_EESt26random_access_iterator_tagEEEERS0_RKT_PKc, symObjAddr: 0x1740, symBinAddr: 0x100001F28, symSize: 0x9C }
  - { offset: 0x22DF0, size: 0x8, addend: 0x0, symName: __ZNK11__gnu_debug14_Safe_iteratorIN9__gnu_cxx17__normal_iteratorIPiNSt9__cxx19986vectorIiSaIiEEEEENSt7__debug6vectorIiS6_EESt20forward_iterator_tagE14_M_can_advanceElb, symObjAddr: 0x1614, symBinAddr: 0x100001DFC, symSize: 0x12C }
  - { offset: 0x22E80, size: 0x8, addend: 0x0, symName: __ZN11__gnu_debug14_Safe_iteratorIN9__gnu_cxx17__normal_iteratorIPiNSt9__cxx19986vectorIiSaIiEEEEENSt7__debug6vectorIiS6_EESt26random_access_iterator_tagEC1ES8_PKNS_19_Safe_sequence_baseE, symObjAddr: 0x15E4, symBinAddr: 0x100001DCC, symSize: 0x30 }
  - { offset: 0x22EB8, size: 0x8, addend: 0x0, symName: __ZNSt9__cxx19986vectorIiSaIiEE5beginEv, symObjAddr: 0x15C0, symBinAddr: 0x100001DA8, symSize: 0x24 }
  - { offset: 0x22EE2, size: 0x8, addend: 0x0, symName: __ZNSt9__cxx19986vectorIiSaIiEEixEm, symObjAddr: 0x153C, symBinAddr: 0x100001D24, symSize: 0x84 }
  - { offset: 0x22F38, size: 0x8, addend: 0x0, symName: __ZN11__gnu_debug16_Error_formatter11_M_sequenceINSt7__debug6vectorIiSaIiEEEEERS0_RKT_PKc, symObjAddr: 0x14A0, symBinAddr: 0x100001C88, symSize: 0x9C }
  - { offset: 0x22F90, size: 0x8, addend: 0x0, symName: __ZNKSt9__cxx19986vectorIiSaIiEE4sizeEv, symObjAddr: 0x1478, symBinAddr: 0x100001C60, symSize: 0x28 }
  - { offset: 0x22FF5, size: 0x8, addend: 0x0, symName: __ZNSt9__cxx199812_Vector_baseIiSaIiEE19_M_get_Tp_allocatorEv, symObjAddr: 0x1464, symBinAddr: 0x100001C4C, symSize: 0x14 }
  - { offset: 0x23043, size: 0x8, addend: 0x0, symName: __ZNSt9__cxx199812_Vector_baseIiSaIiEED2Ev, symObjAddr: 0x1414, symBinAddr: 0x100001BFC, symSize: 0x50 }
  - { offset: 0x23090, size: 0x8, addend: 0x0, symName: __ZNSt9__cxx199812_Vector_baseIiSaIiEE12_Vector_implD1Ev, symObjAddr: 0x13E8, symBinAddr: 0x100001BD0, symSize: 0x2C }
  - { offset: 0x23100, size: 0x8, addend: 0x0, symName: __ZN11__gnu_debug12_Safe_vectorINSt7__debug6vectorIiSaIiEEENSt9__cxx19986vectorIiS3_EEEC2Em, symObjAddr: 0x13C4, symBinAddr: 0x100001BAC, symSize: 0x24 }
  - { offset: 0x23165, size: 0x8, addend: 0x0, symName: __ZNSt9__cxx19986vectorIiSaIiEEC2EmRKS1_, symObjAddr: 0x135C, symBinAddr: 0x100001B44, symSize: 0x68 }
  - { offset: 0x231C1, size: 0x8, addend: 0x0, symName: __ZNSt15__new_allocatorIiED2Ev, symObjAddr: 0x1348, symBinAddr: 0x100001B30, symSize: 0x14 }
  - { offset: 0x23200, size: 0x8, addend: 0x0, symName: __ZSt7forwardImEOT_RNSt16remove_referenceIS0_E4typeE, symObjAddr: 0x1334, symBinAddr: 0x100001B1C, symSize: 0x14 }
  - { offset: 0x23236, size: 0x8, addend: 0x0, symName: __ZNSt7__debug6vectorIiSaIiEE6insertIiEEN9__gnu_cxx11__enable_ifIXntsrSt10__are_sameIT_bE7__valueEN11__gnu_debug14_Safe_iteratorINS4_17__normal_iteratorIPiNSt9__cxx19986vectorIiS1_EEEES2_St26random_access_iterator_tagEEE6__typeENSA_INSB_IPKiSF_EES2_SH_EEOi, symObjAddr: 0x12B4, symBinAddr: 0x100001A9C, symSize: 0x80 }
  - { offset: 0x2328D, size: 0x8, addend: 0x0, symName: __ZNSt7__debug6vectorIiSaIiEE5eraseEN11__gnu_debug14_Safe_iteratorIN9__gnu_cxx17__normal_iteratorIPKiNSt9__cxx19986vectorIiS1_EEEES2_St26random_access_iterator_tagEE, symObjAddr: 0x10D0, symBinAddr: 0x1000018B8, symSize: 0x1E4 }
  - { offset: 0x23353, size: 0x8, addend: 0x0, symName: __ZN11__gnu_debug14_Safe_iteratorIN9__gnu_cxx17__normal_iteratorIPKiNSt9__cxx19986vectorIiSaIiEEEEENSt7__debug6vectorIiS7_EESt26random_access_iterator_tagEC1INS2_IPiS8_EEEERKNS0_IT_SC_NS1_11__enable_ifIXaaLNSt10__are_sameIS9_S9_EUt_E1EsrSK_ISI_SH_E7__valueESD_E6__typeEEE, symObjAddr: 0x10A8, symBinAddr: 0x100001890, symSize: 0x28 }
  - { offset: 0x2338E, size: 0x8, addend: 0x0, symName: __ZN11__gnu_debugplERKNS_14_Safe_iteratorIN9__gnu_cxx17__normal_iteratorIPiNSt9__cxx19986vectorIiSaIiEEEEENSt7__debug6vectorIiS6_EESt26random_access_iterator_tagEEl, symObjAddr: 0xFD0, symBinAddr: 0x1000017B8, symSize: 0xD8 }
  - { offset: 0x23404, size: 0x8, addend: 0x0, symName: __ZNSt7__debug6vectorIiSaIiEE5beginEv, symObjAddr: 0xF8C, symBinAddr: 0x100001774, symSize: 0x44 }
  - { offset: 0x2342E, size: 0x8, addend: 0x0, symName: __ZNSt7__debug6vectorIiSaIiEEixEm, symObjAddr: 0xEA8, symBinAddr: 0x100001690, symSize: 0xE4 }
  - { offset: 0x234A8, size: 0x8, addend: 0x0, symName: __ZNSt9__cxx19986vectorIiSaIiEED2Ev, symObjAddr: 0xE4C, symBinAddr: 0x100001634, symSize: 0x5C }
  - { offset: 0x23538, size: 0x8, addend: 0x0, symName: __ZNSt7__debug6vectorIiSaIiEEC1EmRKS1_, symObjAddr: 0xDE4, symBinAddr: 0x1000015CC, symSize: 0x68 }
  - { offset: 0x2358A, size: 0x8, addend: 0x0, symName: __ZN11__gnu_debug15_Safe_containerINSt7__debug6vectorIiSaIiEEES3_NS_14_Safe_sequenceELb1EEC2Ev, symObjAddr: 0xDC4, symBinAddr: 0x1000015AC, symSize: 0x20 }
  - { offset: 0x235CD, size: 0x8, addend: 0x0, symName: __ZN11__gnu_debug14_Safe_sequenceINSt7__debug6vectorIiSaIiEEEEC2Ev, symObjAddr: 0xDA4, symBinAddr: 0x10000158C, symSize: 0x20 }
  - { offset: 0x2362C, size: 0x8, addend: 0x0, symName: __ZSt7forwardIiEOT_RNSt16remove_referenceIS0_E4typeE, symObjAddr: 0xD90, symBinAddr: 0x100001578, symSize: 0x14 }
  - { offset: 0x2365E, size: 0x8, addend: 0x0, symName: __ZSt3maxImERKT_S2_S2_, symObjAddr: 0xD58, symBinAddr: 0x100001540, symSize: 0x38 }
  - { offset: 0x236A9, size: 0x8, addend: 0x0, symName: _main, symObjAddr: 0xCE8, symBinAddr: 0x1000014D0, symSize: 0x70 }
  - { offset: 0x236D9, size: 0x8, addend: 0x0, symName: __Z5solvev, symObjAddr: 0x94C, symBinAddr: 0x100001134, symSize: 0x39C }
  - { offset: 0x238F2, size: 0x8, addend: 0x0, symName: __ZN11__gnu_debug14_Safe_iteratorIN9__gnu_cxx17__normal_iteratorIPKiNSt9__cxx19986vectorIiSaIiEEEEENSt7__debug6vectorIiS7_EESt26random_access_iterator_tagED1Ev, symObjAddr: 0x92C, symBinAddr: 0x100001114, symSize: 0x20 }
  - { offset: 0x23940, size: 0x8, addend: 0x0, symName: __ZN11__gnu_debug14_Safe_iteratorIN9__gnu_cxx17__normal_iteratorIPKiNSt9__cxx19986vectorIiSaIiEEEEENSt7__debug6vectorIiS7_EESt26bidirectional_iterator_tagED2Ev, symObjAddr: 0x90C, symBinAddr: 0x1000010F4, symSize: 0x20 }
  - { offset: 0x2398D, size: 0x8, addend: 0x0, symName: __ZN11__gnu_debug14_Safe_iteratorIN9__gnu_cxx17__normal_iteratorIPKiNSt9__cxx19986vectorIiSaIiEEEEENSt7__debug6vectorIiS7_EESt20forward_iterator_tagED2Ev, symObjAddr: 0x8E8, symBinAddr: 0x1000010D0, symSize: 0x24 }
  - { offset: 0x239DB, size: 0x8, addend: 0x0, symName: __ZN11__gnu_debug14_Safe_iteratorIN9__gnu_cxx17__normal_iteratorIPiNSt9__cxx19986vectorIiSaIiEEEEENSt7__debug6vectorIiS6_EESt26random_access_iterator_tagED1Ev, symObjAddr: 0x8C8, symBinAddr: 0x1000010B0, symSize: 0x20 }
  - { offset: 0x23A29, size: 0x8, addend: 0x0, symName: __ZN11__gnu_debug14_Safe_iteratorIN9__gnu_cxx17__normal_iteratorIPiNSt9__cxx19986vectorIiSaIiEEEEENSt7__debug6vectorIiS6_EESt26bidirectional_iterator_tagED2Ev, symObjAddr: 0x8A8, symBinAddr: 0x100001090, symSize: 0x20 }
  - { offset: 0x23A76, size: 0x8, addend: 0x0, symName: __ZN11__gnu_debug14_Safe_iteratorIN9__gnu_cxx17__normal_iteratorIPiNSt9__cxx19986vectorIiSaIiEEEEENSt7__debug6vectorIiS6_EESt20forward_iterator_tagED2Ev, symObjAddr: 0x884, symBinAddr: 0x10000106C, symSize: 0x24 }
  - { offset: 0x23AC0, size: 0x8, addend: 0x0, symName: __ZNSt7__debug6vectorIiSaIiEED1Ev, symObjAddr: 0x858, symBinAddr: 0x100001040, symSize: 0x2C }
  - { offset: 0x23B0D, size: 0x8, addend: 0x0, symName: __ZN11__gnu_debug15_Safe_containerINSt7__debug6vectorIiSaIiEEES3_NS_14_Safe_sequenceELb1EED2Ev, symObjAddr: 0x838, symBinAddr: 0x100001020, symSize: 0x20 }
  - { offset: 0x23B5A, size: 0x8, addend: 0x0, symName: __ZN11__gnu_debug14_Safe_sequenceINSt7__debug6vectorIiSaIiEEEED2Ev, symObjAddr: 0x818, symBinAddr: 0x100001000, symSize: 0x20 }
  - { offset: 0x23B7C, size: 0x8, addend: 0x0, symName: __ZSt3minImERKT_S2_S2_, symObjAddr: 0x7E0, symBinAddr: 0x100000FC8, symSize: 0x38 }
  - { offset: 0x23BC2, size: 0x8, addend: 0x0, symName: __ZNK11__gnu_debug19_Safe_sequence_base17_M_invalidate_allEv, symObjAddr: 0x78C, symBinAddr: 0x100000F74, symSize: 0x54 }
  - { offset: 0x23C10, size: 0x8, addend: 0x0, symName: __ZN11__gnu_debug19_Safe_sequence_baseD2Ev, symObjAddr: 0x754, symBinAddr: 0x100000F3C, symSize: 0x38 }
  - { offset: 0x23C69, size: 0x8, addend: 0x0, symName: __ZN11__gnu_debug19_Safe_sequence_baseC2Ev, symObjAddr: 0x724, symBinAddr: 0x100000F0C, symSize: 0x30 }
  - { offset: 0x23C8F, size: 0x8, addend: 0x0, symName: __ZN11__gnu_debug19_Safe_iterator_base13_M_invalidateEv, symObjAddr: 0x708, symBinAddr: 0x100000EF0, symSize: 0x1C }
  - { offset: 0x23CB9, size: 0x8, addend: 0x0, symName: __ZNK11__gnu_debug19_Safe_iterator_base14_M_attached_toEPKNS_19_Safe_sequence_baseE, symObjAddr: 0x6DC, symBinAddr: 0x100000EC4, symSize: 0x2C }
  - { offset: 0x23D17, size: 0x8, addend: 0x0, symName: __ZN11__gnu_debug19_Safe_iterator_baseD2Ev, symObjAddr: 0x6A4, symBinAddr: 0x100000E8C, symSize: 0x38 }
  - { offset: 0x23D8A, size: 0x8, addend: 0x0, symName: __ZN11__gnu_debug19_Safe_iterator_baseC2EPKNS_19_Safe_sequence_baseEb, symObjAddr: 0x634, symBinAddr: 0x100000E1C, symSize: 0x70 }
  - { offset: 0x23DF5, size: 0x8, addend: 0x0, symName: __ZN11__gnu_debug19_Safe_iterator_baseC2Ev, symObjAddr: 0x600, symBinAddr: 0x100000DE8, symSize: 0x34 }
  - { offset: 0x23E3F, size: 0x8, addend: 0x0, symName: __ZN9__gnu_cxx13__scoped_lockD1Ev, symObjAddr: 0x5DC, symBinAddr: 0x100000DC4, symSize: 0x24 }
  - { offset: 0x23E8C, size: 0x8, addend: 0x0, symName: __ZN9__gnu_cxx13__scoped_lockC1ERNS_7__mutexE, symObjAddr: 0x5A8, symBinAddr: 0x100000D90, symSize: 0x34 }
  - { offset: 0x23EBB, size: 0x8, addend: 0x0, symName: __ZN9__gnu_cxx7__mutex6unlockEv, symObjAddr: 0x550, symBinAddr: 0x100000D38, symSize: 0x58 }
  - { offset: 0x23EE5, size: 0x8, addend: 0x0, symName: __ZN9__gnu_cxx7__mutex4lockEv, symObjAddr: 0x4F8, symBinAddr: 0x100000CE0, symSize: 0x58 }
  - { offset: 0x23F0B, size: 0x8, addend: 0x0, symName: __ZN9__gnu_cxx32__throw_concurrence_unlock_errorEv, symObjAddr: 0x4BC, symBinAddr: 0x100000CA4, symSize: 0x3C }
  - { offset: 0x23F4E, size: 0x8, addend: 0x0, symName: __ZN9__gnu_cxx26__concurrence_unlock_errorD0Ev, symObjAddr: 0x494, symBinAddr: 0x100000C7C, symSize: 0x28 }
  - { offset: 0x23F78, size: 0x8, addend: 0x0, symName: __ZN9__gnu_cxx26__concurrence_unlock_errorD1Ev, symObjAddr: 0x460, symBinAddr: 0x100000C48, symSize: 0x34 }
  - { offset: 0x23FBB, size: 0x8, addend: 0x0, symName: __ZN9__gnu_cxx26__concurrence_unlock_errorC1Ev, symObjAddr: 0x42C, symBinAddr: 0x100000C14, symSize: 0x34 }
  - { offset: 0x23FDD, size: 0x8, addend: 0x0, symName: __ZN9__gnu_cxx30__throw_concurrence_lock_errorEv, symObjAddr: 0x3F0, symBinAddr: 0x100000BD8, symSize: 0x3C }
  - { offset: 0x24020, size: 0x8, addend: 0x0, symName: __ZN9__gnu_cxx24__concurrence_lock_errorD0Ev, symObjAddr: 0x3C8, symBinAddr: 0x100000BB0, symSize: 0x28 }
  - { offset: 0x2404A, size: 0x8, addend: 0x0, symName: __ZN9__gnu_cxx24__concurrence_lock_errorD1Ev, symObjAddr: 0x394, symBinAddr: 0x100000B7C, symSize: 0x34 }
  - { offset: 0x2408D, size: 0x8, addend: 0x0, symName: __ZN9__gnu_cxx24__concurrence_lock_errorC1Ev, symObjAddr: 0x360, symBinAddr: 0x100000B48, symSize: 0x34 }
  - { offset: 0x240B3, size: 0x8, addend: 0x0, symName: __ZNK9__gnu_cxx26__concurrence_unlock_error4whatEv, symObjAddr: 0x348, symBinAddr: 0x100000B30, symSize: 0x18 }
  - { offset: 0x240DD, size: 0x8, addend: 0x0, symName: __ZNK9__gnu_cxx24__concurrence_lock_error4whatEv, symObjAddr: 0x330, symBinAddr: 0x100000B18, symSize: 0x18 }
  - { offset: 0x2410B, size: 0x8, addend: 0x0, symName: __ZL22__gthread_mutex_unlockP23_opaque_pthread_mutex_t, symObjAddr: 0x2F0, symBinAddr: 0x100000AD8, symSize: 0x40 }
  - { offset: 0x2413D, size: 0x8, addend: 0x0, symName: __ZL20__gthread_mutex_lockP23_opaque_pthread_mutex_t, symObjAddr: 0x2B0, symBinAddr: 0x100000A98, symSize: 0x40 }
  - { offset: 0x2416F, size: 0x8, addend: 0x0, symName: __ZL18__gthread_active_pv, symObjAddr: 0x2A8, symBinAddr: 0x100000A90, symSize: 0x8 }
  - { offset: 0x24192, size: 0x8, addend: 0x0, symName: __ZnwmPv, symObjAddr: 0x290, symBinAddr: 0x100000A78, symSize: 0x18 }
  - { offset: 0x241C4, size: 0x8, addend: 0x0, symName: __ZSt17__size_to_integerm, symObjAddr: 0x27C, symBinAddr: 0x100000A64, symSize: 0x14 }
  - { offset: 0x241EE, size: 0x8, addend: 0x0, symName: __ZN11__gnu_debug16_Error_formatter5_S_atEPKcjS2_, symObjAddr: 0x1E8, symBinAddr: 0x1000009D0, symSize: 0x94 }
  - { offset: 0x24247, size: 0x8, addend: 0x0, symName: __ZZN11__gnu_debug16_Error_formatter5_S_atEPKcjS2_E11__formatter, symObjAddr: 0x5260, symBinAddr: 0x100010000, symSize: 0x0 }
  - { offset: 0x2429E, size: 0x8, addend: 0x0, symName: __ZN11__gnu_debug16_Error_formatterC1EPKcjS2_, symObjAddr: 0x15C, symBinAddr: 0x100000944, symSize: 0x8C }
  - { offset: 0x242DF, size: 0x8, addend: 0x0, symName: __ZN11__gnu_debug16_Error_formatter10_M_integerElPKc, symObjAddr: 0xC0, symBinAddr: 0x1000008A8, symSize: 0x9C }
  - { offset: 0x24364, size: 0x8, addend: 0x0, symName: __ZN11__gnu_debug16_Error_formatter10_ParameterC1ElPKc, symObjAddr: 0x6C, symBinAddr: 0x100000854, symSize: 0x54 }
  - { offset: 0x243B6, size: 0x8, addend: 0x0, symName: __ZN11__gnu_debug16_Error_formatter10_ParameterC1Ev, symObjAddr: 0x3C, symBinAddr: 0x100000824, symSize: 0x30 }
  - { offset: 0x243F6, size: 0x8, addend: 0x0, symName: __ZNSt9exceptionC2Ev, symObjAddr: 0x14, symBinAddr: 0x1000007FC, symSize: 0x28 }
  - { offset: 0x24418, size: 0x8, addend: 0x0, symName: __ZN11__gnu_debug20__check_singular_auxEPKv, symObjAddr: 0x0, symBinAddr: 0x1000007E8, symSize: 0x14 }
...
