---
triple:          'arm64-apple-darwin'
binary-path:     '/Users/mengchengxi/Documents/code/C++C/competition/D. Catshock'
relocations:
  - { offset: 0x23079, size: 0x8, addend: 0x0, symName: __ZStL8__ioinit, symObjAddr: 0xBD4A1, symBinAddr: 0x100018228, symSize: 0x0 }
  - { offset: 0x235D1, size: 0x8, addend: 0x0, symName: __ZL3INF, symObjAddr: 0x7C70, symBinAddr: 0x100009588, symSize: 0x0 }
  - { offset: 0x235E8, size: 0x8, addend: 0x0, symName: __ZL3mod, symObjAddr: 0x7C74, symBinAddr: 0x10000958C, symSize: 0x0 }
  - { offset: 0x237ED, size: 0x8, addend: 0x0, symName: _tree, symObjAddr: 0xBD4A8, symBinAddr: 0x100018230, symSize: 0x0 }
  - { offset: 0x23804, size: 0x8, addend: 0x0, symName: _oe, symObjAddr: 0xBD4E0, symBinAddr: 0x100018268, symSize: 0x0 }
  - { offset: 0x2381B, size: 0x8, addend: 0x0, symName: _timecatmoves, symObjAddr: 0xBD518, symBinAddr: 0x1000182A0, symSize: 0x0 }
  - { offset: 0x23832, size: 0x8, addend: 0x0, symName: _target, symObjAddr: 0xBD51C, symBinAddr: 0x1000182A4, symSize: 0x0 }
  - { offset: 0x23A60, size: 0x8, addend: 0x0, symName: _operation, symObjAddr: 0xBD520, symBinAddr: 0x1000182A8, symSize: 0x0 }
  - { offset: 0x23C90, size: 0x8, addend: 0x0, symName: __GLOBAL__sub_I_D._Catshock.cpp, symObjAddr: 0x93B4, symBinAddr: 0x1000081CC, symSize: 0x14 }
  - { offset: 0x23CA8, size: 0x8, addend: 0x0, symName: __Z41__static_initialization_and_destruction_0v, symObjAddr: 0x9300, symBinAddr: 0x100008118, symSize: 0xB4 }
  - { offset: 0x23CE8, size: 0x8, addend: 0x0, symName: __ZNSt7__debug6vectorISt4pairIiiESaIS2_EED1Ev, symObjAddr: 0x78B4, symBinAddr: 0x1000080EC, symSize: 0x2C }
  - { offset: 0x23D0A, size: 0x8, addend: 0x0, symName: __ZSt9__fill_a1IPiiEN9__gnu_cxx11__enable_ifIXsrSt11__is_scalarIT0_E7__valueEvE6__typeET_S8_RKS4_, symObjAddr: 0x785C, symBinAddr: 0x100008094, symSize: 0x58 }
  - { offset: 0x23DA5, size: 0x8, addend: 0x0, symName: __ZSt8__fill_aIPiiEvT_S1_RKT0_, symObjAddr: 0x782C, symBinAddr: 0x100008064, symSize: 0x30 }
  - { offset: 0x23E03, size: 0x8, addend: 0x0, symName: __ZN11__gnu_debug13__can_advanceIPimEEbT_T0_, symObjAddr: 0x7814, symBinAddr: 0x10000804C, symSize: 0x18 }
  - { offset: 0x23E99, size: 0x8, addend: 0x0, symName: __ZSt10__fill_n_aIPimiET_S1_T0_RKT1_St26random_access_iterator_tag, symObjAddr: 0x7728, symBinAddr: 0x100007F60, symSize: 0xEC }
  - { offset: 0x23F85, size: 0x8, addend: 0x0, symName: __ZNSt4pairIlN11__gnu_debug19_Distance_precisionEEC1IlS1_Lb1EEEOT_OT0_, symObjAddr: 0x76E0, symBinAddr: 0x100007F18, symSize: 0x48 }
  - { offset: 0x23FD2, size: 0x8, addend: 0x0, symName: __ZSt7forwardIRKNSt7__debug6vectorIiSaIiEEEEOT_RNSt16remove_referenceIS6_E4typeE, symObjAddr: 0x76CC, symBinAddr: 0x100007F04, symSize: 0x14 }
  - { offset: 0x24004, size: 0x8, addend: 0x0, symName: __ZSt19__relocate_object_aISt4pairIiiES1_SaIS1_EEvPT_PT0_RT1_, symObjAddr: 0x7608, symBinAddr: 0x100007E40, symSize: 0xC4 }
  - { offset: 0x24136, size: 0x8, addend: 0x0, symName: __ZSt11__addressofISt4pairIiiEEPT_RS2_, symObjAddr: 0x75F4, symBinAddr: 0x100007E2C, symSize: 0x14 }
  - { offset: 0x2417E, size: 0x8, addend: 0x0, symName: __ZNSt11__copy_moveILb0ELb0ESt26random_access_iterator_tagE12__assign_oneIiiEEvPT_PT0_, symObjAddr: 0x75CC, symBinAddr: 0x100007E04, symSize: 0x28 }
  - { offset: 0x241CB, size: 0x8, addend: 0x0, symName: __ZNSt11__copy_moveILb0ELb0ESt26random_access_iterator_tagE12__assign_oneIiKiEEvPT_PT0_, symObjAddr: 0x75A4, symBinAddr: 0x100007DDC, symSize: 0x28 }
  - { offset: 0x2421F, size: 0x8, addend: 0x0, symName: __ZN9__gnu_cxxmiIPKiNSt9__cxx19986vectorIiSaIiEEEEENS_17__normal_iteratorIT_T0_E15difference_typeERKSA_SD_, symObjAddr: 0x7564, symBinAddr: 0x100007D9C, symSize: 0x40 }
  - { offset: 0x2426C, size: 0x8, addend: 0x0, symName: __ZSt13__copy_move_aILb0EN9__gnu_cxx17__normal_iteratorIPKiNSt9__cxx19986vectorIiSaIiEEEEEPiET1_T0_SB_SA_, symObjAddr: 0x7504, symBinAddr: 0x100007D3C, symSize: 0x60 }
  - { offset: 0x242D4, size: 0x8, addend: 0x0, symName: __ZSt6fill_nIPimiET_S1_T0_RKT1_, symObjAddr: 0x74BC, symBinAddr: 0x100007CF4, symSize: 0x48 }
  - { offset: 0x2435C, size: 0x8, addend: 0x0, symName: __ZSt10_ConstructIiJEEvPT_DpOT0_, symObjAddr: 0x7490, symBinAddr: 0x100007CC8, symSize: 0x2C }
  - { offset: 0x24398, size: 0x8, addend: 0x0, symName: __ZSt11__addressofIiEPT_RS0_, symObjAddr: 0x747C, symBinAddr: 0x100007CB4, symSize: 0x14 }
  - { offset: 0x243ED, size: 0x8, addend: 0x0, symName: __ZN11__gnu_debug12_Safe_vectorINSt7__debug6vectorIiSaIiEEENSt9__cxx19986vectorIiS3_EEEC2ERKS8_, symObjAddr: 0x7450, symBinAddr: 0x100007C88, symSize: 0x2C }
  - { offset: 0x24444, size: 0x8, addend: 0x0, symName: __ZNSt9__cxx19986vectorIiSaIiEEC2ERKS2_, symObjAddr: 0x733C, symBinAddr: 0x100007B74, symSize: 0x114 }
  - { offset: 0x2455A, size: 0x8, addend: 0x0, symName: __ZSt7forwardIRNSt7__debug6vectorIiSaIiEEEEOT_RNSt16remove_referenceIS5_E4typeE, symObjAddr: 0x7328, symBinAddr: 0x100007B60, symSize: 0x14 }
  - { offset: 0x2458C, size: 0x8, addend: 0x0, symName: __ZSt9make_pairIlN11__gnu_debug19_Distance_precisionEESt4pairINSt25__strip_reference_wrapperINSt5decayIT_E4typeEE6__typeENS3_INS4_IT0_E4typeEE6__typeEEOS5_OSA_, symObjAddr: 0x72DC, symBinAddr: 0x100007B14, symSize: 0x4C }
  - { offset: 0x245E0, size: 0x8, addend: 0x0, symName: __ZN9__gnu_cxxmiIPKNSt7__debug6vectorIiSaIiEEENSt9__cxx19986vectorIS4_SaIS4_EEEEENS_17__normal_iteratorIT_T0_E15difference_typeERKSE_SH_, symObjAddr: 0x7288, symBinAddr: 0x100007AC0, symSize: 0x54 }
  - { offset: 0x2462D, size: 0x8, addend: 0x0, symName: __ZSt10_ConstructINSt7__debug6vectorIiSaIiEEEJRKS3_EEvPT_DpOT0_, symObjAddr: 0x720C, symBinAddr: 0x100007A44, symSize: 0x7C }
  - { offset: 0x2467D, size: 0x8, addend: 0x0, symName: __ZNK9__gnu_cxx17__normal_iteratorIPKNSt7__debug6vectorIiSaIiEEENSt9__cxx19986vectorIS4_SaIS4_EEEEdeEv, symObjAddr: 0x71F4, symBinAddr: 0x100007A2C, symSize: 0x18 }
  - { offset: 0x246A7, size: 0x8, addend: 0x0, symName: __ZN9__gnu_cxx17__normal_iteratorIPKNSt7__debug6vectorIiSaIiEEENSt9__cxx19986vectorIS4_SaIS4_EEEEppEv, symObjAddr: 0x71CC, symBinAddr: 0x100007A04, symSize: 0x28 }
  - { offset: 0x246CD, size: 0x8, addend: 0x0, symName: __ZN9__gnu_cxxneIPKNSt7__debug6vectorIiSaIiEEENSt9__cxx19986vectorIS4_SaIS4_EEEEEbRKNS_17__normal_iteratorIT_T0_EESG_, symObjAddr: 0x7188, symBinAddr: 0x1000079C0, symSize: 0x44 }
  - { offset: 0x2471A, size: 0x8, addend: 0x0, symName: __ZSt18__do_uninit_fill_nIPNSt7__debug6vectorIiSaIiEEEmS3_ET_S5_T0_RKT1_, symObjAddr: 0x70F8, symBinAddr: 0x100007930, symSize: 0x90 }
  - { offset: 0x24792, size: 0x8, addend: 0x0, symName: __ZSt14__relocate_a_1IPSt4pairIiiES2_SaIS1_EET0_T_S5_S4_RT1_, symObjAddr: 0x7074, symBinAddr: 0x1000078AC, symSize: 0x84 }
  - { offset: 0x2481B, size: 0x8, addend: 0x0, symName: __ZSt12__niter_baseIPSt4pairIiiEET_S3_, symObjAddr: 0x7060, symBinAddr: 0x100007898, symSize: 0x14 }
  - { offset: 0x24852, size: 0x8, addend: 0x0, symName: __ZNSt15__new_allocatorISt4pairIiiEE8allocateEmPKv, symObjAddr: 0x6FE4, symBinAddr: 0x10000781C, symSize: 0x7C }
  - { offset: 0x248DE, size: 0x8, addend: 0x0, symName: __ZNKSt9__cxx199812_Vector_baseISt4pairIiiESaIS2_EE19_M_get_Tp_allocatorEv, symObjAddr: 0x6FD0, symBinAddr: 0x100007808, symSize: 0x14 }
  - { offset: 0x24904, size: 0x8, addend: 0x0, symName: __ZNSt9__cxx19986vectorISt4pairIiiESaIS2_EE11_S_max_sizeERKS3_, symObjAddr: 0x6F7C, symBinAddr: 0x1000077B4, symSize: 0x54 }
  - { offset: 0x249BB, size: 0x8, addend: 0x0, symName: __ZSt14__relocate_a_1IiiENSt9enable_ifIXsrSt24__is_bitwise_relocatableIT_vE5valueEPS2_E4typeES4_S4_S4_RSaIT0_E, symObjAddr: 0x6F18, symBinAddr: 0x100007750, symSize: 0x64 }
  - { offset: 0x24A3B, size: 0x8, addend: 0x0, symName: __ZNSt11__copy_moveILb0ELb1ESt26random_access_iterator_tagE8__copy_mIiiEEPT0_PT_S6_S4_, symObjAddr: 0x6E88, symBinAddr: 0x1000076C0, symSize: 0x90 }
  - { offset: 0x24AAA, size: 0x8, addend: 0x0, symName: __ZN11__gnu_debug14__get_distanceIPiEENS_16_Distance_traitsIT_NSt12__is_integerIS3_E6__typeEE6__typeES3_S3_St26random_access_iterator_tag, symObjAddr: 0x6E44, symBinAddr: 0x10000767C, symSize: 0x44 }
  - { offset: 0x24B0B, size: 0x8, addend: 0x0, symName: __ZNSt11__copy_moveILb0ELb1ESt26random_access_iterator_tagE8__copy_mIKiiEEPT0_PT_S7_S5_, symObjAddr: 0x6DB4, symBinAddr: 0x1000075EC, symSize: 0x90 }
  - { offset: 0x24B80, size: 0x8, addend: 0x0, symName: __ZSt11__addressofIKPKiEPT_RS3_, symObjAddr: 0x6DA0, symBinAddr: 0x1000075D8, symSize: 0x14 }
  - { offset: 0x24BB2, size: 0x8, addend: 0x0, symName: __ZN11__gnu_debug14__get_distanceIN9__gnu_cxx17__normal_iteratorIPKiNSt9__cxx19986vectorIiSaIiEEEEEEENS_16_Distance_traitsIT_NSt12__is_integerISB_E6__typeEE6__typeESB_SB_St26random_access_iterator_tag, symObjAddr: 0x6D60, symBinAddr: 0x100007598, symSize: 0x40 }
  - { offset: 0x24C13, size: 0x8, addend: 0x0, symName: __ZSt11__addressofIKN9__gnu_cxx17__normal_iteratorIPKiNSt9__cxx19986vectorIiSaIiEEEEEEPT_RSA_, symObjAddr: 0x6D4C, symBinAddr: 0x100007584, symSize: 0x14 }
  - { offset: 0x24C45, size: 0x8, addend: 0x0, symName: __ZN9__gnu_cxxeqIPKiNSt9__cxx19986vectorIiSaIiEEEEEbRKNS_17__normal_iteratorIT_T0_EESC_, symObjAddr: 0x6D08, symBinAddr: 0x100007540, symSize: 0x44 }
  - { offset: 0x24C92, size: 0x8, addend: 0x0, symName: __ZSt4copyIN9__gnu_cxx17__normal_iteratorIPKiNSt9__cxx19986vectorIiSaIiEEEEEPiET0_T_SB_SA_, symObjAddr: 0x6BA4, symBinAddr: 0x1000073DC, symSize: 0x164 }
  - { offset: 0x24D2F, size: 0x8, addend: 0x0, symName: __ZNSt27__uninitialized_default_n_1ILb1EE18__uninit_default_nIPimEET_S3_T0_, symObjAddr: 0x6B40, symBinAddr: 0x100007378, symSize: 0x64 }
  - { offset: 0x24DBC, size: 0x8, addend: 0x0, symName: __ZSt10_ConstructINSt7__debug6vectorIiSaIiEEEJRS3_EEvPT_DpOT0_, symObjAddr: 0x6AC4, symBinAddr: 0x1000072FC, symSize: 0x7C }
  - { offset: 0x24E2B, size: 0x8, addend: 0x0, symName: __ZNSt7__debug6vectorIiSaIiEEC1ERKS2_, symObjAddr: 0x6A48, symBinAddr: 0x100007280, symSize: 0x7C }
  - { offset: 0x24E79, size: 0x8, addend: 0x0, symName: __ZN11__gnu_debug15_Safe_containerINSt7__debug6vectorIiSaIiEEES3_NS_14_Safe_sequenceELb1EEC2ERKS6_, symObjAddr: 0x6A20, symBinAddr: 0x100007258, symSize: 0x28 }
  - { offset: 0x24EDC, size: 0x8, addend: 0x0, symName: __ZN11__gnu_debug14_Safe_sequenceINSt7__debug6vectorIiSaIiEEEEC2ERKS5_, symObjAddr: 0x69F8, symBinAddr: 0x100007230, symSize: 0x28 }
  - { offset: 0x24F07, size: 0x8, addend: 0x0, symName: __ZNSt11__copy_moveILb0ELb0ESt26random_access_iterator_tagE8__copy_mIPNSt7__debug6vectorIiSaIiEEES7_EET0_T_S9_S8_, symObjAddr: 0x6970, symBinAddr: 0x1000071A8, symSize: 0x88 }
  - { offset: 0x24F96, size: 0x8, addend: 0x0, symName: __ZN11__gnu_debug14__get_distanceIPNSt7__debug6vectorIiSaIiEEEEENS_16_Distance_traitsIT_NSt12__is_integerIS7_E6__typeEE6__typeES7_S7_St26random_access_iterator_tag, symObjAddr: 0x6918, symBinAddr: 0x100007150, symSize: 0x58 }
  - { offset: 0x24FF7, size: 0x8, addend: 0x0, symName: __ZNSt11__copy_moveILb0ELb0ESt26random_access_iterator_tagE8__copy_mIPKNSt7__debug6vectorIiSaIiEEEPS6_EET0_T_SB_SA_, symObjAddr: 0x6890, symBinAddr: 0x1000070C8, symSize: 0x88 }
  - { offset: 0x2508C, size: 0x8, addend: 0x0, symName: __ZSt11__addressofIKPKNSt7__debug6vectorIiSaIiEEEEPT_RS7_, symObjAddr: 0x687C, symBinAddr: 0x1000070B4, symSize: 0x14 }
  - { offset: 0x250C5, size: 0x8, addend: 0x0, symName: __ZSt7forwardIN11__gnu_debug19_Distance_precisionEEOT_RNSt16remove_referenceIS2_E4typeE, symObjAddr: 0x6868, symBinAddr: 0x1000070A0, symSize: 0x14 }
  - { offset: 0x250FE, size: 0x8, addend: 0x0, symName: __ZSt7forwardIlEOT_RNSt16remove_referenceIS0_E4typeE, symObjAddr: 0x6854, symBinAddr: 0x10000708C, symSize: 0x14 }
  - { offset: 0x25130, size: 0x8, addend: 0x0, symName: __ZN11__gnu_debug14__get_distanceIN9__gnu_cxx17__normal_iteratorIPKNSt7__debug6vectorIiSaIiEEENSt9__cxx19986vectorIS6_SaIS6_EEEEEEENS_16_Distance_traitsIT_NSt12__is_integerISF_E6__typeEE6__typeESF_SF_St26random_access_iterator_tag, symObjAddr: 0x6814, symBinAddr: 0x10000704C, symSize: 0x40 }
  - { offset: 0x25191, size: 0x8, addend: 0x0, symName: __ZSt11__addressofIKN9__gnu_cxx17__normal_iteratorIPKNSt7__debug6vectorIiSaIiEEENSt9__cxx19986vectorIS5_SaIS5_EEEEEEPT_RSE_, symObjAddr: 0x6800, symBinAddr: 0x100007038, symSize: 0x14 }
  - { offset: 0x251C3, size: 0x8, addend: 0x0, symName: __ZN9__gnu_cxxeqIPKNSt7__debug6vectorIiSaIiEEENSt9__cxx19986vectorIS4_SaIS4_EEEEEbRKNS_17__normal_iteratorIT_T0_EESG_, symObjAddr: 0x67BC, symBinAddr: 0x100006FF4, symSize: 0x44 }
  - { offset: 0x25210, size: 0x8, addend: 0x0, symName: __ZSt16__do_uninit_copyIN9__gnu_cxx17__normal_iteratorIPKNSt7__debug6vectorIiSaIiEEENSt9__cxx19986vectorIS5_SaIS5_EEEEEPS5_ET0_T_SF_SE_, symObjAddr: 0x6714, symBinAddr: 0x100006F4C, symSize: 0xA8 }
  - { offset: 0x2527B, size: 0x8, addend: 0x0, symName: __ZNSt22__uninitialized_fill_nILb0EE15__uninit_fill_nIPNSt7__debug6vectorIiSaIiEEEmS5_EET_S7_T0_RKT1_, symObjAddr: 0x66E8, symBinAddr: 0x100006F20, symSize: 0x2C }
  - { offset: 0x252FC, size: 0x8, addend: 0x0, symName: __ZNK9__gnu_cxx17__normal_iteratorIPKSt4pairIiiENSt9__cxx19986vectorIS2_SaIS2_EEEE4baseEv, symObjAddr: 0x66D4, symBinAddr: 0x100006F0C, symSize: 0x14 }
  - { offset: 0x2534E, size: 0x8, addend: 0x0, symName: __ZN9__gnu_cxx17__normal_iteratorIPKSt4pairIiiENSt9__cxx19986vectorIS2_SaIS2_EEEEC1ERKS4_, symObjAddr: 0x66AC, symBinAddr: 0x100006EE4, symSize: 0x28 }
  - { offset: 0x25379, size: 0x8, addend: 0x0, symName: __ZSt12__relocate_aIPSt4pairIiiES2_SaIS1_EET0_T_S5_S4_RT1_, symObjAddr: 0x6650, symBinAddr: 0x100006E88, symSize: 0x5C }
  - { offset: 0x25419, size: 0x8, addend: 0x0, symName: __ZNK9__gnu_cxx17__normal_iteratorIPSt4pairIiiENSt9__cxx19986vectorIS2_SaIS2_EEEE4baseEv, symObjAddr: 0x663C, symBinAddr: 0x100006E74, symSize: 0x14 }
  - { offset: 0x2546B, size: 0x8, addend: 0x0, symName: __ZN9__gnu_cxx17__normal_iteratorIPSt4pairIiiENSt9__cxx19986vectorIS2_SaIS2_EEEEC1ERKS3_, symObjAddr: 0x6614, symBinAddr: 0x100006E4C, symSize: 0x28 }
  - { offset: 0x2549A, size: 0x8, addend: 0x0, symName: __ZNKSt9__cxx19986vectorISt4pairIiiESaIS2_EE8max_sizeEv, symObjAddr: 0x65F4, symBinAddr: 0x100006E2C, symSize: 0x20 }
  - { offset: 0x254C0, size: 0x8, addend: 0x0, symName: __ZSt12__relocate_aIPiS0_SaIiEET0_T_S3_S2_RT1_, symObjAddr: 0x6598, symBinAddr: 0x100006DD0, symSize: 0x5C }
  - { offset: 0x2553C, size: 0x8, addend: 0x0, symName: __ZNKSt9__cxx19986vectorIiSaIiEE8max_sizeEv, symObjAddr: 0x6578, symBinAddr: 0x100006DB0, symSize: 0x20 }
  - { offset: 0x25562, size: 0x8, addend: 0x0, symName: __ZSt14__copy_move_a2ILb0EPiS0_ET1_T0_S2_S1_, symObjAddr: 0x654C, symBinAddr: 0x100006D84, symSize: 0x2C }
  - { offset: 0x255D0, size: 0x8, addend: 0x0, symName: __ZSt11__addressofIKPiEPT_RS2_, symObjAddr: 0x6538, symBinAddr: 0x100006D70, symSize: 0x14 }
  - { offset: 0x25602, size: 0x8, addend: 0x0, symName: __ZN11__gnu_debug14__get_distanceIPiEENS_16_Distance_traitsIT_NSt12__is_integerIS3_E6__typeEE6__typeES3_S3_, symObjAddr: 0x6510, symBinAddr: 0x100006D48, symSize: 0x28 }
  - { offset: 0x25664, size: 0x8, addend: 0x0, symName: __ZN11__gnu_debug17__valid_range_auxIPiEEbT_S2_St18input_iterator_tag, symObjAddr: 0x64A0, symBinAddr: 0x100006CD8, symSize: 0x70 }
  - { offset: 0x256AF, size: 0x8, addend: 0x0, symName: __ZN11__gnu_debug16__check_singularIiEEbRKPT_, symObjAddr: 0x647C, symBinAddr: 0x100006CB4, symSize: 0x24 }
  - { offset: 0x256E5, size: 0x8, addend: 0x0, symName: __ZNK9__gnu_cxx17__normal_iteratorIPiNSt9__cxx19986vectorIiSaIiEEEEplEl, symObjAddr: 0x643C, symBinAddr: 0x100006C74, symSize: 0x40 }
  - { offset: 0x2571C, size: 0x8, addend: 0x0, symName: __ZSt14__copy_move_a2ILb0EPKiPiET1_T0_S4_S3_, symObjAddr: 0x6410, symBinAddr: 0x100006C48, symSize: 0x2C }
  - { offset: 0x25788, size: 0x8, addend: 0x0, symName: __ZNK9__gnu_cxx17__normal_iteratorIPiNSt9__cxx19986vectorIiSaIiEEEE4baseEv, symObjAddr: 0x63FC, symBinAddr: 0x100006C34, symSize: 0x14 }
  - { offset: 0x257F6, size: 0x8, addend: 0x0, symName: __ZN11__gnu_debug16_Error_formatter10_ParameterC1IiEERKPKT_PKcNS0_12_Is_iteratorE, symObjAddr: 0x634C, symBinAddr: 0x100006B84, symSize: 0xB0 }
  - { offset: 0x25840, size: 0x8, addend: 0x0, symName: __ZNK9__gnu_cxx17__normal_iteratorIPKiNSt9__cxx19986vectorIiSaIiEEEE4baseEv, symObjAddr: 0x6338, symBinAddr: 0x100006B70, symSize: 0x14 }
  - { offset: 0x25866, size: 0x8, addend: 0x0, symName: __ZN11__gnu_debug14__get_distanceIN9__gnu_cxx17__normal_iteratorIPKiNSt9__cxx19986vectorIiSaIiEEEEEEENS_16_Distance_traitsIT_NSt12__is_integerISB_E6__typeEE6__typeESB_SB_, symObjAddr: 0x6310, symBinAddr: 0x100006B48, symSize: 0x28 }
  - { offset: 0x258C8, size: 0x8, addend: 0x0, symName: __ZN11__gnu_debug17__valid_range_auxIN9__gnu_cxx17__normal_iteratorIPKiNSt9__cxx19986vectorIiSaIiEEEEEEEbT_SA_St18input_iterator_tag, symObjAddr: 0x6298, symBinAddr: 0x100006AD0, symSize: 0x78 }
  - { offset: 0x25913, size: 0x8, addend: 0x0, symName: __ZN11__gnu_debug16__check_singularIN9__gnu_cxx17__normal_iteratorIPKiNSt9__cxx19986vectorIiSaIiEEEEEEEbRKT_, symObjAddr: 0x6248, symBinAddr: 0x100006A80, symSize: 0x50 }
  - { offset: 0x2595E, size: 0x8, addend: 0x0, symName: __ZNSt20__uninitialized_copyILb1EE13__uninit_copyIN9__gnu_cxx17__normal_iteratorIPKiNSt9__cxx19986vectorIiSaIiEEEEEPiEET0_T_SD_SC_, symObjAddr: 0x621C, symBinAddr: 0x100006A54, symSize: 0x2C }
  - { offset: 0x259BD, size: 0x8, addend: 0x0, symName: __ZNSt15__new_allocatorIiE8allocateEmPKv, symObjAddr: 0x61A0, symBinAddr: 0x1000069D8, symSize: 0x7C }
  - { offset: 0x25A45, size: 0x8, addend: 0x0, symName: __ZSt25__uninitialized_default_nIPimET_S1_T0_, symObjAddr: 0x6174, symBinAddr: 0x1000069AC, symSize: 0x2C }
  - { offset: 0x25AD4, size: 0x8, addend: 0x0, symName: __ZSt16__do_uninit_copyIPNSt7__debug6vectorIiSaIiEEES4_ET0_T_S6_S5_, symObjAddr: 0x60E0, symBinAddr: 0x100006918, symSize: 0x94 }
  - { offset: 0x25B3F, size: 0x8, addend: 0x0, symName: __ZSt14__copy_move_a2ILb0EPNSt7__debug6vectorIiSaIiEEES4_ET1_T0_S6_S5_, symObjAddr: 0x60B4, symBinAddr: 0x1000068EC, symSize: 0x2C }
  - { offset: 0x25BAD, size: 0x8, addend: 0x0, symName: __ZSt11__addressofIKPNSt7__debug6vectorIiSaIiEEEEPT_RS6_, symObjAddr: 0x60A0, symBinAddr: 0x1000068D8, symSize: 0x14 }
  - { offset: 0x25BDF, size: 0x8, addend: 0x0, symName: __ZN11__gnu_debug14__get_distanceIPNSt7__debug6vectorIiSaIiEEEEENS_16_Distance_traitsIT_NSt12__is_integerIS7_E6__typeEE6__typeES7_S7_, symObjAddr: 0x6078, symBinAddr: 0x1000068B0, symSize: 0x28 }
  - { offset: 0x25C41, size: 0x8, addend: 0x0, symName: __ZN11__gnu_debug17__valid_range_auxIPNSt7__debug6vectorIiSaIiEEEEEbT_S6_St18input_iterator_tag, symObjAddr: 0x6008, symBinAddr: 0x100006840, symSize: 0x70 }
  - { offset: 0x25C8C, size: 0x8, addend: 0x0, symName: __ZN11__gnu_debug16__check_singularINSt7__debug6vectorIiSaIiEEEEEbRKPT_, symObjAddr: 0x5FE4, symBinAddr: 0x10000681C, symSize: 0x24 }
  - { offset: 0x25CC2, size: 0x8, addend: 0x0, symName: __ZNK9__gnu_cxx17__normal_iteratorIPNSt7__debug6vectorIiSaIiEEENSt9__cxx19986vectorIS4_SaIS4_EEEEdeEv, symObjAddr: 0x5FCC, symBinAddr: 0x100006804, symSize: 0x18 }
  - { offset: 0x25CEC, size: 0x8, addend: 0x0, symName: __ZN9__gnu_cxx17__normal_iteratorIPNSt7__debug6vectorIiSaIiEEENSt9__cxx19986vectorIS4_SaIS4_EEEEppEv, symObjAddr: 0x5FA4, symBinAddr: 0x1000067DC, symSize: 0x28 }
  - { offset: 0x25D19, size: 0x8, addend: 0x0, symName: __ZN9__gnu_cxxneIPNSt7__debug6vectorIiSaIiEEENSt9__cxx19986vectorIS4_SaIS4_EEEEEbRKNS_17__normal_iteratorIT_T0_EESF_, symObjAddr: 0x5F60, symBinAddr: 0x100006798, symSize: 0x44 }
  - { offset: 0x25D6A, size: 0x8, addend: 0x0, symName: __ZNK9__gnu_cxx17__normal_iteratorIPNSt7__debug6vectorIiSaIiEEENSt9__cxx19986vectorIS4_SaIS4_EEEEplEl, symObjAddr: 0x5F14, symBinAddr: 0x10000674C, symSize: 0x4C }
  - { offset: 0x25DA1, size: 0x8, addend: 0x0, symName: __ZSt14__copy_move_a2ILb0EPKNSt7__debug6vectorIiSaIiEEEPS3_ET1_T0_S8_S7_, symObjAddr: 0x5EE8, symBinAddr: 0x100006720, symSize: 0x2C }
  - { offset: 0x25E0D, size: 0x8, addend: 0x0, symName: __ZNK9__gnu_cxx17__normal_iteratorIPNSt7__debug6vectorIiSaIiEEENSt9__cxx19986vectorIS4_SaIS4_EEEE4baseEv, symObjAddr: 0x5ED4, symBinAddr: 0x10000670C, symSize: 0x14 }
  - { offset: 0x25E7B, size: 0x8, addend: 0x0, symName: __ZN11__gnu_debug16_Error_formatter10_ParameterC1INSt7__debug6vectorIiSaIiEEEEERKPKT_PKcNS0_12_Is_iteratorE, symObjAddr: 0x5E24, symBinAddr: 0x10000665C, symSize: 0xB0 }
  - { offset: 0x25EC5, size: 0x8, addend: 0x0, symName: __ZNK9__gnu_cxx17__normal_iteratorIPKNSt7__debug6vectorIiSaIiEEENSt9__cxx19986vectorIS4_SaIS4_EEEE4baseEv, symObjAddr: 0x5E10, symBinAddr: 0x100006648, symSize: 0x14 }
  - { offset: 0x25EEF, size: 0x8, addend: 0x0, symName: __ZNSt4pairIlN11__gnu_debug19_Distance_precisionEEaSEOS2_, symObjAddr: 0x5DC8, symBinAddr: 0x100006600, symSize: 0x48 }
  - { offset: 0x25F26, size: 0x8, addend: 0x0, symName: __ZN11__gnu_debug14__get_distanceIN9__gnu_cxx17__normal_iteratorIPKNSt7__debug6vectorIiSaIiEEENSt9__cxx19986vectorIS6_SaIS6_EEEEEEENS_16_Distance_traitsIT_NSt12__is_integerISF_E6__typeEE6__typeESF_SF_, symObjAddr: 0x5DA0, symBinAddr: 0x1000065D8, symSize: 0x28 }
  - { offset: 0x25F88, size: 0x8, addend: 0x0, symName: __ZN11__gnu_debug17__valid_range_auxIN9__gnu_cxx17__normal_iteratorIPKNSt7__debug6vectorIiSaIiEEENSt9__cxx19986vectorIS6_SaIS6_EEEEEEEbT_SE_St18input_iterator_tag, symObjAddr: 0x5D28, symBinAddr: 0x100006560, symSize: 0x78 }
  - { offset: 0x25FD3, size: 0x8, addend: 0x0, symName: __ZN11__gnu_debug16__check_singularIN9__gnu_cxx17__normal_iteratorIPKNSt7__debug6vectorIiSaIiEEENSt9__cxx19986vectorIS6_SaIS6_EEEEEEEbRKT_, symObjAddr: 0x5CD8, symBinAddr: 0x100006510, symSize: 0x50 }
  - { offset: 0x2601E, size: 0x8, addend: 0x0, symName: __ZNSt20__uninitialized_copyILb0EE13__uninit_copyIN9__gnu_cxx17__normal_iteratorIPKNSt7__debug6vectorIiSaIiEEENSt9__cxx19986vectorIS7_SaIS7_EEEEEPS7_EET0_T_SH_SG_, symObjAddr: 0x5CAC, symBinAddr: 0x1000064E4, symSize: 0x2C }
  - { offset: 0x2607D, size: 0x8, addend: 0x0, symName: __ZNSt15__new_allocatorINSt7__debug6vectorIiSaIiEEEE8allocateEmPKv, symObjAddr: 0x5C14, symBinAddr: 0x10000644C, symSize: 0x98 }
  - { offset: 0x26105, size: 0x8, addend: 0x0, symName: __ZSt20uninitialized_fill_nIPNSt7__debug6vectorIiSaIiEEEmS3_ET_S5_T0_RKT1_, symObjAddr: 0x5BE4, symBinAddr: 0x10000641C, symSize: 0x30 }
  - { offset: 0x261B5, size: 0x8, addend: 0x0, symName: __ZN9__gnu_cxxeqIPKSt4pairIiiENSt9__cxx19986vectorIS2_SaIS2_EEEEEbRKNS_17__normal_iteratorIT_T0_EESE_, symObjAddr: 0x5BA0, symBinAddr: 0x1000063D8, symSize: 0x44 }
  - { offset: 0x26206, size: 0x8, addend: 0x0, symName: __ZNKSt9__cxx19986vectorISt4pairIiiESaIS2_EE3endEv, symObjAddr: 0x5B78, symBinAddr: 0x1000063B0, symSize: 0x28 }
  - { offset: 0x26230, size: 0x8, addend: 0x0, symName: __ZNKSt9__cxx19986vectorISt4pairIiiESaIS2_EE5beginEv, symObjAddr: 0x5B54, symBinAddr: 0x10000638C, symSize: 0x24 }
  - { offset: 0x2625A, size: 0x8, addend: 0x0, symName: __ZNKSt9__cxx19986vectorISt4pairIiiESaIS2_EE8capacityEv, symObjAddr: 0x5B2C, symBinAddr: 0x100006364, symSize: 0x28 }
  - { offset: 0x26284, size: 0x8, addend: 0x0, symName: __ZNK9__gnu_cxx17__normal_iteratorIPSt4pairIiiENSt9__cxx19986vectorIS2_SaIS2_EEEEdeEv, symObjAddr: 0x5B14, symBinAddr: 0x10000634C, symSize: 0x18 }
  - { offset: 0x262AE, size: 0x8, addend: 0x0, symName: __ZNK9__gnu_cxx17__normal_iteratorIPSt4pairIiiENSt9__cxx19986vectorIS2_SaIS2_EEEEmiEl, symObjAddr: 0x5AD0, symBinAddr: 0x100006308, symSize: 0x44 }
  - { offset: 0x262E5, size: 0x8, addend: 0x0, symName: __ZNSt9__cxx19986vectorISt4pairIiiESaIS2_EE11_S_relocateEPS2_S5_S5_RS3_, symObjAddr: 0x5A9C, symBinAddr: 0x1000062D4, symSize: 0x34 }
  - { offset: 0x26342, size: 0x8, addend: 0x0, symName: __ZSt12__to_addressISt4pairIiiEEPT_S3_, symObjAddr: 0x5A88, symBinAddr: 0x1000062C0, symSize: 0x14 }
  - { offset: 0x26378, size: 0x8, addend: 0x0, symName: __ZNSt9__cxx199812_Vector_baseISt4pairIiiESaIS2_EE11_M_allocateEm, symObjAddr: 0x5A38, symBinAddr: 0x100006270, symSize: 0x50 }
  - { offset: 0x263E3, size: 0x8, addend: 0x0, symName: __ZN9__gnu_cxxmiIPSt4pairIiiENSt9__cxx19986vectorIS2_SaIS2_EEEEENS_17__normal_iteratorIT_T0_E15difference_typeERKSB_SE_, symObjAddr: 0x59F8, symBinAddr: 0x100006230, symSize: 0x40 }
  - { offset: 0x26434, size: 0x8, addend: 0x0, symName: __ZNSt9__cxx19986vectorISt4pairIiiESaIS2_EE5beginEv, symObjAddr: 0x59D4, symBinAddr: 0x10000620C, symSize: 0x24 }
  - { offset: 0x2645E, size: 0x8, addend: 0x0, symName: __ZNSt9__cxx19986vectorISt4pairIiiESaIS2_EE3endEv, symObjAddr: 0x59AC, symBinAddr: 0x1000061E4, symSize: 0x28 }
  - { offset: 0x26488, size: 0x8, addend: 0x0, symName: __ZNKSt9__cxx19986vectorISt4pairIiiESaIS2_EE12_M_check_lenEmPKc, symObjAddr: 0x58DC, symBinAddr: 0x100006114, symSize: 0xD0 }
  - { offset: 0x26523, size: 0x8, addend: 0x0, symName: __ZSt8_DestroyINSt7__debug6vectorIiSaIiEEEEvPT_, symObjAddr: 0x58BC, symBinAddr: 0x1000060F4, symSize: 0x20 }
  - { offset: 0x26555, size: 0x8, addend: 0x0, symName: __ZSt11__addressofINSt7__debug6vectorIiSaIiEEEEPT_RS4_, symObjAddr: 0x58A8, symBinAddr: 0x1000060E0, symSize: 0x14 }
  - { offset: 0x26587, size: 0x8, addend: 0x0, symName: __ZSt11__addressofIKNSt7__debug6vectorISt4pairIiiESaIS3_EEEEPT_RS7_, symObjAddr: 0x5894, symBinAddr: 0x1000060CC, symSize: 0x14 }
  - { offset: 0x265B9, size: 0x8, addend: 0x0, symName: __ZNSt9__cxx19986vectorIiSaIiEE11_S_relocateEPiS3_S3_RS1_, symObjAddr: 0x5860, symBinAddr: 0x100006098, symSize: 0x34 }
  - { offset: 0x26616, size: 0x8, addend: 0x0, symName: __ZSt12__to_addressIiEPT_S1_, symObjAddr: 0x584C, symBinAddr: 0x100006084, symSize: 0x14 }
  - { offset: 0x26648, size: 0x8, addend: 0x0, symName: __ZN9__gnu_cxxmiIPiNSt9__cxx19986vectorIiSaIiEEEEENS_17__normal_iteratorIT_T0_E15difference_typeERKS9_SC_, symObjAddr: 0x580C, symBinAddr: 0x100006044, symSize: 0x40 }
  - { offset: 0x26699, size: 0x8, addend: 0x0, symName: __ZNKSt9__cxx19986vectorIiSaIiEE12_M_check_lenEmPKc, symObjAddr: 0x573C, symBinAddr: 0x100005F74, symSize: 0xD0 }
  - { offset: 0x2673B, size: 0x8, addend: 0x0, symName: __ZSt7forwardIRKiEOT_RNSt16remove_referenceIS2_E4typeE, symObjAddr: 0x5728, symBinAddr: 0x100005F60, symSize: 0x14 }
  - { offset: 0x2676D, size: 0x8, addend: 0x0, symName: __ZNSt20__uninitialized_copyILb1EE13__uninit_copyIPiS2_EET0_T_S4_S3_, symObjAddr: 0x56FC, symBinAddr: 0x100005F34, symSize: 0x2C }
  - { offset: 0x267C8, size: 0x8, addend: 0x0, symName: __ZSt12__niter_wrapIPiET_RKS1_S1_, symObjAddr: 0x56E4, symBinAddr: 0x100005F1C, symSize: 0x18 }
  - { offset: 0x26804, size: 0x8, addend: 0x0, symName: __ZSt14__copy_move_a1ILb0EPiS0_ET1_T0_S2_S1_, symObjAddr: 0x56B8, symBinAddr: 0x100005EF0, symSize: 0x2C }
  - { offset: 0x2686C, size: 0x8, addend: 0x0, symName: __ZSt12__niter_baseIPiET_S1_, symObjAddr: 0x56A4, symBinAddr: 0x100005EDC, symSize: 0x14 }
  - { offset: 0x268E7, size: 0x8, addend: 0x0, symName: __ZN11__gnu_debug16_Error_formatter10_ParameterC1IiEERKPT_PKcNS0_12_Is_iteratorE, symObjAddr: 0x55F4, symBinAddr: 0x100005E2C, symSize: 0xB0 }
  - { offset: 0x26934, size: 0x8, addend: 0x0, symName: __ZN11__gnu_debug17__valid_range_auxIPiEEbT_S2_RNS_16_Distance_traitsIS2_NSt12__is_integerIS2_E6__typeEE6__typeESt12__false_type, symObjAddr: 0x5520, symBinAddr: 0x100005D58, symSize: 0xD4 }
  - { offset: 0x2698F, size: 0x8, addend: 0x0, symName: __ZNSt12_Destroy_auxILb1EE9__destroyIN9__gnu_cxx17__normal_iteratorIPiNSt9__cxx19986vectorIiSaIiEEEEEEEvT_SA_, symObjAddr: 0x5508, symBinAddr: 0x100005D40, symSize: 0x18 }
  - { offset: 0x269C3, size: 0x8, addend: 0x0, symName: __ZSt12__niter_wrapIN9__gnu_cxx17__normal_iteratorIPiNSt9__cxx19986vectorIiSaIiEEEEES2_ET_S8_T0_, symObjAddr: 0x54C0, symBinAddr: 0x100005CF8, symSize: 0x48 }
  - { offset: 0x26A10, size: 0x8, addend: 0x0, symName: __ZSt14__copy_move_a1ILb0EPKiPiET1_T0_S4_S3_, symObjAddr: 0x5494, symBinAddr: 0x100005CCC, symSize: 0x2C }
  - { offset: 0x26A78, size: 0x8, addend: 0x0, symName: __ZSt12__niter_baseIPiNSt9__cxx19986vectorIiSaIiEEEET_N9__gnu_cxx17__normal_iteratorIS5_T0_EE, symObjAddr: 0x5474, symBinAddr: 0x100005CAC, symSize: 0x20 }
  - { offset: 0x26AB4, size: 0x8, addend: 0x0, symName: __ZSt12__niter_baseIPKiNSt9__cxx19986vectorIiSaIiEEEET_N9__gnu_cxx17__normal_iteratorIS6_T0_EE, symObjAddr: 0x5454, symBinAddr: 0x100005C8C, symSize: 0x20 }
  - { offset: 0x26B41, size: 0x8, addend: 0x0, symName: __ZN11__gnu_debug16_Error_formatter10_ParameterC1IPiNSt9__cxx19986vectorIiSaIiEEEEERKN9__gnu_cxx17__normal_iteratorIT_T0_EEPKcNS0_12_Is_iteratorE, symObjAddr: 0x53FC, symBinAddr: 0x100005C34, symSize: 0x58 }
  - { offset: 0x26BE1, size: 0x8, addend: 0x0, symName: __ZN11__gnu_debug16_Error_formatter10_ParameterC1IPKiNSt9__cxx19986vectorIiSaIiEEEEERKN9__gnu_cxx17__normal_iteratorIT_T0_EEPKcNS0_12_Is_iteratorE, symObjAddr: 0x53A4, symBinAddr: 0x100005BDC, symSize: 0x58 }
  - { offset: 0x26C37, size: 0x8, addend: 0x0, symName: __ZN11__gnu_debug17__valid_range_auxIN9__gnu_cxx17__normal_iteratorIPKiNSt9__cxx19986vectorIiSaIiEEEEEEEbT_SA_RNS_16_Distance_traitsISA_NSt12__is_integerISA_E6__typeEE6__typeESt12__false_type, symObjAddr: 0x52D0, symBinAddr: 0x100005B08, symSize: 0xD4 }
  - { offset: 0x26C92, size: 0x8, addend: 0x0, symName: __ZSt18uninitialized_copyIN9__gnu_cxx17__normal_iteratorIPKiNSt9__cxx19986vectorIiSaIiEEEEEPiET0_T_SB_SA_, symObjAddr: 0x5294, symBinAddr: 0x100005ACC, symSize: 0x3C }
  - { offset: 0x26D31, size: 0x8, addend: 0x0, symName: __ZSt27__uninitialized_default_n_aIPimiET_S1_T0_RSaIT1_E, symObjAddr: 0x526C, symBinAddr: 0x100005AA4, symSize: 0x28 }
  - { offset: 0x26D94, size: 0x8, addend: 0x0, symName: __ZNSt9__cxx199812_Vector_baseIiSaIiEE17_M_create_storageEm, symObjAddr: 0x520C, symBinAddr: 0x100005A44, symSize: 0x60 }
  - { offset: 0x26DF6, size: 0x8, addend: 0x0, symName: __ZNSt9__cxx199812_Vector_baseIiSaIiEE12_Vector_implC1ERKS1_, symObjAddr: 0x51C0, symBinAddr: 0x1000059F8, symSize: 0x4C }
  - { offset: 0x26E9C, size: 0x8, addend: 0x0, symName: __ZNSt9__cxx19986vectorIiSaIiEE11_S_max_sizeERKS1_, symObjAddr: 0x516C, symBinAddr: 0x1000059A4, symSize: 0x54 }
  - { offset: 0x26F53, size: 0x8, addend: 0x0, symName: __ZNSt20__uninitialized_copyILb0EE13__uninit_copyIPNSt7__debug6vectorIiSaIiEEES6_EET0_T_S8_S7_, symObjAddr: 0x5140, symBinAddr: 0x100005978, symSize: 0x2C }
  - { offset: 0x26FAE, size: 0x8, addend: 0x0, symName: __ZSt12__niter_wrapIPNSt7__debug6vectorIiSaIiEEEET_RKS5_S5_, symObjAddr: 0x5128, symBinAddr: 0x100005960, symSize: 0x18 }
  - { offset: 0x26FEA, size: 0x8, addend: 0x0, symName: __ZSt14__copy_move_a1ILb0EPNSt7__debug6vectorIiSaIiEEES4_ET1_T0_S6_S5_, symObjAddr: 0x50FC, symBinAddr: 0x100005934, symSize: 0x2C }
  - { offset: 0x27052, size: 0x8, addend: 0x0, symName: __ZSt12__niter_baseIPNSt7__debug6vectorIiSaIiEEEET_S5_, symObjAddr: 0x50E8, symBinAddr: 0x100005920, symSize: 0x14 }
  - { offset: 0x270CD, size: 0x8, addend: 0x0, symName: __ZN11__gnu_debug16_Error_formatter10_ParameterC1INSt7__debug6vectorIiSaIiEEEEERKPT_PKcNS0_12_Is_iteratorE, symObjAddr: 0x5038, symBinAddr: 0x100005870, symSize: 0xB0 }
  - { offset: 0x2711A, size: 0x8, addend: 0x0, symName: __ZN11__gnu_debug17__valid_range_auxIPNSt7__debug6vectorIiSaIiEEEEEbT_S6_RNS_16_Distance_traitsIS6_NSt12__is_integerIS6_E6__typeEE6__typeESt12__false_type, symObjAddr: 0x4F64, symBinAddr: 0x10000579C, symSize: 0xD4 }
  - { offset: 0x27175, size: 0x8, addend: 0x0, symName: __ZNSt12_Destroy_auxILb0EE9__destroyIN9__gnu_cxx17__normal_iteratorIPNSt7__debug6vectorIiSaIiEEENSt9__cxx19986vectorIS7_SaIS7_EEEEEEEvT_SE_, symObjAddr: 0x4F10, symBinAddr: 0x100005748, symSize: 0x54 }
  - { offset: 0x271B7, size: 0x8, addend: 0x0, symName: __ZSt12__niter_wrapIN9__gnu_cxx17__normal_iteratorIPNSt7__debug6vectorIiSaIiEEENSt9__cxx19986vectorIS5_SaIS5_EEEEES6_ET_SC_T0_, symObjAddr: 0x4EB4, symBinAddr: 0x1000056EC, symSize: 0x5C }
  - { offset: 0x27204, size: 0x8, addend: 0x0, symName: __ZSt14__copy_move_a1ILb0EPKNSt7__debug6vectorIiSaIiEEEPS3_ET1_T0_S8_S7_, symObjAddr: 0x4E88, symBinAddr: 0x1000056C0, symSize: 0x2C }
  - { offset: 0x2726C, size: 0x8, addend: 0x0, symName: __ZSt12__niter_baseIPNSt7__debug6vectorIiSaIiEEENSt9__cxx19986vectorIS3_SaIS3_EEEET_N9__gnu_cxx17__normal_iteratorIS9_T0_EE, symObjAddr: 0x4E68, symBinAddr: 0x1000056A0, symSize: 0x20 }
  - { offset: 0x272A8, size: 0x8, addend: 0x0, symName: __ZSt12__niter_baseIPKNSt7__debug6vectorIiSaIiEEENSt9__cxx19986vectorIS3_SaIS3_EEEET_N9__gnu_cxx17__normal_iteratorISA_T0_EE, symObjAddr: 0x4E48, symBinAddr: 0x100005680, symSize: 0x20 }
  - { offset: 0x27335, size: 0x8, addend: 0x0, symName: __ZN11__gnu_debug16_Error_formatter10_ParameterC1IPNSt7__debug6vectorIiSaIiEEENSt9__cxx19986vectorIS6_SaIS6_EEEEERKN9__gnu_cxx17__normal_iteratorIT_T0_EEPKcNS0_12_Is_iteratorE, symObjAddr: 0x4DF0, symBinAddr: 0x100005628, symSize: 0x58 }
  - { offset: 0x273D5, size: 0x8, addend: 0x0, symName: __ZN11__gnu_debug16_Error_formatter10_ParameterC1IPKNSt7__debug6vectorIiSaIiEEENSt9__cxx19986vectorIS6_SaIS6_EEEEERKN9__gnu_cxx17__normal_iteratorIT_T0_EEPKcNS0_12_Is_iteratorE, symObjAddr: 0x4D98, symBinAddr: 0x1000055D0, symSize: 0x58 }
  - { offset: 0x2742B, size: 0x8, addend: 0x0, symName: __ZN11__gnu_debug17__valid_range_auxIN9__gnu_cxx17__normal_iteratorIPKNSt7__debug6vectorIiSaIiEEENSt9__cxx19986vectorIS6_SaIS6_EEEEEEEbT_SE_RNS_16_Distance_traitsISE_NSt12__is_integerISE_E6__typeEE6__typeESt12__false_type, symObjAddr: 0x4CC4, symBinAddr: 0x1000054FC, symSize: 0xD4 }
  - { offset: 0x27486, size: 0x8, addend: 0x0, symName: __ZSt18uninitialized_copyIN9__gnu_cxx17__normal_iteratorIPKNSt7__debug6vectorIiSaIiEEENSt9__cxx19986vectorIS5_SaIS5_EEEEEPS5_ET0_T_SF_SE_, symObjAddr: 0x4C90, symBinAddr: 0x1000054C8, symSize: 0x34 }
  - { offset: 0x27525, size: 0x8, addend: 0x0, symName: __ZSt24__uninitialized_fill_n_aIPNSt7__debug6vectorIiSaIiEEEmS3_S3_ET_S5_T0_RKT1_RSaIT2_E, symObjAddr: 0x4C60, symBinAddr: 0x100005498, symSize: 0x30 }
  - { offset: 0x275A2, size: 0x8, addend: 0x0, symName: __ZNSt9__cxx199812_Vector_baseINSt7__debug6vectorIiSaIiEEESaIS4_EE17_M_create_storageEm, symObjAddr: 0x4BF4, symBinAddr: 0x10000542C, symSize: 0x6C }
  - { offset: 0x27604, size: 0x8, addend: 0x0, symName: __ZNSt9__cxx199812_Vector_baseINSt7__debug6vectorIiSaIiEEESaIS4_EE12_Vector_implC1ERKS5_, symObjAddr: 0x4BA8, symBinAddr: 0x1000053E0, symSize: 0x4C }
  - { offset: 0x276AA, size: 0x8, addend: 0x0, symName: __ZNSt9__cxx19986vectorINSt7__debug6vectorIiSaIiEEESaIS4_EE11_S_max_sizeERKS5_, symObjAddr: 0x4B44, symBinAddr: 0x10000537C, symSize: 0x64 }
  - { offset: 0x27765, size: 0x8, addend: 0x0, symName: __ZNKSt9__cxx19986vectorISt4pairIiiESaIS2_EE5emptyEv, symObjAddr: 0x4B0C, symBinAddr: 0x100005344, symSize: 0x38 }
  - { offset: 0x2778F, size: 0x8, addend: 0x0, symName: __ZNKSt7__debug6vectorISt4pairIiiESaIS2_EE8capacityEv, symObjAddr: 0x4AC8, symBinAddr: 0x100005300, symSize: 0x44 }
  - { offset: 0x277D3, size: 0x8, addend: 0x0, symName: __ZNSt9__cxx19986vectorISt4pairIiiESaIS2_EE4backEv, symObjAddr: 0x4A4C, symBinAddr: 0x100005284, symSize: 0x7C }
  - { offset: 0x27818, size: 0x8, addend: 0x0, symName: __ZNSt9__cxx19986vectorISt4pairIiiESaIS2_EE17_M_realloc_appendIJS2_EEEvDpOT_, symObjAddr: 0x4890, symBinAddr: 0x1000050C8, symSize: 0x1BC }
  - { offset: 0x2799D, size: 0x8, addend: 0x0, symName: __ZZNSt9__cxx19986vectorISt4pairIiiESaIS2_EE17_M_realloc_appendIJS2_EEEvDpOT_EN6_GuardC1EPS2_mRS3_, symObjAddr: 0x47EC, symBinAddr: 0x100005024, symSize: 0x44 }
  - { offset: 0x279E2, size: 0x8, addend: 0x0, symName: __ZZNSt9__cxx19986vectorISt4pairIiiESaIS2_EE17_M_realloc_appendIJS2_EEEvDpOT_EN6_GuardD1Ev, symObjAddr: 0x4830, symBinAddr: 0x100005068, symSize: 0x60 }
  - { offset: 0x27B15, size: 0x8, addend: 0x0, symName: __ZSt11__addressofIKNSt7__debug6vectorINS1_IiSaIiEEESaIS3_EEEEPT_RS7_, symObjAddr: 0x47D8, symBinAddr: 0x100005010, symSize: 0x14 }
  - { offset: 0x27B47, size: 0x8, addend: 0x0, symName: __ZSt11__addressofIKNSt7__debug6vectorIiSaIiEEEEPT_RS5_, symObjAddr: 0x47C4, symBinAddr: 0x100004FFC, symSize: 0x14 }
  - { offset: 0x27B79, size: 0x8, addend: 0x0, symName: __ZNSt12_Destroy_auxILb1EE9__destroyIPSt4pairIiiEEEvT_S5_, symObjAddr: 0x47AC, symBinAddr: 0x100004FE4, symSize: 0x18 }
  - { offset: 0x27BB1, size: 0x8, addend: 0x0, symName: __ZNSt15__new_allocatorISt4pairIiiEE10deallocateEPS1_m, symObjAddr: 0x477C, symBinAddr: 0x100004FB4, symSize: 0x30 }
  - { offset: 0x27BF7, size: 0x8, addend: 0x0, symName: __ZNSt12_Destroy_auxILb1EE9__destroyIPiEEvT_S3_, symObjAddr: 0x4764, symBinAddr: 0x100004F9C, symSize: 0x18 }
  - { offset: 0x27C2F, size: 0x8, addend: 0x0, symName: __ZNSt15__new_allocatorIiE10deallocateEPim, symObjAddr: 0x4734, symBinAddr: 0x100004F6C, symSize: 0x30 }
  - { offset: 0x27C75, size: 0x8, addend: 0x0, symName: __ZNSt12_Destroy_auxILb0EE9__destroyIPNSt7__debug6vectorIiSaIiEEEEEvT_S7_, symObjAddr: 0x46E8, symBinAddr: 0x100004F20, symSize: 0x4C }
  - { offset: 0x27CBB, size: 0x8, addend: 0x0, symName: __ZNSt15__new_allocatorINSt7__debug6vectorIiSaIiEEEE10deallocateEPS3_m, symObjAddr: 0x46AC, symBinAddr: 0x100004EE4, symSize: 0x3C }
  - { offset: 0x27D49, size: 0x8, addend: 0x0, symName: __ZN11__gnu_debug16_Error_formatter10_ParameterC1INSt7__debug6vectorISt4pairIiiESaIS6_EEEEERKT_PKcNS0_12_Is_sequenceE, symObjAddr: 0x4638, symBinAddr: 0x100004E70, symSize: 0x74 }
  - { offset: 0x27D93, size: 0x8, addend: 0x0, symName: __ZNKSt7__debug6vectorIiSaIiEE8capacityEv, symObjAddr: 0x45F4, symBinAddr: 0x100004E2C, symSize: 0x44 }
  - { offset: 0x27DD7, size: 0x8, addend: 0x0, symName: __ZNSt9__cxx19986vectorIiSaIiEE17_M_realloc_appendIJRKiEEEvDpOT_, symObjAddr: 0x4438, symBinAddr: 0x100004C70, symSize: 0x1BC }
  - { offset: 0x27F5C, size: 0x8, addend: 0x0, symName: __ZZNSt9__cxx19986vectorIiSaIiEE17_M_realloc_appendIJRKiEEEvDpOT_EN6_GuardC1EPimRS1_, symObjAddr: 0x4394, symBinAddr: 0x100004BCC, symSize: 0x44 }
  - { offset: 0x27FA1, size: 0x8, addend: 0x0, symName: __ZZNSt9__cxx19986vectorIiSaIiEE17_M_realloc_appendIJRKiEEEvDpOT_EN6_GuardD1Ev, symObjAddr: 0x43D8, symBinAddr: 0x100004C10, symSize: 0x60 }
  - { offset: 0x280D4, size: 0x8, addend: 0x0, symName: __ZSt18uninitialized_copyIPiS0_ET0_T_S2_S1_, symObjAddr: 0x4358, symBinAddr: 0x100004B90, symSize: 0x3C }
  - { offset: 0x2814F, size: 0x8, addend: 0x0, symName: __ZSt13__copy_move_aILb0EPiS0_ET1_T0_S2_S1_, symObjAddr: 0x42F8, symBinAddr: 0x100004B30, symSize: 0x60 }
  - { offset: 0x281B7, size: 0x8, addend: 0x0, symName: __ZSt12__miter_baseIPiET_S1_, symObjAddr: 0x42E4, symBinAddr: 0x100004B1C, symSize: 0x14 }
  - { offset: 0x281EA, size: 0x8, addend: 0x0, symName: __ZN11__gnu_debug13__can_advanceIPilEEbT_RKSt4pairIT0_NS_19_Distance_precisionEEi, symObjAddr: 0x42C8, symBinAddr: 0x100004B00, symSize: 0x1C }
  - { offset: 0x28234, size: 0x8, addend: 0x0, symName: __ZN11__gnu_debug16_Error_formatter11_M_iteratorIPiEERS0_RKT_PKc, symObjAddr: 0x422C, symBinAddr: 0x100004A64, symSize: 0x9C }
  - { offset: 0x28288, size: 0x8, addend: 0x0, symName: __ZN11__gnu_debug13__valid_rangeIPiEEbT_S2_RNS_16_Distance_traitsIS2_NSt12__is_integerIS2_E6__typeEE6__typeE, symObjAddr: 0x4200, symBinAddr: 0x100004A38, symSize: 0x2C }
  - { offset: 0x282DA, size: 0x8, addend: 0x0, symName: __ZSt8_DestroyIN9__gnu_cxx17__normal_iteratorIPiNSt9__cxx19986vectorIiSaIiEEEEEEvT_S8_, symObjAddr: 0x41D8, symBinAddr: 0x100004A10, symSize: 0x28 }
  - { offset: 0x2831C, size: 0x8, addend: 0x0, symName: __ZSt13__copy_move_aILb0EN9__gnu_cxx17__normal_iteratorIPKiNSt9__cxx19986vectorIiSaIiEEEEENS1_IPiS7_EEET1_T0_SC_SB_, symObjAddr: 0x4178, symBinAddr: 0x1000049B0, symSize: 0x60 }
  - { offset: 0x28384, size: 0x8, addend: 0x0, symName: __ZSt12__miter_baseIN9__gnu_cxx17__normal_iteratorIPKiNSt9__cxx19986vectorIiSaIiEEEEEET_S9_, symObjAddr: 0x4164, symBinAddr: 0x10000499C, symSize: 0x14 }
  - { offset: 0x283BB, size: 0x8, addend: 0x0, symName: __ZN11__gnu_debug16_Error_formatter11_M_iteratorIN9__gnu_cxx17__normal_iteratorIPiNSt9__cxx19986vectorIiSaIiEEEEEEERS0_RKT_PKc, symObjAddr: 0x40C8, symBinAddr: 0x100004900, symSize: 0x9C }
  - { offset: 0x2840F, size: 0x8, addend: 0x0, symName: __ZN11__gnu_debug13__can_advanceIN9__gnu_cxx17__normal_iteratorIPiNSt9__cxx19986vectorIiSaIiEEEEElEEbT_RKSt4pairIT0_NS_19_Distance_precisionEEi, symObjAddr: 0x40AC, symBinAddr: 0x1000048E4, symSize: 0x1C }
  - { offset: 0x28459, size: 0x8, addend: 0x0, symName: __ZN11__gnu_debug16_Error_formatter11_M_iteratorIN9__gnu_cxx17__normal_iteratorIPKiNSt9__cxx19986vectorIiSaIiEEEEEEERS0_RKT_PKc, symObjAddr: 0x4010, symBinAddr: 0x100004848, symSize: 0x9C }
  - { offset: 0x284AD, size: 0x8, addend: 0x0, symName: __ZN11__gnu_debug13__valid_rangeIN9__gnu_cxx17__normal_iteratorIPKiNSt9__cxx19986vectorIiSaIiEEEEEEEbT_SA_RNS_16_Distance_traitsISA_NSt12__is_integerISA_E6__typeEE6__typeE, symObjAddr: 0x3FE4, symBinAddr: 0x10000481C, symSize: 0x2C }
  - { offset: 0x2852B, size: 0x8, addend: 0x0, symName: __ZN9__gnu_cxx17__normal_iteratorIPiNSt9__cxx19986vectorIiSaIiEEEEC1ERKS1_, symObjAddr: 0x3FBC, symBinAddr: 0x1000047F4, symSize: 0x28 }
  - { offset: 0x28556, size: 0x8, addend: 0x0, symName: __ZSt22__uninitialized_copy_aIN9__gnu_cxx17__normal_iteratorIPKiNSt9__cxx19986vectorIiSaIiEEEEEPiiET0_T_SB_SA_RSaIT1_E, symObjAddr: 0x3F8C, symBinAddr: 0x1000047C4, symSize: 0x30 }
  - { offset: 0x285CA, size: 0x8, addend: 0x0, symName: __ZNSt9__cxx199812_Vector_baseIiSaIiEE11_M_allocateEm, symObjAddr: 0x3F3C, symBinAddr: 0x100004774, symSize: 0x50 }
  - { offset: 0x2865A, size: 0x8, addend: 0x0, symName: __ZN9__gnu_cxx17__normal_iteratorIPKiNSt9__cxx19986vectorIiSaIiEEEEC1ERKS2_, symObjAddr: 0x3F14, symBinAddr: 0x10000474C, symSize: 0x28 }
  - { offset: 0x28689, size: 0x8, addend: 0x0, symName: __ZNSt9__cxx19986vectorIiSaIiEE15_M_erase_at_endEPi, symObjAddr: 0x3E8C, symBinAddr: 0x1000046C4, symSize: 0x88 }
  - { offset: 0x2871E, size: 0x8, addend: 0x0, symName: __ZNSt9__cxx19986vectorIiSaIiEE21_M_default_initializeEm, symObjAddr: 0x3E3C, symBinAddr: 0x100004674, symSize: 0x50 }
  - { offset: 0x2878F, size: 0x8, addend: 0x0, symName: __ZNSt9__cxx199812_Vector_baseIiSaIiEEC2EmRKS1_, symObjAddr: 0x3DE8, symBinAddr: 0x100004620, symSize: 0x54 }
  - { offset: 0x287C3, size: 0x8, addend: 0x0, symName: __ZNSt9__cxx19986vectorIiSaIiEE17_S_check_init_lenEmRKS1_, symObjAddr: 0x3D64, symBinAddr: 0x10000459C, symSize: 0x84 }
  - { offset: 0x28875, size: 0x8, addend: 0x0, symName: __ZSt18uninitialized_copyIPNSt7__debug6vectorIiSaIiEEES4_ET0_T_S6_S5_, symObjAddr: 0x3D30, symBinAddr: 0x100004568, symSize: 0x34 }
  - { offset: 0x288F0, size: 0x8, addend: 0x0, symName: __ZSt13__copy_move_aILb0EPNSt7__debug6vectorIiSaIiEEES4_ET1_T0_S6_S5_, symObjAddr: 0x3CD0, symBinAddr: 0x100004508, symSize: 0x60 }
  - { offset: 0x28958, size: 0x8, addend: 0x0, symName: __ZSt12__miter_baseIPNSt7__debug6vectorIiSaIiEEEET_S5_, symObjAddr: 0x3CBC, symBinAddr: 0x1000044F4, symSize: 0x14 }
  - { offset: 0x2898B, size: 0x8, addend: 0x0, symName: __ZN11__gnu_debug13__can_advanceIPNSt7__debug6vectorIiSaIiEEElEEbT_RKSt4pairIT0_NS_19_Distance_precisionEEi, symObjAddr: 0x3CA0, symBinAddr: 0x1000044D8, symSize: 0x1C }
  - { offset: 0x289D5, size: 0x8, addend: 0x0, symName: __ZN11__gnu_debug16_Error_formatter11_M_iteratorIPNSt7__debug6vectorIiSaIiEEEEERS0_RKT_PKc, symObjAddr: 0x3C04, symBinAddr: 0x10000443C, symSize: 0x9C }
  - { offset: 0x28A29, size: 0x8, addend: 0x0, symName: __ZN11__gnu_debug13__valid_rangeIPNSt7__debug6vectorIiSaIiEEEEEbT_S6_RNS_16_Distance_traitsIS6_NSt12__is_integerIS6_E6__typeEE6__typeE, symObjAddr: 0x3BD8, symBinAddr: 0x100004410, symSize: 0x2C }
  - { offset: 0x28A7B, size: 0x8, addend: 0x0, symName: __ZSt8_DestroyIN9__gnu_cxx17__normal_iteratorIPNSt7__debug6vectorIiSaIiEEENSt9__cxx19986vectorIS5_SaIS5_EEEEEEvT_SC_, symObjAddr: 0x3BB0, symBinAddr: 0x1000043E8, symSize: 0x28 }
  - { offset: 0x28ABD, size: 0x8, addend: 0x0, symName: __ZSt13__copy_move_aILb0EN9__gnu_cxx17__normal_iteratorIPKNSt7__debug6vectorIiSaIiEEENSt9__cxx19986vectorIS5_SaIS5_EEEEENS1_IPS5_SB_EEET1_T0_SG_SF_, symObjAddr: 0x3B50, symBinAddr: 0x100004388, symSize: 0x60 }
  - { offset: 0x28B25, size: 0x8, addend: 0x0, symName: __ZSt12__miter_baseIN9__gnu_cxx17__normal_iteratorIPKNSt7__debug6vectorIiSaIiEEENSt9__cxx19986vectorIS5_SaIS5_EEEEEET_SD_, symObjAddr: 0x3B3C, symBinAddr: 0x100004374, symSize: 0x14 }
  - { offset: 0x28B5C, size: 0x8, addend: 0x0, symName: __ZN11__gnu_debug16_Error_formatter11_M_iteratorIN9__gnu_cxx17__normal_iteratorIPNSt7__debug6vectorIiSaIiEEENSt9__cxx19986vectorIS7_SaIS7_EEEEEEERS0_RKT_PKc, symObjAddr: 0x3AA0, symBinAddr: 0x1000042D8, symSize: 0x9C }
  - { offset: 0x28BB0, size: 0x8, addend: 0x0, symName: __ZN11__gnu_debug13__can_advanceIN9__gnu_cxx17__normal_iteratorIPNSt7__debug6vectorIiSaIiEEENSt9__cxx19986vectorIS6_SaIS6_EEEEElEEbT_RKSt4pairIT0_NS_19_Distance_precisionEEi, symObjAddr: 0x3A84, symBinAddr: 0x1000042BC, symSize: 0x1C }
  - { offset: 0x28BFA, size: 0x8, addend: 0x0, symName: __ZN11__gnu_debug16_Error_formatter11_M_iteratorIN9__gnu_cxx17__normal_iteratorIPKNSt7__debug6vectorIiSaIiEEENSt9__cxx19986vectorIS7_SaIS7_EEEEEEERS0_RKT_PKc, symObjAddr: 0x39E8, symBinAddr: 0x100004220, symSize: 0x9C }
  - { offset: 0x28C4E, size: 0x8, addend: 0x0, symName: __ZN11__gnu_debug13__valid_rangeIN9__gnu_cxx17__normal_iteratorIPKNSt7__debug6vectorIiSaIiEEENSt9__cxx19986vectorIS6_SaIS6_EEEEEEEbT_SE_RNS_16_Distance_traitsISE_NSt12__is_integerISE_E6__typeEE6__typeE, symObjAddr: 0x39BC, symBinAddr: 0x1000041F4, symSize: 0x2C }
  - { offset: 0x28CCC, size: 0x8, addend: 0x0, symName: __ZN9__gnu_cxx17__normal_iteratorIPNSt7__debug6vectorIiSaIiEEENSt9__cxx19986vectorIS4_SaIS4_EEEEC1ERKS5_, symObjAddr: 0x3994, symBinAddr: 0x1000041CC, symSize: 0x28 }
  - { offset: 0x28CF7, size: 0x8, addend: 0x0, symName: __ZSt22__uninitialized_copy_aIN9__gnu_cxx17__normal_iteratorIPKNSt7__debug6vectorIiSaIiEEENSt9__cxx19986vectorIS5_SaIS5_EEEEEPS5_S5_ET0_T_SF_SE_RSaIT1_E, symObjAddr: 0x3964, symBinAddr: 0x10000419C, symSize: 0x30 }
  - { offset: 0x28D6B, size: 0x8, addend: 0x0, symName: __ZNSt9__cxx199812_Vector_baseINSt7__debug6vectorIiSaIiEEESaIS4_EE11_M_allocateEm, symObjAddr: 0x3914, symBinAddr: 0x10000414C, symSize: 0x50 }
  - { offset: 0x28DFB, size: 0x8, addend: 0x0, symName: __ZN9__gnu_cxx17__normal_iteratorIPKNSt7__debug6vectorIiSaIiEEENSt9__cxx19986vectorIS4_SaIS4_EEEEC1ERKS6_, symObjAddr: 0x38EC, symBinAddr: 0x100004124, symSize: 0x28 }
  - { offset: 0x28E2A, size: 0x8, addend: 0x0, symName: __ZNSt9__cxx19986vectorINSt7__debug6vectorIiSaIiEEESaIS4_EE15_M_erase_at_endEPS4_, symObjAddr: 0x3850, symBinAddr: 0x100004088, symSize: 0x9C }
  - { offset: 0x28EBF, size: 0x8, addend: 0x0, symName: __ZNSt9__cxx19986vectorINSt7__debug6vectorIiSaIiEEESaIS4_EE18_M_fill_initializeEmRKS4_, symObjAddr: 0x37F8, symBinAddr: 0x100004030, symSize: 0x58 }
  - { offset: 0x28F41, size: 0x8, addend: 0x0, symName: __ZNSt9__cxx199812_Vector_baseINSt7__debug6vectorIiSaIiEEESaIS4_EEC2EmRKS5_, symObjAddr: 0x37A4, symBinAddr: 0x100003FDC, symSize: 0x54 }
  - { offset: 0x28F75, size: 0x8, addend: 0x0, symName: __ZNSt9__cxx19986vectorINSt7__debug6vectorIiSaIiEEESaIS4_EE17_S_check_init_lenEmRKS5_, symObjAddr: 0x3720, symBinAddr: 0x100003F58, symSize: 0x84 }
  - { offset: 0x2902B, size: 0x8, addend: 0x0, symName: __ZNSt9__cxx19986vectorISt4pairIiiESaIS2_EE15_M_erase_at_endEPS2_, symObjAddr: 0x3698, symBinAddr: 0x100003ED0, symSize: 0x88 }
  - { offset: 0x290C0, size: 0x8, addend: 0x0, symName: __ZNSt7__debug6vectorISt4pairIiiESaIS2_EE4backEv, symObjAddr: 0x3614, symBinAddr: 0x100003E4C, symSize: 0x84 }
  - { offset: 0x29105, size: 0x8, addend: 0x0, symName: __ZNK11__gnu_debug12_Safe_vectorINSt7__debug6vectorISt4pairIiiESaIS4_EEENSt9__cxx19986vectorIS4_S5_EEE24_M_requires_reallocationEm, symObjAddr: 0x35DC, symBinAddr: 0x100003E14, symSize: 0x38 }
  - { offset: 0x2913F, size: 0x8, addend: 0x0, symName: __ZNSt9__cxx19986vectorISt4pairIiiESaIS2_EE12emplace_backIJS2_EEERS2_DpOT_, symObjAddr: 0x3504, symBinAddr: 0x100003D3C, symSize: 0xD8 }
  - { offset: 0x291F1, size: 0x8, addend: 0x0, symName: __ZSt7forwardISt4pairIiiEEOT_RNSt16remove_referenceIS2_E4typeE, symObjAddr: 0x34F0, symBinAddr: 0x100003D28, symSize: 0x14 }
  - { offset: 0x2926B, size: 0x8, addend: 0x0, symName: __ZN11__gnu_debug16_Error_formatter10_ParameterC1INSt7__debug6vectorINS4_IiSaIiEEESaIS6_EEEEERKT_PKcNS0_12_Is_sequenceE, symObjAddr: 0x347C, symBinAddr: 0x100003CB4, symSize: 0x74 }
  - { offset: 0x292F9, size: 0x8, addend: 0x0, symName: __ZN11__gnu_debug16_Error_formatter10_ParameterC1INSt7__debug6vectorIiSaIiEEEEERKT_PKcNS0_12_Is_sequenceE, symObjAddr: 0x3408, symBinAddr: 0x100003C40, symSize: 0x74 }
  - { offset: 0x29343, size: 0x8, addend: 0x0, symName: __ZNK11__gnu_debug12_Safe_vectorINSt7__debug6vectorISt4pairIiiESaIS4_EEENSt9__cxx19986vectorIS4_S5_EEE6_M_seqEv, symObjAddr: 0x33F0, symBinAddr: 0x100003C28, symSize: 0x18 }
  - { offset: 0x29369, size: 0x8, addend: 0x0, symName: __ZSt8_DestroyIPSt4pairIiiEEvT_S3_, symObjAddr: 0x33C8, symBinAddr: 0x100003C00, symSize: 0x28 }
  - { offset: 0x293F7, size: 0x8, addend: 0x0, symName: __ZNK11__gnu_debug12_Safe_vectorINSt7__debug6vectorIiSaIiEEENSt9__cxx19986vectorIiS3_EEE6_M_seqEv, symObjAddr: 0x33B0, symBinAddr: 0x100003BE8, symSize: 0x18 }
  - { offset: 0x2941D, size: 0x8, addend: 0x0, symName: __ZSt8_DestroyIPiEvT_S1_, symObjAddr: 0x3388, symBinAddr: 0x100003BC0, symSize: 0x28 }
  - { offset: 0x29495, size: 0x8, addend: 0x0, symName: __ZNK11__gnu_debug12_Safe_vectorINSt7__debug6vectorINS2_IiSaIiEEESaIS4_EEENSt9__cxx19986vectorIS4_S5_EEE6_M_seqEv, symObjAddr: 0x3370, symBinAddr: 0x100003BA8, symSize: 0x18 }
  - { offset: 0x294BB, size: 0x8, addend: 0x0, symName: __ZSt8_DestroyIPNSt7__debug6vectorIiSaIiEEEEvT_S5_, symObjAddr: 0x3348, symBinAddr: 0x100003B80, symSize: 0x28 }
  - { offset: 0x29533, size: 0x8, addend: 0x0, symName: __ZNSt9__cxx19986vectorISt4pairIiiESaIS2_EEixEm, symObjAddr: 0x32C4, symBinAddr: 0x100003AFC, symSize: 0x84 }
  - { offset: 0x29589, size: 0x8, addend: 0x0, symName: __ZN11__gnu_debug16_Error_formatter11_M_sequenceINSt7__debug6vectorISt4pairIiiESaIS5_EEEEERS0_RKT_PKc, symObjAddr: 0x3228, symBinAddr: 0x100003A60, symSize: 0x9C }
  - { offset: 0x295E1, size: 0x8, addend: 0x0, symName: __ZNK11__gnu_debug12_Safe_vectorINSt7__debug6vectorIiSaIiEEENSt9__cxx19986vectorIiS3_EEE24_M_requires_reallocationEm, symObjAddr: 0x31F0, symBinAddr: 0x100003A28, symSize: 0x38 }
  - { offset: 0x2961B, size: 0x8, addend: 0x0, symName: __ZNSt9__cxx19986vectorIiSaIiEE9push_backERKi, symObjAddr: 0x3128, symBinAddr: 0x100003960, symSize: 0xC8 }
  - { offset: 0x296BE, size: 0x8, addend: 0x0, symName: __ZSt22__uninitialized_copy_aIPiS0_iET0_T_S2_S1_RSaIT1_E, symObjAddr: 0x30F8, symBinAddr: 0x100003930, symSize: 0x30 }
  - { offset: 0x2972E, size: 0x8, addend: 0x0, symName: __ZSt4copyIPiS0_ET0_T_S2_S1_, symObjAddr: 0x2F98, symBinAddr: 0x1000037D0, symSize: 0x160 }
  - { offset: 0x2980A, size: 0x8, addend: 0x0, symName: __ZNSt9__cxx19986vectorIiSaIiEE3endEv, symObjAddr: 0x2F70, symBinAddr: 0x1000037A8, symSize: 0x28 }
  - { offset: 0x29830, size: 0x8, addend: 0x0, symName: __ZSt4copyIN9__gnu_cxx17__normal_iteratorIPKiNSt9__cxx19986vectorIiSaIiEEEEENS1_IPiS7_EEET0_T_SC_SB_, symObjAddr: 0x2E0C, symBinAddr: 0x100003644, symSize: 0x164 }
  - { offset: 0x298D1, size: 0x8, addend: 0x0, symName: __ZNSt9__cxx19986vectorIiSaIiEE5beginEv, symObjAddr: 0x2DE8, symBinAddr: 0x100003620, symSize: 0x24 }
  - { offset: 0x298FB, size: 0x8, addend: 0x0, symName: __ZNSt9__cxx19986vectorIiSaIiEE20_M_allocate_and_copyIN9__gnu_cxx17__normal_iteratorIPKiS2_EEEEPimT_SA_, symObjAddr: 0x2D64, symBinAddr: 0x10000359C, symSize: 0x84 }
  - { offset: 0x29972, size: 0x8, addend: 0x0, symName: __ZNKSt9__cxx19986vectorIiSaIiEE3endEv, symObjAddr: 0x2D3C, symBinAddr: 0x100003574, symSize: 0x28 }
  - { offset: 0x2999C, size: 0x8, addend: 0x0, symName: __ZNKSt9__cxx19986vectorIiSaIiEE5beginEv, symObjAddr: 0x2D18, symBinAddr: 0x100003550, symSize: 0x24 }
  - { offset: 0x299C6, size: 0x8, addend: 0x0, symName: __ZNKSt9__cxx19986vectorIiSaIiEE8capacityEv, symObjAddr: 0x2CF0, symBinAddr: 0x100003528, symSize: 0x28 }
  - { offset: 0x29A1D, size: 0x8, addend: 0x0, symName: __ZNSt9__cxx19986vectorIiSaIiEE5clearEv, symObjAddr: 0x2CC4, symBinAddr: 0x1000034FC, symSize: 0x2C }
  - { offset: 0x29A59, size: 0x8, addend: 0x0, symName: __ZNKSt9__cxx199812_Vector_baseIiSaIiEE19_M_get_Tp_allocatorEv, symObjAddr: 0x2CB0, symBinAddr: 0x1000034E8, symSize: 0x14 }
  - { offset: 0x29AAA, size: 0x8, addend: 0x0, symName: __ZN11__gnu_debug12_Safe_vectorINSt7__debug6vectorIiSaIiEEENSt9__cxx19986vectorIiS3_EEEC2Em, symObjAddr: 0x2C8C, symBinAddr: 0x1000034C4, symSize: 0x24 }
  - { offset: 0x29B0F, size: 0x8, addend: 0x0, symName: __ZNSt9__cxx19986vectorIiSaIiEEC2EmRKS1_, symObjAddr: 0x2C24, symBinAddr: 0x10000345C, symSize: 0x68 }
  - { offset: 0x29B59, size: 0x8, addend: 0x0, symName: __ZSt22__uninitialized_copy_aIPNSt7__debug6vectorIiSaIiEEES4_S3_ET0_T_S6_S5_RSaIT1_E, symObjAddr: 0x2BF4, symBinAddr: 0x10000342C, symSize: 0x30 }
  - { offset: 0x29BC9, size: 0x8, addend: 0x0, symName: __ZSt4copyIPNSt7__debug6vectorIiSaIiEEES4_ET0_T_S6_S5_, symObjAddr: 0x2A94, symBinAddr: 0x1000032CC, symSize: 0x160 }
  - { offset: 0x29CA5, size: 0x8, addend: 0x0, symName: __ZNSt9__cxx19986vectorINSt7__debug6vectorIiSaIiEEESaIS4_EE3endEv, symObjAddr: 0x2A6C, symBinAddr: 0x1000032A4, symSize: 0x28 }
  - { offset: 0x29CCB, size: 0x8, addend: 0x0, symName: __ZSt4copyIN9__gnu_cxx17__normal_iteratorIPKNSt7__debug6vectorIiSaIiEEENSt9__cxx19986vectorIS5_SaIS5_EEEEENS1_IPS5_SB_EEET0_T_SG_SF_, symObjAddr: 0x2908, symBinAddr: 0x100003140, symSize: 0x164 }
  - { offset: 0x29D6E, size: 0x8, addend: 0x0, symName: __ZNSt9__cxx19986vectorINSt7__debug6vectorIiSaIiEEESaIS4_EE5beginEv, symObjAddr: 0x28E4, symBinAddr: 0x10000311C, symSize: 0x24 }
  - { offset: 0x29D98, size: 0x8, addend: 0x0, symName: __ZNSt9__cxx19986vectorINSt7__debug6vectorIiSaIiEEESaIS4_EE20_M_allocate_and_copyIN9__gnu_cxx17__normal_iteratorIPKS4_S6_EEEEPS4_mT_SE_, symObjAddr: 0x2860, symBinAddr: 0x100003098, symSize: 0x84 }
  - { offset: 0x29E0F, size: 0x8, addend: 0x0, symName: __ZNKSt9__cxx19986vectorINSt7__debug6vectorIiSaIiEEESaIS4_EE3endEv, symObjAddr: 0x2838, symBinAddr: 0x100003070, symSize: 0x28 }
  - { offset: 0x29E39, size: 0x8, addend: 0x0, symName: __ZNKSt9__cxx19986vectorINSt7__debug6vectorIiSaIiEEESaIS4_EE5beginEv, symObjAddr: 0x2814, symBinAddr: 0x10000304C, symSize: 0x24 }
  - { offset: 0x29E63, size: 0x8, addend: 0x0, symName: __ZNKSt9__cxx19986vectorINSt7__debug6vectorIiSaIiEEESaIS4_EE8capacityEv, symObjAddr: 0x27D8, symBinAddr: 0x100003010, symSize: 0x3C }
  - { offset: 0x29EBA, size: 0x8, addend: 0x0, symName: __ZNSt9__cxx19986vectorINSt7__debug6vectorIiSaIiEEESaIS4_EE5clearEv, symObjAddr: 0x27AC, symBinAddr: 0x100002FE4, symSize: 0x2C }
  - { offset: 0x29EF6, size: 0x8, addend: 0x0, symName: __ZNKSt9__cxx199812_Vector_baseINSt7__debug6vectorIiSaIiEEESaIS4_EE19_M_get_Tp_allocatorEv, symObjAddr: 0x2798, symBinAddr: 0x100002FD0, symSize: 0x14 }
  - { offset: 0x29F64, size: 0x8, addend: 0x0, symName: __ZNSt9__cxx19986vectorINSt7__debug6vectorIiSaIiEEESaIS4_EEC2EmRKS4_RKS5_, symObjAddr: 0x2728, symBinAddr: 0x100002F60, symSize: 0x70 }
  - { offset: 0x29FBB, size: 0x8, addend: 0x0, symName: __ZNSt9__cxx19986vectorISt4pairIiiESaIS2_EE5clearEv, symObjAddr: 0x26FC, symBinAddr: 0x100002F34, symSize: 0x2C }
  - { offset: 0x29FE8, size: 0x8, addend: 0x0, symName: __ZSt7forwardIRiEOT_RNSt16remove_referenceIS1_E4typeE, symObjAddr: 0x26E8, symBinAddr: 0x100002F20, symSize: 0x14 }
  - { offset: 0x2A01E, size: 0x8, addend: 0x0, symName: __ZNSt7__debug6vectorISt4pairIiiESaIS2_EE12emplace_backIJS2_EEERS2_DpOT_, symObjAddr: 0x2624, symBinAddr: 0x100002E5C, symSize: 0xC4 }
  - { offset: 0x2A091, size: 0x8, addend: 0x0, symName: __ZSt4moveIRSt4pairIiiEEONSt16remove_referenceIT_E4typeEOS4_, symObjAddr: 0x2610, symBinAddr: 0x100002E48, symSize: 0x14 }
  - { offset: 0x2A0C7, size: 0x8, addend: 0x0, symName: __ZNSt9__cxx19986vectorINSt7__debug6vectorIiSaIiEEESaIS4_EEixEm, symObjAddr: 0x2580, symBinAddr: 0x100002DB8, symSize: 0x90 }
  - { offset: 0x2A11F, size: 0x8, addend: 0x0, symName: __ZN11__gnu_debug16_Error_formatter11_M_sequenceINSt7__debug6vectorINS3_IiSaIiEEESaIS5_EEEEERS0_RKT_PKc, symObjAddr: 0x24E4, symBinAddr: 0x100002D1C, symSize: 0x9C }
  - { offset: 0x2A177, size: 0x8, addend: 0x0, symName: __ZNKSt9__cxx19986vectorINSt7__debug6vectorIiSaIiEEESaIS4_EE4sizeEv, symObjAddr: 0x24A8, symBinAddr: 0x100002CE0, symSize: 0x3C }
  - { offset: 0x2A1A1, size: 0x8, addend: 0x0, symName: __ZNSt9__cxx19986vectorIiSaIiEEixEm, symObjAddr: 0x2424, symBinAddr: 0x100002C5C, symSize: 0x84 }
  - { offset: 0x2A1F7, size: 0x8, addend: 0x0, symName: __ZN11__gnu_debug16_Error_formatter11_M_sequenceINSt7__debug6vectorIiSaIiEEEEERS0_RKT_PKc, symObjAddr: 0x2388, symBinAddr: 0x100002BC0, symSize: 0x9C }
  - { offset: 0x2A24F, size: 0x8, addend: 0x0, symName: __ZN11__gnu_debug12_Safe_vectorINSt7__debug6vectorISt4pairIiiESaIS4_EEENSt9__cxx19986vectorIS4_S5_EEE29_M_update_guaranteed_capacityEv, symObjAddr: 0x2320, symBinAddr: 0x100002B58, symSize: 0x68 }
  - { offset: 0x2A2B4, size: 0x8, addend: 0x0, symName: __ZNSt9__cxx199812_Vector_baseISt4pairIiiESaIS2_EE19_M_get_Tp_allocatorEv, symObjAddr: 0x230C, symBinAddr: 0x100002B44, symSize: 0x14 }
  - { offset: 0x2A2DE, size: 0x8, addend: 0x0, symName: __ZNSt9__cxx199812_Vector_baseISt4pairIiiESaIS2_EE13_M_deallocateEPS2_m, symObjAddr: 0x22B4, symBinAddr: 0x100002AEC, symSize: 0x58 }
  - { offset: 0x2A384, size: 0x8, addend: 0x0, symName: __ZNSt15__new_allocatorISt4pairIiiEED2Ev, symObjAddr: 0x22A0, symBinAddr: 0x100002AD8, symSize: 0x14 }
  - { offset: 0x2A3C4, size: 0x8, addend: 0x0, symName: __ZNSt9__cxx199812_Vector_baseISt4pairIiiESaIS2_EE17_Vector_impl_dataC2Ev, symObjAddr: 0x2274, symBinAddr: 0x100002AAC, symSize: 0x2C }
  - { offset: 0x2A400, size: 0x8, addend: 0x0, symName: __ZN11__gnu_debug12_Safe_vectorINSt7__debug6vectorIiSaIiEEENSt9__cxx19986vectorIiS3_EEE29_M_update_guaranteed_capacityEv, symObjAddr: 0x220C, symBinAddr: 0x100002A44, symSize: 0x68 }
  - { offset: 0x2A465, size: 0x8, addend: 0x0, symName: __ZNSt9__cxx199812_Vector_baseIiSaIiEE19_M_get_Tp_allocatorEv, symObjAddr: 0x21F8, symBinAddr: 0x100002A30, symSize: 0x14 }
  - { offset: 0x2A48F, size: 0x8, addend: 0x0, symName: __ZNSt9__cxx199812_Vector_baseIiSaIiEE13_M_deallocateEPim, symObjAddr: 0x21A0, symBinAddr: 0x1000029D8, symSize: 0x58 }
  - { offset: 0x2A535, size: 0x8, addend: 0x0, symName: __ZNSt15__new_allocatorIiED2Ev, symObjAddr: 0x218C, symBinAddr: 0x1000029C4, symSize: 0x14 }
  - { offset: 0x2A575, size: 0x8, addend: 0x0, symName: __ZNSt9__cxx199812_Vector_baseIiSaIiEE17_Vector_impl_dataC2Ev, symObjAddr: 0x2160, symBinAddr: 0x100002998, symSize: 0x2C }
  - { offset: 0x2A59B, size: 0x8, addend: 0x0, symName: __ZN11__gnu_debug12_Safe_vectorINSt7__debug6vectorINS2_IiSaIiEEESaIS4_EEENSt9__cxx19986vectorIS4_S5_EEE29_M_update_guaranteed_capacityEv, symObjAddr: 0x20F8, symBinAddr: 0x100002930, symSize: 0x68 }
  - { offset: 0x2A600, size: 0x8, addend: 0x0, symName: __ZNSt9__cxx199812_Vector_baseINSt7__debug6vectorIiSaIiEEESaIS4_EE19_M_get_Tp_allocatorEv, symObjAddr: 0x20E4, symBinAddr: 0x10000291C, symSize: 0x14 }
  - { offset: 0x2A62A, size: 0x8, addend: 0x0, symName: __ZNSt9__cxx199812_Vector_baseINSt7__debug6vectorIiSaIiEEESaIS4_EE13_M_deallocateEPS4_m, symObjAddr: 0x208C, symBinAddr: 0x1000028C4, symSize: 0x58 }
  - { offset: 0x2A6D0, size: 0x8, addend: 0x0, symName: __ZNSt15__new_allocatorINSt7__debug6vectorIiSaIiEEEED2Ev, symObjAddr: 0x2078, symBinAddr: 0x1000028B0, symSize: 0x14 }
  - { offset: 0x2A710, size: 0x8, addend: 0x0, symName: __ZNSt9__cxx199812_Vector_baseINSt7__debug6vectorIiSaIiEEESaIS4_EE17_Vector_impl_dataC2Ev, symObjAddr: 0x204C, symBinAddr: 0x100002884, symSize: 0x2C }
  - { offset: 0x2A736, size: 0x8, addend: 0x0, symName: __ZNSt7__debug6vectorISt4pairIiiESaIS2_EEixEm, symObjAddr: 0x1F68, symBinAddr: 0x1000027A0, symSize: 0xE4 }
  - { offset: 0x2A78E, size: 0x8, addend: 0x0, symName: __ZNKSt9__cxx19986vectorISt4pairIiiESaIS2_EE4sizeEv, symObjAddr: 0x1F40, symBinAddr: 0x100002778, symSize: 0x28 }
  - { offset: 0x2A7B8, size: 0x8, addend: 0x0, symName: __ZNSt7__debug6vectorIiSaIiEE9push_backERKi, symObjAddr: 0x1EA0, symBinAddr: 0x1000026D8, symSize: 0xA0 }
  - { offset: 0x2A81E, size: 0x8, addend: 0x0, symName: __ZN11__gnu_debug12_Safe_vectorINSt7__debug6vectorIiSaIiEEENSt9__cxx19986vectorIiS3_EEEaSERKS8_, symObjAddr: 0x1E7C, symBinAddr: 0x1000026B4, symSize: 0x24 }
  - { offset: 0x2A851, size: 0x8, addend: 0x0, symName: __ZNSt9__cxx19986vectorIiSaIiEEaSERKS2_, symObjAddr: 0x1B34, symBinAddr: 0x10000236C, symSize: 0x348 }
  - { offset: 0x2A9D5, size: 0x8, addend: 0x0, symName: __ZSt11__addressofIKNSt9__cxx19986vectorIiSaIiEEEEPT_RS5_, symObjAddr: 0x1B20, symBinAddr: 0x100002358, symSize: 0x14 }
  - { offset: 0x2AA0B, size: 0x8, addend: 0x0, symName: __ZN11__gnu_debug15_Safe_containerINSt7__debug6vectorIiSaIiEEES3_NS_14_Safe_sequenceELb1EEaSERKS6_, symObjAddr: 0x1AE4, symBinAddr: 0x10000231C, symSize: 0x3C }
  - { offset: 0x2AA8B, size: 0x8, addend: 0x0, symName: __ZNSt7__debug6vectorIiSaIiEEC1EmRKS1_, symObjAddr: 0x1A7C, symBinAddr: 0x1000022B4, symSize: 0x68 }
  - { offset: 0x2AAD9, size: 0x8, addend: 0x0, symName: __ZN11__gnu_debug12_Safe_vectorINSt7__debug6vectorINS2_IiSaIiEEESaIS4_EEENSt9__cxx19986vectorIS4_S5_EEEaSERKSA_, symObjAddr: 0x1A58, symBinAddr: 0x100002290, symSize: 0x24 }
  - { offset: 0x2AB0C, size: 0x8, addend: 0x0, symName: __ZNSt9__cxx19986vectorINSt7__debug6vectorIiSaIiEEESaIS4_EEaSERKS6_, symObjAddr: 0x16B0, symBinAddr: 0x100001EE8, symSize: 0x3A8 }
  - { offset: 0x2AC90, size: 0x8, addend: 0x0, symName: __ZSt11__addressofIKNSt9__cxx19986vectorINSt7__debug6vectorIiSaIiEEESaIS5_EEEEPT_RS9_, symObjAddr: 0x169C, symBinAddr: 0x100001ED4, symSize: 0x14 }
  - { offset: 0x2ACC6, size: 0x8, addend: 0x0, symName: __ZN11__gnu_debug15_Safe_containerINSt7__debug6vectorINS2_IiSaIiEEESaIS4_EEES5_NS_14_Safe_sequenceELb1EEaSERKS8_, symObjAddr: 0x1660, symBinAddr: 0x100001E98, symSize: 0x3C }
  - { offset: 0x2AD53, size: 0x8, addend: 0x0, symName: __ZNSt7__debug6vectorINS0_IiSaIiEEESaIS2_EEC1EmRKS2_RKS3_, symObjAddr: 0x15F4, symBinAddr: 0x100001E2C, symSize: 0x6C }
  - { offset: 0x2ADAA, size: 0x8, addend: 0x0, symName: __ZNSt7__debug6vectorISt4pairIiiESaIS2_EE5clearEv, symObjAddr: 0x15B0, symBinAddr: 0x100001DE8, symSize: 0x44 }
  - { offset: 0x2AE36, size: 0x8, addend: 0x0, symName: __ZNSt4pairIiiEC1IiRiLb1EEEOT_OT0_, symObjAddr: 0x1568, symBinAddr: 0x100001DA0, symSize: 0x48 }
  - { offset: 0x2AE80, size: 0x8, addend: 0x0, symName: __ZNSt7__debug6vectorISt4pairIiiESaIS2_EE9push_backIS2_EEN9__gnu_cxx11__enable_ifIXntsrSt10__are_sameIT_bE7__valueEvE6__typeEOS2_, symObjAddr: 0x1538, symBinAddr: 0x100001D70, symSize: 0x30 }
  - { offset: 0x2AF0C, size: 0x8, addend: 0x0, symName: __ZNSt4pairIiiEC1IiiLb1EEEOT_OT0_, symObjAddr: 0x14F0, symBinAddr: 0x100001D28, symSize: 0x48 }
  - { offset: 0x2AF56, size: 0x8, addend: 0x0, symName: __ZNKSt9__cxx19986vectorIiSaIiEE4sizeEv, symObjAddr: 0x14C8, symBinAddr: 0x100001D00, symSize: 0x28 }
  - { offset: 0x2AF80, size: 0x8, addend: 0x0, symName: __ZNSt7__debug6vectorINS0_IiSaIiEEESaIS2_EEixEm, symObjAddr: 0x13E4, symBinAddr: 0x100001C1C, symSize: 0xE4 }
  - { offset: 0x2AFD8, size: 0x8, addend: 0x0, symName: __ZNSt7__debug6vectorIiSaIiEEixEm, symObjAddr: 0x1300, symBinAddr: 0x100001B38, symSize: 0xE4 }
  - { offset: 0x2B048, size: 0x8, addend: 0x0, symName: __ZN11__gnu_debug12_Safe_vectorINSt7__debug6vectorISt4pairIiiESaIS4_EEENSt9__cxx19986vectorIS4_S5_EEEC2Ev, symObjAddr: 0x12D8, symBinAddr: 0x100001B10, symSize: 0x28 }
  - { offset: 0x2B092, size: 0x8, addend: 0x0, symName: __ZNSt9__cxx19986vectorISt4pairIiiESaIS2_EED2Ev, symObjAddr: 0x127C, symBinAddr: 0x100001AB4, symSize: 0x5C }
  - { offset: 0x2B112, size: 0x8, addend: 0x0, symName: __ZNSt9__cxx199812_Vector_baseISt4pairIiiESaIS2_EED2Ev, symObjAddr: 0x122C, symBinAddr: 0x100001A64, symSize: 0x50 }
  - { offset: 0x2B172, size: 0x8, addend: 0x0, symName: __ZNSt9__cxx199812_Vector_baseISt4pairIiiESaIS2_EE12_Vector_implC1Ev, symObjAddr: 0x11F4, symBinAddr: 0x100001A2C, symSize: 0x38 }
  - { offset: 0x2B1F8, size: 0x8, addend: 0x0, symName: __ZN11__gnu_debug12_Safe_vectorINSt7__debug6vectorIiSaIiEEENSt9__cxx19986vectorIiS3_EEEC2Ev, symObjAddr: 0x11CC, symBinAddr: 0x100001A04, symSize: 0x28 }
  - { offset: 0x2B242, size: 0x8, addend: 0x0, symName: __ZNSt9__cxx19986vectorIiSaIiEED2Ev, symObjAddr: 0x1170, symBinAddr: 0x1000019A8, symSize: 0x5C }
  - { offset: 0x2B2C2, size: 0x8, addend: 0x0, symName: __ZNSt9__cxx199812_Vector_baseIiSaIiEED2Ev, symObjAddr: 0x1120, symBinAddr: 0x100001958, symSize: 0x50 }
  - { offset: 0x2B322, size: 0x8, addend: 0x0, symName: __ZNSt9__cxx199812_Vector_baseIiSaIiEE12_Vector_implC1Ev, symObjAddr: 0x10E8, symBinAddr: 0x100001920, symSize: 0x38 }
  - { offset: 0x2B3A8, size: 0x8, addend: 0x0, symName: __ZN11__gnu_debug12_Safe_vectorINSt7__debug6vectorINS2_IiSaIiEEESaIS4_EEENSt9__cxx19986vectorIS4_S5_EEEC2Ev, symObjAddr: 0x10C0, symBinAddr: 0x1000018F8, symSize: 0x28 }
  - { offset: 0x2B3F2, size: 0x8, addend: 0x0, symName: __ZNSt9__cxx19986vectorINSt7__debug6vectorIiSaIiEEESaIS4_EED2Ev, symObjAddr: 0x1064, symBinAddr: 0x10000189C, symSize: 0x5C }
  - { offset: 0x2B472, size: 0x8, addend: 0x0, symName: __ZNSt9__cxx199812_Vector_baseINSt7__debug6vectorIiSaIiEEESaIS4_EED2Ev, symObjAddr: 0x1000, symBinAddr: 0x100001838, symSize: 0x64 }
  - { offset: 0x2B4D2, size: 0x8, addend: 0x0, symName: __ZNSt9__cxx199812_Vector_baseINSt7__debug6vectorIiSaIiEEESaIS4_EE12_Vector_implC1Ev, symObjAddr: 0xFC8, symBinAddr: 0x100001800, symSize: 0x38 }
  - { offset: 0x2B541, size: 0x8, addend: 0x0, symName: __ZSt7forwardIiEOT_RNSt16remove_referenceIS0_E4typeE, symObjAddr: 0xFB4, symBinAddr: 0x1000017EC, symSize: 0x14 }
  - { offset: 0x2B573, size: 0x8, addend: 0x0, symName: __ZSt3maxImERKT_S2_S2_, symObjAddr: 0xF7C, symBinAddr: 0x1000017B4, symSize: 0x38 }
  - { offset: 0x2B5BE, size: 0x8, addend: 0x0, symName: _main, symObjAddr: 0xF0C, symBinAddr: 0x100001744, symSize: 0x70 }
  - { offset: 0x2B5EE, size: 0x8, addend: 0x0, symName: __Z5solvev, symObjAddr: 0xBAC, symBinAddr: 0x1000013E4, symSize: 0x360 }
  - { offset: 0x2B7BF, size: 0x8, addend: 0x0, symName: __ZNSt7__debug6vectorIiSaIiEEaSERKS2_, symObjAddr: 0xB4C, symBinAddr: 0x100001384, symSize: 0x60 }
  - { offset: 0x2B7F2, size: 0x8, addend: 0x0, symName: __ZNSt7__debug6vectorINS0_IiSaIiEEESaIS2_EEaSERKS4_, symObjAddr: 0xAEC, symBinAddr: 0x100001324, symSize: 0x60 }
  - { offset: 0x2B849, size: 0x8, addend: 0x0, symName: __ZNSt7__debug6vectorINS0_IiSaIiEEESaIS2_EED1Ev, symObjAddr: 0xAC0, symBinAddr: 0x1000012F8, symSize: 0x2C }
  - { offset: 0x2B893, size: 0x8, addend: 0x0, symName: __ZNSt7__debug6vectorIiSaIiEED1Ev, symObjAddr: 0xA94, symBinAddr: 0x1000012CC, symSize: 0x2C }
  - { offset: 0x2B8BC, size: 0x8, addend: 0x0, symName: __Z3dfsii, symObjAddr: 0x870, symBinAddr: 0x1000010A8, symSize: 0x224 }
  - { offset: 0x2B91F, size: 0x8, addend: 0x0, symName: __Z5eodfsiii, symObjAddr: 0x74C, symBinAddr: 0x100000F84, symSize: 0x124 }
  - { offset: 0x2B9A9, size: 0x8, addend: 0x0, symName: __ZNSt7__debug6vectorISt4pairIiiESaIS2_EEC1Ev, symObjAddr: 0x714, symBinAddr: 0x100000F4C, symSize: 0x38 }
  - { offset: 0x2B9E9, size: 0x8, addend: 0x0, symName: __ZNSt9__cxx19986vectorISt4pairIiiESaIS2_EEC2Ev, symObjAddr: 0x6F4, symBinAddr: 0x100000F2C, symSize: 0x20 }
  - { offset: 0x2BA29, size: 0x8, addend: 0x0, symName: __ZNSt9__cxx199812_Vector_baseISt4pairIiiESaIS2_EEC2Ev, symObjAddr: 0x6D4, symBinAddr: 0x100000F0C, symSize: 0x20 }
  - { offset: 0x2BA76, size: 0x8, addend: 0x0, symName: __ZNSt9__cxx199812_Vector_baseISt4pairIiiESaIS2_EE12_Vector_implD1Ev, symObjAddr: 0x6A8, symBinAddr: 0x100000EE0, symSize: 0x2C }
  - { offset: 0x2BAE6, size: 0x8, addend: 0x0, symName: __ZN11__gnu_debug15_Safe_containerINSt7__debug6vectorISt4pairIiiESaIS4_EEES5_NS_14_Safe_sequenceELb1EED2Ev, symObjAddr: 0x688, symBinAddr: 0x100000EC0, symSize: 0x20 }
  - { offset: 0x2BB26, size: 0x8, addend: 0x0, symName: __ZN11__gnu_debug15_Safe_containerINSt7__debug6vectorISt4pairIiiESaIS4_EEES5_NS_14_Safe_sequenceELb1EEC2Ev, symObjAddr: 0x668, symBinAddr: 0x100000EA0, symSize: 0x20 }
  - { offset: 0x2BB7E, size: 0x8, addend: 0x0, symName: __ZN11__gnu_debug14_Safe_sequenceINSt7__debug6vectorISt4pairIiiESaIS4_EEEED2Ev, symObjAddr: 0x648, symBinAddr: 0x100000E80, symSize: 0x20 }
  - { offset: 0x2BBC1, size: 0x8, addend: 0x0, symName: __ZN11__gnu_debug14_Safe_sequenceINSt7__debug6vectorISt4pairIiiESaIS4_EEEEC2Ev, symObjAddr: 0x628, symBinAddr: 0x100000E60, symSize: 0x20 }
  - { offset: 0x2BC01, size: 0x8, addend: 0x0, symName: __ZNSt7__debug6vectorIiSaIiEEC1Ev, symObjAddr: 0x5F0, symBinAddr: 0x100000E28, symSize: 0x38 }
  - { offset: 0x2BC41, size: 0x8, addend: 0x0, symName: __ZNSt9__cxx19986vectorIiSaIiEEC2Ev, symObjAddr: 0x5D0, symBinAddr: 0x100000E08, symSize: 0x20 }
  - { offset: 0x2BC81, size: 0x8, addend: 0x0, symName: __ZNSt9__cxx199812_Vector_baseIiSaIiEEC2Ev, symObjAddr: 0x5B0, symBinAddr: 0x100000DE8, symSize: 0x20 }
  - { offset: 0x2BCCE, size: 0x8, addend: 0x0, symName: __ZNSt9__cxx199812_Vector_baseIiSaIiEE12_Vector_implD1Ev, symObjAddr: 0x584, symBinAddr: 0x100000DBC, symSize: 0x2C }
  - { offset: 0x2BD3E, size: 0x8, addend: 0x0, symName: __ZN11__gnu_debug15_Safe_containerINSt7__debug6vectorIiSaIiEEES3_NS_14_Safe_sequenceELb1EED2Ev, symObjAddr: 0x564, symBinAddr: 0x100000D9C, symSize: 0x20 }
  - { offset: 0x2BD7E, size: 0x8, addend: 0x0, symName: __ZN11__gnu_debug15_Safe_containerINSt7__debug6vectorIiSaIiEEES3_NS_14_Safe_sequenceELb1EEC2Ev, symObjAddr: 0x544, symBinAddr: 0x100000D7C, symSize: 0x20 }
  - { offset: 0x2BDCB, size: 0x8, addend: 0x0, symName: __ZN11__gnu_debug14_Safe_sequenceINSt7__debug6vectorIiSaIiEEEED2Ev, symObjAddr: 0x524, symBinAddr: 0x100000D5C, symSize: 0x20 }
  - { offset: 0x2BE0E, size: 0x8, addend: 0x0, symName: __ZN11__gnu_debug14_Safe_sequenceINSt7__debug6vectorIiSaIiEEEEC2Ev, symObjAddr: 0x504, symBinAddr: 0x100000D3C, symSize: 0x20 }
  - { offset: 0x2BE4E, size: 0x8, addend: 0x0, symName: __ZNSt7__debug6vectorINS0_IiSaIiEEESaIS2_EEC1Ev, symObjAddr: 0x4CC, symBinAddr: 0x100000D04, symSize: 0x38 }
  - { offset: 0x2BE8E, size: 0x8, addend: 0x0, symName: __ZNSt9__cxx19986vectorINSt7__debug6vectorIiSaIiEEESaIS4_EEC2Ev, symObjAddr: 0x4AC, symBinAddr: 0x100000CE4, symSize: 0x20 }
  - { offset: 0x2BECE, size: 0x8, addend: 0x0, symName: __ZNSt9__cxx199812_Vector_baseINSt7__debug6vectorIiSaIiEEESaIS4_EEC2Ev, symObjAddr: 0x48C, symBinAddr: 0x100000CC4, symSize: 0x20 }
  - { offset: 0x2BF1B, size: 0x8, addend: 0x0, symName: __ZNSt9__cxx199812_Vector_baseINSt7__debug6vectorIiSaIiEEESaIS4_EE12_Vector_implD1Ev, symObjAddr: 0x460, symBinAddr: 0x100000C98, symSize: 0x2C }
  - { offset: 0x2BF8B, size: 0x8, addend: 0x0, symName: __ZN11__gnu_debug15_Safe_containerINSt7__debug6vectorINS2_IiSaIiEEESaIS4_EEES5_NS_14_Safe_sequenceELb1EED2Ev, symObjAddr: 0x440, symBinAddr: 0x100000C78, symSize: 0x20 }
  - { offset: 0x2BFCB, size: 0x8, addend: 0x0, symName: __ZN11__gnu_debug15_Safe_containerINSt7__debug6vectorINS2_IiSaIiEEESaIS4_EEES5_NS_14_Safe_sequenceELb1EEC2Ev, symObjAddr: 0x420, symBinAddr: 0x100000C58, symSize: 0x20 }
  - { offset: 0x2C023, size: 0x8, addend: 0x0, symName: __ZN11__gnu_debug14_Safe_sequenceINSt7__debug6vectorINS2_IiSaIiEEESaIS4_EEEED2Ev, symObjAddr: 0x400, symBinAddr: 0x100000C38, symSize: 0x20 }
  - { offset: 0x2C066, size: 0x8, addend: 0x0, symName: __ZN11__gnu_debug14_Safe_sequenceINSt7__debug6vectorINS2_IiSaIiEEESaIS4_EEEEC2Ev, symObjAddr: 0x3E0, symBinAddr: 0x100000C18, symSize: 0x20 }
  - { offset: 0x2C088, size: 0x8, addend: 0x0, symName: __ZSt3minImERKT_S2_S2_, symObjAddr: 0x3A8, symBinAddr: 0x100000BE0, symSize: 0x38 }
  - { offset: 0x2C0CE, size: 0x8, addend: 0x0, symName: __ZNK11__gnu_debug19_Safe_sequence_base17_M_invalidate_allEv, symObjAddr: 0x354, symBinAddr: 0x100000B8C, symSize: 0x54 }
  - { offset: 0x2C11C, size: 0x8, addend: 0x0, symName: __ZN11__gnu_debug19_Safe_sequence_baseD2Ev, symObjAddr: 0x31C, symBinAddr: 0x100000B54, symSize: 0x38 }
  - { offset: 0x2C17A, size: 0x8, addend: 0x0, symName: __ZN11__gnu_debug19_Safe_sequence_baseC2ERKS0_, symObjAddr: 0x2F8, symBinAddr: 0x100000B30, symSize: 0x24 }
  - { offset: 0x2C1C3, size: 0x8, addend: 0x0, symName: __ZN11__gnu_debug19_Safe_sequence_baseC1Ev, symObjAddr: 0x2C8, symBinAddr: 0x100000B00, symSize: 0x30 }
  - { offset: 0x2C1ED, size: 0x8, addend: 0x0, symName: __ZN11__gnu_debug19_Safe_sequence_baseC2Ev, symObjAddr: 0x298, symBinAddr: 0x100000AD0, symSize: 0x30 }
  - { offset: 0x2C216, size: 0x8, addend: 0x0, symName: __ZdlPvS_, symObjAddr: 0x280, symBinAddr: 0x100000AB8, symSize: 0x18 }
  - { offset: 0x2C24C, size: 0x8, addend: 0x0, symName: __ZnwmPv, symObjAddr: 0x268, symBinAddr: 0x100000AA0, symSize: 0x18 }
  - { offset: 0x2C27E, size: 0x8, addend: 0x0, symName: __ZSt17__size_to_integerm, symObjAddr: 0x254, symBinAddr: 0x100000A8C, symSize: 0x14 }
  - { offset: 0x2C2A8, size: 0x8, addend: 0x0, symName: __ZN11__gnu_debug16_Error_formatter5_S_atEPKcjS2_, symObjAddr: 0x1C0, symBinAddr: 0x1000009F8, symSize: 0x94 }
  - { offset: 0x2C301, size: 0x8, addend: 0x0, symName: __ZZN11__gnu_debug16_Error_formatter5_S_atEPKcjS2_E11__formatter, symObjAddr: 0x78E0, symBinAddr: 0x100018000, symSize: 0x0 }
  - { offset: 0x2C358, size: 0x8, addend: 0x0, symName: __ZN11__gnu_debug16_Error_formatterC1EPKcjS2_, symObjAddr: 0x134, symBinAddr: 0x10000096C, symSize: 0x8C }
  - { offset: 0x2C399, size: 0x8, addend: 0x0, symName: __ZN11__gnu_debug16_Error_formatter10_M_integerElPKc, symObjAddr: 0x98, symBinAddr: 0x1000008D0, symSize: 0x9C }
  - { offset: 0x2C41E, size: 0x8, addend: 0x0, symName: __ZN11__gnu_debug16_Error_formatter10_ParameterC1ElPKc, symObjAddr: 0x44, symBinAddr: 0x10000087C, symSize: 0x54 }
  - { offset: 0x2C470, size: 0x8, addend: 0x0, symName: __ZN11__gnu_debug16_Error_formatter10_ParameterC1Ev, symObjAddr: 0x14, symBinAddr: 0x10000084C, symSize: 0x30 }
  - { offset: 0x2C492, size: 0x8, addend: 0x0, symName: __ZN11__gnu_debug20__check_singular_auxEPKv, symObjAddr: 0x0, symBinAddr: 0x100000838, symSize: 0x14 }
...
