---
triple:          'arm64-apple-darwin'
binary-path:     '/Users/mengchengxi/Documents/code/C++C/competition/I. Disks'
relocations:
  - { offset: 0x238E8, size: 0x8, addend: 0x0, symName: __ZStL8__ioinit, symObjAddr: 0xC6652, symBinAddr: 0x100018228, symSize: 0x0 }
  - { offset: 0x23E40, size: 0x8, addend: 0x0, symName: __ZL3INF, symObjAddr: 0x9040, symBinAddr: 0x10000ABD8, symSize: 0x0 }
  - { offset: 0x23E57, size: 0x8, addend: 0x0, symName: __ZL3mod, symObjAddr: 0x9044, symBinAddr: 0x10000ABDC, symSize: 0x0 }
  - { offset: 0x24080, size: 0x8, addend: 0x0, symName: _x, symObjAddr: 0xC6658, symBinAddr: 0x100018230, symSize: 0x0 }
  - { offset: 0x24097, size: 0x8, addend: 0x0, symName: _y, symObjAddr: 0xC6690, symBinAddr: 0x100018268, symSize: 0x0 }
  - { offset: 0x240AE, size: 0x8, addend: 0x0, symName: _r, symObjAddr: 0xC66C8, symBinAddr: 0x1000182A0, symSize: 0x0 }
  - { offset: 0x242B3, size: 0x8, addend: 0x0, symName: _g, symObjAddr: 0xC6700, symBinAddr: 0x1000182D8, symSize: 0x0 }
  - { offset: 0x242CA, size: 0x8, addend: 0x0, symName: _isvisted, symObjAddr: 0xC6738, symBinAddr: 0x100018310, symSize: 0x0 }
  - { offset: 0x244F0, size: 0x8, addend: 0x0, symName: __GLOBAL__sub_I_I._Disks.cpp, symObjAddr: 0xA914, symBinAddr: 0x1000095B0, symSize: 0x14 }
  - { offset: 0x24508, size: 0x8, addend: 0x0, symName: __Z41__static_initialization_and_destruction_0v, symObjAddr: 0xA810, symBinAddr: 0x1000094AC, symSize: 0x104 }
  - { offset: 0x24520, size: 0x8, addend: 0x0, symName: __ZSt9__fill_a1IPiiEN9__gnu_cxx11__enable_ifIXsrSt11__is_scalarIT0_E7__valueEvE6__typeET_S8_RKS4_, symObjAddr: 0x8C1C, symBinAddr: 0x100009454, symSize: 0x58 }
  - { offset: 0x2458F, size: 0x8, addend: 0x0, symName: __ZSt9__fill_a1IPxxEN9__gnu_cxx11__enable_ifIXsrSt11__is_scalarIT0_E7__valueEvE6__typeET_S8_RKS4_, symObjAddr: 0x8BC4, symBinAddr: 0x1000093FC, symSize: 0x58 }
  - { offset: 0x24614, size: 0x8, addend: 0x0, symName: __ZSt8__fill_aIPiiEvT_S1_RKT0_, symObjAddr: 0x8B94, symBinAddr: 0x1000093CC, symSize: 0x30 }
  - { offset: 0x24672, size: 0x8, addend: 0x0, symName: __ZN11__gnu_debug13__can_advanceIPimEEbT_T0_, symObjAddr: 0x8B7C, symBinAddr: 0x1000093B4, symSize: 0x18 }
  - { offset: 0x246AF, size: 0x8, addend: 0x0, symName: __ZSt8__fill_aIPxxEvT_S1_RKT0_, symObjAddr: 0x8B4C, symBinAddr: 0x100009384, symSize: 0x30 }
  - { offset: 0x2470D, size: 0x8, addend: 0x0, symName: __ZN11__gnu_debug13__can_advanceIPxmEEbT_T0_, symObjAddr: 0x8B34, symBinAddr: 0x10000936C, symSize: 0x18 }
  - { offset: 0x24766, size: 0x8, addend: 0x0, symName: __ZSt7forwardIRKNSt7__debug6vectorIiSaIiEEEEOT_RNSt16remove_referenceIS6_E4typeE, symObjAddr: 0x8B20, symBinAddr: 0x100009358, symSize: 0x14 }
  - { offset: 0x24798, size: 0x8, addend: 0x0, symName: __ZSt10__fill_n_aIPimiET_S1_T0_RKT1_St26random_access_iterator_tag, symObjAddr: 0x8A34, symBinAddr: 0x10000926C, symSize: 0xEC }
  - { offset: 0x2486F, size: 0x8, addend: 0x0, symName: __ZNSt4pairIlN11__gnu_debug19_Distance_precisionEEC1IlS1_Lb1EEEOT_OT0_, symObjAddr: 0x89EC, symBinAddr: 0x100009224, symSize: 0x48 }
  - { offset: 0x248B5, size: 0x8, addend: 0x0, symName: __ZSt10__fill_n_aIPxmxET_S1_T0_RKT1_St26random_access_iterator_tag, symObjAddr: 0x8900, symBinAddr: 0x100009138, symSize: 0xEC }
  - { offset: 0x24940, size: 0x8, addend: 0x0, symName: __ZNSt11__copy_moveILb0ELb0ESt26random_access_iterator_tagE12__assign_oneIiiEEvPT_PT0_, symObjAddr: 0x88D8, symBinAddr: 0x100009110, symSize: 0x28 }
  - { offset: 0x2498D, size: 0x8, addend: 0x0, symName: __ZNSt11__copy_moveILb0ELb0ESt26random_access_iterator_tagE12__assign_oneIiKiEEvPT_PT0_, symObjAddr: 0x88B0, symBinAddr: 0x1000090E8, symSize: 0x28 }
  - { offset: 0x249E1, size: 0x8, addend: 0x0, symName: __ZN9__gnu_cxxmiIPKiNSt9__cxx19986vectorIiSaIiEEEEENS_17__normal_iteratorIT_T0_E15difference_typeERKSA_SD_, symObjAddr: 0x8870, symBinAddr: 0x1000090A8, symSize: 0x40 }
  - { offset: 0x24A2E, size: 0x8, addend: 0x0, symName: __ZSt13__copy_move_aILb0EN9__gnu_cxx17__normal_iteratorIPKiNSt9__cxx19986vectorIiSaIiEEEEEPiET1_T0_SB_SA_, symObjAddr: 0x8810, symBinAddr: 0x100009048, symSize: 0x60 }
  - { offset: 0x24AB9, size: 0x8, addend: 0x0, symName: __ZN11__gnu_debug12_Safe_vectorINSt7__debug6vectorIiSaIiEEENSt9__cxx19986vectorIiS3_EEEC2ERKS8_, symObjAddr: 0x87E4, symBinAddr: 0x10000901C, symSize: 0x2C }
  - { offset: 0x24B10, size: 0x8, addend: 0x0, symName: __ZNSt9__cxx19986vectorIiSaIiEEC2ERKS2_, symObjAddr: 0x86D0, symBinAddr: 0x100008F08, symSize: 0x114 }
  - { offset: 0x24C26, size: 0x8, addend: 0x0, symName: __ZSt7forwardIRNSt7__debug6vectorIiSaIiEEEEOT_RNSt16remove_referenceIS5_E4typeE, symObjAddr: 0x86BC, symBinAddr: 0x100008EF4, symSize: 0x14 }
  - { offset: 0x24C5F, size: 0x8, addend: 0x0, symName: __ZN9__gnu_cxxmiIPKNSt7__debug6vectorIiSaIiEEENSt9__cxx19986vectorIS4_SaIS4_EEEEENS_17__normal_iteratorIT_T0_E15difference_typeERKSE_SH_, symObjAddr: 0x8668, symBinAddr: 0x100008EA0, symSize: 0x54 }
  - { offset: 0x24CAC, size: 0x8, addend: 0x0, symName: __ZSt10_ConstructINSt7__debug6vectorIiSaIiEEEJRKS3_EEvPT_DpOT0_, symObjAddr: 0x85EC, symBinAddr: 0x100008E24, symSize: 0x7C }
  - { offset: 0x24CFC, size: 0x8, addend: 0x0, symName: __ZNK9__gnu_cxx17__normal_iteratorIPKNSt7__debug6vectorIiSaIiEEENSt9__cxx19986vectorIS4_SaIS4_EEEEdeEv, symObjAddr: 0x85D4, symBinAddr: 0x100008E0C, symSize: 0x18 }
  - { offset: 0x24D26, size: 0x8, addend: 0x0, symName: __ZN9__gnu_cxx17__normal_iteratorIPKNSt7__debug6vectorIiSaIiEEENSt9__cxx19986vectorIS4_SaIS4_EEEEppEv, symObjAddr: 0x85AC, symBinAddr: 0x100008DE4, symSize: 0x28 }
  - { offset: 0x24D4C, size: 0x8, addend: 0x0, symName: __ZN9__gnu_cxxneIPKNSt7__debug6vectorIiSaIiEEENSt9__cxx19986vectorIS4_SaIS4_EEEEEbRKNS_17__normal_iteratorIT_T0_EESG_, symObjAddr: 0x8568, symBinAddr: 0x100008DA0, symSize: 0x44 }
  - { offset: 0x24D99, size: 0x8, addend: 0x0, symName: __ZSt6fill_nIPimiET_S1_T0_RKT1_, symObjAddr: 0x8520, symBinAddr: 0x100008D58, symSize: 0x48 }
  - { offset: 0x24E21, size: 0x8, addend: 0x0, symName: __ZSt10_ConstructINSt7__debug6vectorIiSaIiEEEJEEvPT_DpOT0_, symObjAddr: 0x84D0, symBinAddr: 0x100008D08, symSize: 0x50 }
  - { offset: 0x24E5D, size: 0x8, addend: 0x0, symName: __ZNSt11__copy_moveILb0ELb0ESt26random_access_iterator_tagE12__assign_oneIxxEEvPT_PT0_, symObjAddr: 0x84A8, symBinAddr: 0x100008CE0, symSize: 0x28 }
  - { offset: 0x24EAA, size: 0x8, addend: 0x0, symName: __ZNSt11__copy_moveILb0ELb0ESt26random_access_iterator_tagE12__assign_oneIxKxEEvPT_PT0_, symObjAddr: 0x8480, symBinAddr: 0x100008CB8, symSize: 0x28 }
  - { offset: 0x24EF7, size: 0x8, addend: 0x0, symName: __ZSt9make_pairIlN11__gnu_debug19_Distance_precisionEESt4pairINSt25__strip_reference_wrapperINSt5decayIT_E4typeEE6__typeENS3_INS4_IT0_E4typeEE6__typeEEOS5_OSA_, symObjAddr: 0x8434, symBinAddr: 0x100008C6C, symSize: 0x4C }
  - { offset: 0x24F4B, size: 0x8, addend: 0x0, symName: __ZN9__gnu_cxxmiIPKxNSt9__cxx19986vectorIxSaIxEEEEENS_17__normal_iteratorIT_T0_E15difference_typeERKSA_SD_, symObjAddr: 0x83F4, symBinAddr: 0x100008C2C, symSize: 0x40 }
  - { offset: 0x24F98, size: 0x8, addend: 0x0, symName: __ZSt13__copy_move_aILb0EN9__gnu_cxx17__normal_iteratorIPKxNSt9__cxx19986vectorIxSaIxEEEEEPxET1_T0_SB_SA_, symObjAddr: 0x8394, symBinAddr: 0x100008BCC, symSize: 0x60 }
  - { offset: 0x25000, size: 0x8, addend: 0x0, symName: __ZSt6fill_nIPxmxET_S1_T0_RKT1_, symObjAddr: 0x834C, symBinAddr: 0x100008B84, symSize: 0x48 }
  - { offset: 0x25088, size: 0x8, addend: 0x0, symName: __ZSt10_ConstructIxJEEvPT_DpOT0_, symObjAddr: 0x8320, symBinAddr: 0x100008B58, symSize: 0x2C }
  - { offset: 0x250C4, size: 0x8, addend: 0x0, symName: __ZSt11__addressofIxEPT_RS0_, symObjAddr: 0x830C, symBinAddr: 0x100008B44, symSize: 0x14 }
  - { offset: 0x250F6, size: 0x8, addend: 0x0, symName: __ZSt14__relocate_a_1IiiENSt9enable_ifIXsrSt24__is_bitwise_relocatableIT_vE5valueEPS2_E4typeES4_S4_S4_RSaIT0_E, symObjAddr: 0x82A8, symBinAddr: 0x100008AE0, symSize: 0x64 }
  - { offset: 0x25176, size: 0x8, addend: 0x0, symName: __ZNSt11__copy_moveILb0ELb1ESt26random_access_iterator_tagE8__copy_mIiiEEPT0_PT_S6_S4_, symObjAddr: 0x8218, symBinAddr: 0x100008A50, symSize: 0x90 }
  - { offset: 0x251E5, size: 0x8, addend: 0x0, symName: __ZN11__gnu_debug14__get_distanceIPiEENS_16_Distance_traitsIT_NSt12__is_integerIS3_E6__typeEE6__typeES3_S3_St26random_access_iterator_tag, symObjAddr: 0x81D4, symBinAddr: 0x100008A0C, symSize: 0x44 }
  - { offset: 0x25246, size: 0x8, addend: 0x0, symName: __ZNSt11__copy_moveILb0ELb1ESt26random_access_iterator_tagE8__copy_mIKiiEEPT0_PT_S7_S5_, symObjAddr: 0x8144, symBinAddr: 0x10000897C, symSize: 0x90 }
  - { offset: 0x252BB, size: 0x8, addend: 0x0, symName: __ZSt11__addressofIKPKiEPT_RS3_, symObjAddr: 0x8130, symBinAddr: 0x100008968, symSize: 0x14 }
  - { offset: 0x252ED, size: 0x8, addend: 0x0, symName: __ZN11__gnu_debug14__get_distanceIN9__gnu_cxx17__normal_iteratorIPKiNSt9__cxx19986vectorIiSaIiEEEEEEENS_16_Distance_traitsIT_NSt12__is_integerISB_E6__typeEE6__typeESB_SB_St26random_access_iterator_tag, symObjAddr: 0x80F0, symBinAddr: 0x100008928, symSize: 0x40 }
  - { offset: 0x2534E, size: 0x8, addend: 0x0, symName: __ZSt11__addressofIKN9__gnu_cxx17__normal_iteratorIPKiNSt9__cxx19986vectorIiSaIiEEEEEEPT_RSA_, symObjAddr: 0x80DC, symBinAddr: 0x100008914, symSize: 0x14 }
  - { offset: 0x25380, size: 0x8, addend: 0x0, symName: __ZN9__gnu_cxxeqIPKiNSt9__cxx19986vectorIiSaIiEEEEEbRKNS_17__normal_iteratorIT_T0_EESC_, symObjAddr: 0x8098, symBinAddr: 0x1000088D0, symSize: 0x44 }
  - { offset: 0x253CD, size: 0x8, addend: 0x0, symName: __ZSt4copyIN9__gnu_cxx17__normal_iteratorIPKiNSt9__cxx19986vectorIiSaIiEEEEEPiET0_T_SB_SA_, symObjAddr: 0x7F34, symBinAddr: 0x10000876C, symSize: 0x164 }
  - { offset: 0x2546A, size: 0x8, addend: 0x0, symName: __ZSt10_ConstructINSt7__debug6vectorIiSaIiEEEJRS3_EEvPT_DpOT0_, symObjAddr: 0x7EB8, symBinAddr: 0x1000086F0, symSize: 0x7C }
  - { offset: 0x254D9, size: 0x8, addend: 0x0, symName: __ZNSt7__debug6vectorIiSaIiEEC1ERKS2_, symObjAddr: 0x7E3C, symBinAddr: 0x100008674, symSize: 0x7C }
  - { offset: 0x25527, size: 0x8, addend: 0x0, symName: __ZN11__gnu_debug15_Safe_containerINSt7__debug6vectorIiSaIiEEES3_NS_14_Safe_sequenceELb1EEC2ERKS6_, symObjAddr: 0x7E14, symBinAddr: 0x10000864C, symSize: 0x28 }
  - { offset: 0x2558A, size: 0x8, addend: 0x0, symName: __ZN11__gnu_debug14_Safe_sequenceINSt7__debug6vectorIiSaIiEEEEC2ERKS5_, symObjAddr: 0x7DEC, symBinAddr: 0x100008624, symSize: 0x28 }
  - { offset: 0x255B5, size: 0x8, addend: 0x0, symName: __ZNSt11__copy_moveILb0ELb0ESt26random_access_iterator_tagE8__copy_mIPNSt7__debug6vectorIiSaIiEEES7_EET0_T_S9_S8_, symObjAddr: 0x7D64, symBinAddr: 0x10000859C, symSize: 0x88 }
  - { offset: 0x25644, size: 0x8, addend: 0x0, symName: __ZN11__gnu_debug14__get_distanceIPNSt7__debug6vectorIiSaIiEEEEENS_16_Distance_traitsIT_NSt12__is_integerIS7_E6__typeEE6__typeES7_S7_St26random_access_iterator_tag, symObjAddr: 0x7D0C, symBinAddr: 0x100008544, symSize: 0x58 }
  - { offset: 0x256A5, size: 0x8, addend: 0x0, symName: __ZNSt11__copy_moveILb0ELb0ESt26random_access_iterator_tagE8__copy_mIPKNSt7__debug6vectorIiSaIiEEEPS6_EET0_T_SB_SA_, symObjAddr: 0x7C84, symBinAddr: 0x1000084BC, symSize: 0x88 }
  - { offset: 0x2573A, size: 0x8, addend: 0x0, symName: __ZSt11__addressofIKPKNSt7__debug6vectorIiSaIiEEEEPT_RS7_, symObjAddr: 0x7C70, symBinAddr: 0x1000084A8, symSize: 0x14 }
  - { offset: 0x2576C, size: 0x8, addend: 0x0, symName: __ZN11__gnu_debug14__get_distanceIN9__gnu_cxx17__normal_iteratorIPKNSt7__debug6vectorIiSaIiEEENSt9__cxx19986vectorIS6_SaIS6_EEEEEEENS_16_Distance_traitsIT_NSt12__is_integerISF_E6__typeEE6__typeESF_SF_St26random_access_iterator_tag, symObjAddr: 0x7C30, symBinAddr: 0x100008468, symSize: 0x40 }
  - { offset: 0x257CD, size: 0x8, addend: 0x0, symName: __ZSt11__addressofIKN9__gnu_cxx17__normal_iteratorIPKNSt7__debug6vectorIiSaIiEEENSt9__cxx19986vectorIS5_SaIS5_EEEEEEPT_RSE_, symObjAddr: 0x7C1C, symBinAddr: 0x100008454, symSize: 0x14 }
  - { offset: 0x257FF, size: 0x8, addend: 0x0, symName: __ZN9__gnu_cxxeqIPKNSt7__debug6vectorIiSaIiEEENSt9__cxx19986vectorIS4_SaIS4_EEEEEbRKNS_17__normal_iteratorIT_T0_EESG_, symObjAddr: 0x7BD8, symBinAddr: 0x100008410, symSize: 0x44 }
  - { offset: 0x2584C, size: 0x8, addend: 0x0, symName: __ZSt16__do_uninit_copyIN9__gnu_cxx17__normal_iteratorIPKNSt7__debug6vectorIiSaIiEEENSt9__cxx19986vectorIS5_SaIS5_EEEEEPS5_ET0_T_SF_SE_, symObjAddr: 0x7B30, symBinAddr: 0x100008368, symSize: 0xA8 }
  - { offset: 0x258B7, size: 0x8, addend: 0x0, symName: __ZNSt22__uninitialized_fill_nILb1EE15__uninit_fill_nIPimiEET_S3_T0_RKT1_, symObjAddr: 0x7B04, symBinAddr: 0x10000833C, symSize: 0x2C }
  - { offset: 0x25934, size: 0x8, addend: 0x0, symName: __ZNSt27__uninitialized_default_n_1ILb0EE18__uninit_default_nIPNSt7__debug6vectorIiSaIiEEEmEET_S7_T0_, symObjAddr: 0x7AAC, symBinAddr: 0x1000082E4, symSize: 0x58 }
  - { offset: 0x259A8, size: 0x8, addend: 0x0, symName: __ZNSt11__copy_moveILb0ELb1ESt26random_access_iterator_tagE8__copy_mIxxEEPT0_PT_S6_S4_, symObjAddr: 0x7A1C, symBinAddr: 0x100008254, symSize: 0x90 }
  - { offset: 0x25A17, size: 0x8, addend: 0x0, symName: __ZN11__gnu_debug14__get_distanceIPxEENS_16_Distance_traitsIT_NSt12__is_integerIS3_E6__typeEE6__typeES3_S3_St26random_access_iterator_tag, symObjAddr: 0x79D8, symBinAddr: 0x100008210, symSize: 0x44 }
  - { offset: 0x25A78, size: 0x8, addend: 0x0, symName: __ZNSt11__copy_moveILb0ELb1ESt26random_access_iterator_tagE8__copy_mIKxxEEPT0_PT_S7_S5_, symObjAddr: 0x7948, symBinAddr: 0x100008180, symSize: 0x90 }
  - { offset: 0x25AED, size: 0x8, addend: 0x0, symName: __ZSt11__addressofIKPKxEPT_RS3_, symObjAddr: 0x7934, symBinAddr: 0x10000816C, symSize: 0x14 }
  - { offset: 0x25B26, size: 0x8, addend: 0x0, symName: __ZSt7forwardIN11__gnu_debug19_Distance_precisionEEOT_RNSt16remove_referenceIS2_E4typeE, symObjAddr: 0x7920, symBinAddr: 0x100008158, symSize: 0x14 }
  - { offset: 0x25B5F, size: 0x8, addend: 0x0, symName: __ZSt7forwardIlEOT_RNSt16remove_referenceIS0_E4typeE, symObjAddr: 0x790C, symBinAddr: 0x100008144, symSize: 0x14 }
  - { offset: 0x25B91, size: 0x8, addend: 0x0, symName: __ZN11__gnu_debug14__get_distanceIN9__gnu_cxx17__normal_iteratorIPKxNSt9__cxx19986vectorIxSaIxEEEEEEENS_16_Distance_traitsIT_NSt12__is_integerISB_E6__typeEE6__typeESB_SB_St26random_access_iterator_tag, symObjAddr: 0x78CC, symBinAddr: 0x100008104, symSize: 0x40 }
  - { offset: 0x25BF2, size: 0x8, addend: 0x0, symName: __ZSt11__addressofIKN9__gnu_cxx17__normal_iteratorIPKxNSt9__cxx19986vectorIxSaIxEEEEEEPT_RSA_, symObjAddr: 0x78B8, symBinAddr: 0x1000080F0, symSize: 0x14 }
  - { offset: 0x25C24, size: 0x8, addend: 0x0, symName: __ZN9__gnu_cxxeqIPKxNSt9__cxx19986vectorIxSaIxEEEEEbRKNS_17__normal_iteratorIT_T0_EESC_, symObjAddr: 0x7874, symBinAddr: 0x1000080AC, symSize: 0x44 }
  - { offset: 0x25C71, size: 0x8, addend: 0x0, symName: __ZSt4copyIN9__gnu_cxx17__normal_iteratorIPKxNSt9__cxx19986vectorIxSaIxEEEEEPxET0_T_SB_SA_, symObjAddr: 0x7710, symBinAddr: 0x100007F48, symSize: 0x164 }
  - { offset: 0x25D0E, size: 0x8, addend: 0x0, symName: __ZNSt27__uninitialized_default_n_1ILb1EE18__uninit_default_nIPxmEET_S3_T0_, symObjAddr: 0x76AC, symBinAddr: 0x100007EE4, symSize: 0x64 }
  - { offset: 0x25D9B, size: 0x8, addend: 0x0, symName: __ZSt12__relocate_aIPiS0_SaIiEET0_T_S3_S2_RT1_, symObjAddr: 0x7650, symBinAddr: 0x100007E88, symSize: 0x5C }
  - { offset: 0x25E17, size: 0x8, addend: 0x0, symName: __ZNKSt9__cxx19986vectorIiSaIiEE8max_sizeEv, symObjAddr: 0x7630, symBinAddr: 0x100007E68, symSize: 0x20 }
  - { offset: 0x25E3D, size: 0x8, addend: 0x0, symName: __ZSt14__copy_move_a2ILb0EPiS0_ET1_T0_S2_S1_, symObjAddr: 0x7604, symBinAddr: 0x100007E3C, symSize: 0x2C }
  - { offset: 0x25EAB, size: 0x8, addend: 0x0, symName: __ZSt11__addressofIKPiEPT_RS2_, symObjAddr: 0x75F0, symBinAddr: 0x100007E28, symSize: 0x14 }
  - { offset: 0x25EDD, size: 0x8, addend: 0x0, symName: __ZN11__gnu_debug14__get_distanceIPiEENS_16_Distance_traitsIT_NSt12__is_integerIS3_E6__typeEE6__typeES3_S3_, symObjAddr: 0x75C8, symBinAddr: 0x100007E00, symSize: 0x28 }
  - { offset: 0x25F3F, size: 0x8, addend: 0x0, symName: __ZN11__gnu_debug17__valid_range_auxIPiEEbT_S2_St18input_iterator_tag, symObjAddr: 0x7558, symBinAddr: 0x100007D90, symSize: 0x70 }
  - { offset: 0x25F8A, size: 0x8, addend: 0x0, symName: __ZN11__gnu_debug16__check_singularIiEEbRKPT_, symObjAddr: 0x7534, symBinAddr: 0x100007D6C, symSize: 0x24 }
  - { offset: 0x25FC0, size: 0x8, addend: 0x0, symName: __ZNK9__gnu_cxx17__normal_iteratorIPiNSt9__cxx19986vectorIiSaIiEEEEplEl, symObjAddr: 0x74F4, symBinAddr: 0x100007D2C, symSize: 0x40 }
  - { offset: 0x25FF7, size: 0x8, addend: 0x0, symName: __ZSt14__copy_move_a2ILb0EPKiPiET1_T0_S4_S3_, symObjAddr: 0x74C8, symBinAddr: 0x100007D00, symSize: 0x2C }
  - { offset: 0x26063, size: 0x8, addend: 0x0, symName: __ZNK9__gnu_cxx17__normal_iteratorIPiNSt9__cxx19986vectorIiSaIiEEEE4baseEv, symObjAddr: 0x74B4, symBinAddr: 0x100007CEC, symSize: 0x14 }
  - { offset: 0x260D1, size: 0x8, addend: 0x0, symName: __ZN11__gnu_debug16_Error_formatter10_ParameterC1IiEERKPKT_PKcNS0_12_Is_iteratorE, symObjAddr: 0x7404, symBinAddr: 0x100007C3C, symSize: 0xB0 }
  - { offset: 0x2611B, size: 0x8, addend: 0x0, symName: __ZNK9__gnu_cxx17__normal_iteratorIPKiNSt9__cxx19986vectorIiSaIiEEEE4baseEv, symObjAddr: 0x73F0, symBinAddr: 0x100007C28, symSize: 0x14 }
  - { offset: 0x26141, size: 0x8, addend: 0x0, symName: __ZN11__gnu_debug14__get_distanceIN9__gnu_cxx17__normal_iteratorIPKiNSt9__cxx19986vectorIiSaIiEEEEEEENS_16_Distance_traitsIT_NSt12__is_integerISB_E6__typeEE6__typeESB_SB_, symObjAddr: 0x73C8, symBinAddr: 0x100007C00, symSize: 0x28 }
  - { offset: 0x261A3, size: 0x8, addend: 0x0, symName: __ZN11__gnu_debug17__valid_range_auxIN9__gnu_cxx17__normal_iteratorIPKiNSt9__cxx19986vectorIiSaIiEEEEEEEbT_SA_St18input_iterator_tag, symObjAddr: 0x7350, symBinAddr: 0x100007B88, symSize: 0x78 }
  - { offset: 0x261EE, size: 0x8, addend: 0x0, symName: __ZN11__gnu_debug16__check_singularIN9__gnu_cxx17__normal_iteratorIPKiNSt9__cxx19986vectorIiSaIiEEEEEEEbRKT_, symObjAddr: 0x7300, symBinAddr: 0x100007B38, symSize: 0x50 }
  - { offset: 0x26239, size: 0x8, addend: 0x0, symName: __ZNSt20__uninitialized_copyILb1EE13__uninit_copyIN9__gnu_cxx17__normal_iteratorIPKiNSt9__cxx19986vectorIiSaIiEEEEEPiEET0_T_SD_SC_, symObjAddr: 0x72D4, symBinAddr: 0x100007B0C, symSize: 0x2C }
  - { offset: 0x26298, size: 0x8, addend: 0x0, symName: __ZNSt15__new_allocatorIiE8allocateEmPKv, symObjAddr: 0x7258, symBinAddr: 0x100007A90, symSize: 0x7C }
  - { offset: 0x26320, size: 0x8, addend: 0x0, symName: __ZSt16__do_uninit_copyIPNSt7__debug6vectorIiSaIiEEES4_ET0_T_S6_S5_, symObjAddr: 0x71C4, symBinAddr: 0x1000079FC, symSize: 0x94 }
  - { offset: 0x2638B, size: 0x8, addend: 0x0, symName: __ZSt14__copy_move_a2ILb0EPNSt7__debug6vectorIiSaIiEEES4_ET1_T0_S6_S5_, symObjAddr: 0x7198, symBinAddr: 0x1000079D0, symSize: 0x2C }
  - { offset: 0x263F9, size: 0x8, addend: 0x0, symName: __ZSt11__addressofIKPNSt7__debug6vectorIiSaIiEEEEPT_RS6_, symObjAddr: 0x7184, symBinAddr: 0x1000079BC, symSize: 0x14 }
  - { offset: 0x2642B, size: 0x8, addend: 0x0, symName: __ZN11__gnu_debug14__get_distanceIPNSt7__debug6vectorIiSaIiEEEEENS_16_Distance_traitsIT_NSt12__is_integerIS7_E6__typeEE6__typeES7_S7_, symObjAddr: 0x715C, symBinAddr: 0x100007994, symSize: 0x28 }
  - { offset: 0x2648D, size: 0x8, addend: 0x0, symName: __ZN11__gnu_debug17__valid_range_auxIPNSt7__debug6vectorIiSaIiEEEEEbT_S6_St18input_iterator_tag, symObjAddr: 0x70EC, symBinAddr: 0x100007924, symSize: 0x70 }
  - { offset: 0x264D8, size: 0x8, addend: 0x0, symName: __ZN11__gnu_debug16__check_singularINSt7__debug6vectorIiSaIiEEEEEbRKPT_, symObjAddr: 0x70C8, symBinAddr: 0x100007900, symSize: 0x24 }
  - { offset: 0x2650E, size: 0x8, addend: 0x0, symName: __ZNK9__gnu_cxx17__normal_iteratorIPNSt7__debug6vectorIiSaIiEEENSt9__cxx19986vectorIS4_SaIS4_EEEEdeEv, symObjAddr: 0x70B0, symBinAddr: 0x1000078E8, symSize: 0x18 }
  - { offset: 0x26538, size: 0x8, addend: 0x0, symName: __ZN9__gnu_cxx17__normal_iteratorIPNSt7__debug6vectorIiSaIiEEENSt9__cxx19986vectorIS4_SaIS4_EEEEppEv, symObjAddr: 0x7088, symBinAddr: 0x1000078C0, symSize: 0x28 }
  - { offset: 0x26565, size: 0x8, addend: 0x0, symName: __ZN9__gnu_cxxneIPNSt7__debug6vectorIiSaIiEEENSt9__cxx19986vectorIS4_SaIS4_EEEEEbRKNS_17__normal_iteratorIT_T0_EESF_, symObjAddr: 0x7044, symBinAddr: 0x10000787C, symSize: 0x44 }
  - { offset: 0x265B6, size: 0x8, addend: 0x0, symName: __ZNK9__gnu_cxx17__normal_iteratorIPNSt7__debug6vectorIiSaIiEEENSt9__cxx19986vectorIS4_SaIS4_EEEEplEl, symObjAddr: 0x6FF8, symBinAddr: 0x100007830, symSize: 0x4C }
  - { offset: 0x265ED, size: 0x8, addend: 0x0, symName: __ZSt14__copy_move_a2ILb0EPKNSt7__debug6vectorIiSaIiEEEPS3_ET1_T0_S8_S7_, symObjAddr: 0x6FCC, symBinAddr: 0x100007804, symSize: 0x2C }
  - { offset: 0x26659, size: 0x8, addend: 0x0, symName: __ZNK9__gnu_cxx17__normal_iteratorIPNSt7__debug6vectorIiSaIiEEENSt9__cxx19986vectorIS4_SaIS4_EEEE4baseEv, symObjAddr: 0x6FB8, symBinAddr: 0x1000077F0, symSize: 0x14 }
  - { offset: 0x266C7, size: 0x8, addend: 0x0, symName: __ZN11__gnu_debug16_Error_formatter10_ParameterC1INSt7__debug6vectorIiSaIiEEEEERKPKT_PKcNS0_12_Is_iteratorE, symObjAddr: 0x6F08, symBinAddr: 0x100007740, symSize: 0xB0 }
  - { offset: 0x26711, size: 0x8, addend: 0x0, symName: __ZNK9__gnu_cxx17__normal_iteratorIPKNSt7__debug6vectorIiSaIiEEENSt9__cxx19986vectorIS4_SaIS4_EEEE4baseEv, symObjAddr: 0x6EF4, symBinAddr: 0x10000772C, symSize: 0x14 }
  - { offset: 0x26737, size: 0x8, addend: 0x0, symName: __ZN11__gnu_debug14__get_distanceIN9__gnu_cxx17__normal_iteratorIPKNSt7__debug6vectorIiSaIiEEENSt9__cxx19986vectorIS6_SaIS6_EEEEEEENS_16_Distance_traitsIT_NSt12__is_integerISF_E6__typeEE6__typeESF_SF_, symObjAddr: 0x6ECC, symBinAddr: 0x100007704, symSize: 0x28 }
  - { offset: 0x26799, size: 0x8, addend: 0x0, symName: __ZN11__gnu_debug17__valid_range_auxIN9__gnu_cxx17__normal_iteratorIPKNSt7__debug6vectorIiSaIiEEENSt9__cxx19986vectorIS6_SaIS6_EEEEEEEbT_SE_St18input_iterator_tag, symObjAddr: 0x6E54, symBinAddr: 0x10000768C, symSize: 0x78 }
  - { offset: 0x267E4, size: 0x8, addend: 0x0, symName: __ZN11__gnu_debug16__check_singularIN9__gnu_cxx17__normal_iteratorIPKNSt7__debug6vectorIiSaIiEEENSt9__cxx19986vectorIS6_SaIS6_EEEEEEEbRKT_, symObjAddr: 0x6E04, symBinAddr: 0x10000763C, symSize: 0x50 }
  - { offset: 0x2682F, size: 0x8, addend: 0x0, symName: __ZNSt20__uninitialized_copyILb0EE13__uninit_copyIN9__gnu_cxx17__normal_iteratorIPKNSt7__debug6vectorIiSaIiEEENSt9__cxx19986vectorIS7_SaIS7_EEEEEPS7_EET0_T_SH_SG_, symObjAddr: 0x6DD8, symBinAddr: 0x100007610, symSize: 0x2C }
  - { offset: 0x2688E, size: 0x8, addend: 0x0, symName: __ZNSt15__new_allocatorINSt7__debug6vectorIiSaIiEEEE8allocateEmPKv, symObjAddr: 0x6D40, symBinAddr: 0x100007578, symSize: 0x98 }
  - { offset: 0x26916, size: 0x8, addend: 0x0, symName: __ZSt20uninitialized_fill_nIPimiET_S1_T0_RKT1_, symObjAddr: 0x6D0C, symBinAddr: 0x100007544, symSize: 0x34 }
  - { offset: 0x269BF, size: 0x8, addend: 0x0, symName: __ZSt25__uninitialized_default_nIPNSt7__debug6vectorIiSaIiEEEmET_S5_T0_, symObjAddr: 0x6CE0, symBinAddr: 0x100007518, symSize: 0x2C }
  - { offset: 0x26A4E, size: 0x8, addend: 0x0, symName: __ZSt14__copy_move_a2ILb0EPxS0_ET1_T0_S2_S1_, symObjAddr: 0x6CB4, symBinAddr: 0x1000074EC, symSize: 0x2C }
  - { offset: 0x26ABC, size: 0x8, addend: 0x0, symName: __ZSt11__addressofIKPxEPT_RS2_, symObjAddr: 0x6CA0, symBinAddr: 0x1000074D8, symSize: 0x14 }
  - { offset: 0x26AEE, size: 0x8, addend: 0x0, symName: __ZN11__gnu_debug14__get_distanceIPxEENS_16_Distance_traitsIT_NSt12__is_integerIS3_E6__typeEE6__typeES3_S3_, symObjAddr: 0x6C78, symBinAddr: 0x1000074B0, symSize: 0x28 }
  - { offset: 0x26B50, size: 0x8, addend: 0x0, symName: __ZN11__gnu_debug17__valid_range_auxIPxEEbT_S2_St18input_iterator_tag, symObjAddr: 0x6C08, symBinAddr: 0x100007440, symSize: 0x70 }
  - { offset: 0x26B9B, size: 0x8, addend: 0x0, symName: __ZN11__gnu_debug16__check_singularIxEEbRKPT_, symObjAddr: 0x6BE4, symBinAddr: 0x10000741C, symSize: 0x24 }
  - { offset: 0x26BD1, size: 0x8, addend: 0x0, symName: __ZNK9__gnu_cxx17__normal_iteratorIPxNSt9__cxx19986vectorIxSaIxEEEEplEl, symObjAddr: 0x6BA4, symBinAddr: 0x1000073DC, symSize: 0x40 }
  - { offset: 0x26C08, size: 0x8, addend: 0x0, symName: __ZSt14__copy_move_a2ILb0EPKxPxET1_T0_S4_S3_, symObjAddr: 0x6B78, symBinAddr: 0x1000073B0, symSize: 0x2C }
  - { offset: 0x26C74, size: 0x8, addend: 0x0, symName: __ZNK9__gnu_cxx17__normal_iteratorIPxNSt9__cxx19986vectorIxSaIxEEEE4baseEv, symObjAddr: 0x6B64, symBinAddr: 0x10000739C, symSize: 0x14 }
  - { offset: 0x26CE2, size: 0x8, addend: 0x0, symName: __ZN11__gnu_debug16_Error_formatter10_ParameterC1IxEERKPKT_PKcNS0_12_Is_iteratorE, symObjAddr: 0x6AB4, symBinAddr: 0x1000072EC, symSize: 0xB0 }
  - { offset: 0x26D2C, size: 0x8, addend: 0x0, symName: __ZNK9__gnu_cxx17__normal_iteratorIPKxNSt9__cxx19986vectorIxSaIxEEEE4baseEv, symObjAddr: 0x6AA0, symBinAddr: 0x1000072D8, symSize: 0x14 }
  - { offset: 0x26D56, size: 0x8, addend: 0x0, symName: __ZNSt4pairIlN11__gnu_debug19_Distance_precisionEEaSEOS2_, symObjAddr: 0x6A58, symBinAddr: 0x100007290, symSize: 0x48 }
  - { offset: 0x26D8D, size: 0x8, addend: 0x0, symName: __ZN11__gnu_debug14__get_distanceIN9__gnu_cxx17__normal_iteratorIPKxNSt9__cxx19986vectorIxSaIxEEEEEEENS_16_Distance_traitsIT_NSt12__is_integerISB_E6__typeEE6__typeESB_SB_, symObjAddr: 0x6A30, symBinAddr: 0x100007268, symSize: 0x28 }
  - { offset: 0x26DEF, size: 0x8, addend: 0x0, symName: __ZN11__gnu_debug17__valid_range_auxIN9__gnu_cxx17__normal_iteratorIPKxNSt9__cxx19986vectorIxSaIxEEEEEEEbT_SA_St18input_iterator_tag, symObjAddr: 0x69B8, symBinAddr: 0x1000071F0, symSize: 0x78 }
  - { offset: 0x26E3A, size: 0x8, addend: 0x0, symName: __ZN11__gnu_debug16__check_singularIN9__gnu_cxx17__normal_iteratorIPKxNSt9__cxx19986vectorIxSaIxEEEEEEEbRKT_, symObjAddr: 0x6968, symBinAddr: 0x1000071A0, symSize: 0x50 }
  - { offset: 0x26E85, size: 0x8, addend: 0x0, symName: __ZNSt20__uninitialized_copyILb1EE13__uninit_copyIN9__gnu_cxx17__normal_iteratorIPKxNSt9__cxx19986vectorIxSaIxEEEEEPxEET0_T_SD_SC_, symObjAddr: 0x693C, symBinAddr: 0x100007174, symSize: 0x2C }
  - { offset: 0x26EE4, size: 0x8, addend: 0x0, symName: __ZNSt15__new_allocatorIxE8allocateEmPKv, symObjAddr: 0x68C0, symBinAddr: 0x1000070F8, symSize: 0x7C }
  - { offset: 0x26F6C, size: 0x8, addend: 0x0, symName: __ZSt25__uninitialized_default_nIPxmET_S1_T0_, symObjAddr: 0x6894, symBinAddr: 0x1000070CC, symSize: 0x2C }
  - { offset: 0x26FFB, size: 0x8, addend: 0x0, symName: __ZSt8_DestroyINSt7__debug6vectorIiSaIiEEEEvPT_, symObjAddr: 0x6874, symBinAddr: 0x1000070AC, symSize: 0x20 }
  - { offset: 0x2702D, size: 0x8, addend: 0x0, symName: __ZSt11__addressofINSt7__debug6vectorIiSaIiEEEEPT_RS4_, symObjAddr: 0x6860, symBinAddr: 0x100007098, symSize: 0x14 }
  - { offset: 0x2705F, size: 0x8, addend: 0x0, symName: __ZNSt9__cxx19986vectorIiSaIiEE11_S_relocateEPiS3_S3_RS1_, symObjAddr: 0x682C, symBinAddr: 0x100007064, symSize: 0x34 }
  - { offset: 0x270BC, size: 0x8, addend: 0x0, symName: __ZSt12__to_addressIiEPT_S1_, symObjAddr: 0x6818, symBinAddr: 0x100007050, symSize: 0x14 }
  - { offset: 0x270EE, size: 0x8, addend: 0x0, symName: __ZN9__gnu_cxxmiIPiNSt9__cxx19986vectorIiSaIiEEEEENS_17__normal_iteratorIT_T0_E15difference_typeERKS9_SC_, symObjAddr: 0x67D8, symBinAddr: 0x100007010, symSize: 0x40 }
  - { offset: 0x2713F, size: 0x8, addend: 0x0, symName: __ZNKSt9__cxx19986vectorIiSaIiEE12_M_check_lenEmPKc, symObjAddr: 0x6708, symBinAddr: 0x100006F40, symSize: 0xD0 }
  - { offset: 0x271E1, size: 0x8, addend: 0x0, symName: __ZSt7forwardIRKiEOT_RNSt16remove_referenceIS2_E4typeE, symObjAddr: 0x66F4, symBinAddr: 0x100006F2C, symSize: 0x14 }
  - { offset: 0x27213, size: 0x8, addend: 0x0, symName: __ZNSt20__uninitialized_copyILb1EE13__uninit_copyIPiS2_EET0_T_S4_S3_, symObjAddr: 0x66C8, symBinAddr: 0x100006F00, symSize: 0x2C }
  - { offset: 0x2726E, size: 0x8, addend: 0x0, symName: __ZSt12__niter_wrapIPiET_RKS1_S1_, symObjAddr: 0x66B0, symBinAddr: 0x100006EE8, symSize: 0x18 }
  - { offset: 0x272AA, size: 0x8, addend: 0x0, symName: __ZSt14__copy_move_a1ILb0EPiS0_ET1_T0_S2_S1_, symObjAddr: 0x6684, symBinAddr: 0x100006EBC, symSize: 0x2C }
  - { offset: 0x27312, size: 0x8, addend: 0x0, symName: __ZSt12__niter_baseIPiET_S1_, symObjAddr: 0x6670, symBinAddr: 0x100006EA8, symSize: 0x14 }
  - { offset: 0x2738D, size: 0x8, addend: 0x0, symName: __ZN11__gnu_debug16_Error_formatter10_ParameterC1IiEERKPT_PKcNS0_12_Is_iteratorE, symObjAddr: 0x65C0, symBinAddr: 0x100006DF8, symSize: 0xB0 }
  - { offset: 0x273DA, size: 0x8, addend: 0x0, symName: __ZN11__gnu_debug17__valid_range_auxIPiEEbT_S2_RNS_16_Distance_traitsIS2_NSt12__is_integerIS2_E6__typeEE6__typeESt12__false_type, symObjAddr: 0x64EC, symBinAddr: 0x100006D24, symSize: 0xD4 }
  - { offset: 0x27435, size: 0x8, addend: 0x0, symName: __ZNSt12_Destroy_auxILb1EE9__destroyIN9__gnu_cxx17__normal_iteratorIPiNSt9__cxx19986vectorIiSaIiEEEEEEEvT_SA_, symObjAddr: 0x64D4, symBinAddr: 0x100006D0C, symSize: 0x18 }
  - { offset: 0x27469, size: 0x8, addend: 0x0, symName: __ZSt12__niter_wrapIN9__gnu_cxx17__normal_iteratorIPiNSt9__cxx19986vectorIiSaIiEEEEES2_ET_S8_T0_, symObjAddr: 0x648C, symBinAddr: 0x100006CC4, symSize: 0x48 }
  - { offset: 0x274B6, size: 0x8, addend: 0x0, symName: __ZSt14__copy_move_a1ILb0EPKiPiET1_T0_S4_S3_, symObjAddr: 0x6460, symBinAddr: 0x100006C98, symSize: 0x2C }
  - { offset: 0x2751E, size: 0x8, addend: 0x0, symName: __ZSt12__niter_baseIPiNSt9__cxx19986vectorIiSaIiEEEET_N9__gnu_cxx17__normal_iteratorIS5_T0_EE, symObjAddr: 0x6440, symBinAddr: 0x100006C78, symSize: 0x20 }
  - { offset: 0x2755A, size: 0x8, addend: 0x0, symName: __ZSt12__niter_baseIPKiNSt9__cxx19986vectorIiSaIiEEEET_N9__gnu_cxx17__normal_iteratorIS6_T0_EE, symObjAddr: 0x6420, symBinAddr: 0x100006C58, symSize: 0x20 }
  - { offset: 0x275E7, size: 0x8, addend: 0x0, symName: __ZN11__gnu_debug16_Error_formatter10_ParameterC1IPiNSt9__cxx19986vectorIiSaIiEEEEERKN9__gnu_cxx17__normal_iteratorIT_T0_EEPKcNS0_12_Is_iteratorE, symObjAddr: 0x63C8, symBinAddr: 0x100006C00, symSize: 0x58 }
  - { offset: 0x27687, size: 0x8, addend: 0x0, symName: __ZN11__gnu_debug16_Error_formatter10_ParameterC1IPKiNSt9__cxx19986vectorIiSaIiEEEEERKN9__gnu_cxx17__normal_iteratorIT_T0_EEPKcNS0_12_Is_iteratorE, symObjAddr: 0x6370, symBinAddr: 0x100006BA8, symSize: 0x58 }
  - { offset: 0x276DD, size: 0x8, addend: 0x0, symName: __ZN11__gnu_debug17__valid_range_auxIN9__gnu_cxx17__normal_iteratorIPKiNSt9__cxx19986vectorIiSaIiEEEEEEEbT_SA_RNS_16_Distance_traitsISA_NSt12__is_integerISA_E6__typeEE6__typeESt12__false_type, symObjAddr: 0x629C, symBinAddr: 0x100006AD4, symSize: 0xD4 }
  - { offset: 0x27738, size: 0x8, addend: 0x0, symName: __ZSt18uninitialized_copyIN9__gnu_cxx17__normal_iteratorIPKiNSt9__cxx19986vectorIiSaIiEEEEEPiET0_T_SB_SA_, symObjAddr: 0x6260, symBinAddr: 0x100006A98, symSize: 0x3C }
  - { offset: 0x277D7, size: 0x8, addend: 0x0, symName: __ZNSt20__uninitialized_copyILb0EE13__uninit_copyIPNSt7__debug6vectorIiSaIiEEES6_EET0_T_S8_S7_, symObjAddr: 0x6234, symBinAddr: 0x100006A6C, symSize: 0x2C }
  - { offset: 0x27832, size: 0x8, addend: 0x0, symName: __ZSt12__niter_wrapIPNSt7__debug6vectorIiSaIiEEEET_RKS5_S5_, symObjAddr: 0x621C, symBinAddr: 0x100006A54, symSize: 0x18 }
  - { offset: 0x2786E, size: 0x8, addend: 0x0, symName: __ZSt14__copy_move_a1ILb0EPNSt7__debug6vectorIiSaIiEEES4_ET1_T0_S6_S5_, symObjAddr: 0x61F0, symBinAddr: 0x100006A28, symSize: 0x2C }
  - { offset: 0x278D6, size: 0x8, addend: 0x0, symName: __ZSt12__niter_baseIPNSt7__debug6vectorIiSaIiEEEET_S5_, symObjAddr: 0x61DC, symBinAddr: 0x100006A14, symSize: 0x14 }
  - { offset: 0x27951, size: 0x8, addend: 0x0, symName: __ZN11__gnu_debug16_Error_formatter10_ParameterC1INSt7__debug6vectorIiSaIiEEEEERKPT_PKcNS0_12_Is_iteratorE, symObjAddr: 0x612C, symBinAddr: 0x100006964, symSize: 0xB0 }
  - { offset: 0x2799E, size: 0x8, addend: 0x0, symName: __ZN11__gnu_debug17__valid_range_auxIPNSt7__debug6vectorIiSaIiEEEEEbT_S6_RNS_16_Distance_traitsIS6_NSt12__is_integerIS6_E6__typeEE6__typeESt12__false_type, symObjAddr: 0x6058, symBinAddr: 0x100006890, symSize: 0xD4 }
  - { offset: 0x279F9, size: 0x8, addend: 0x0, symName: __ZNSt12_Destroy_auxILb0EE9__destroyIN9__gnu_cxx17__normal_iteratorIPNSt7__debug6vectorIiSaIiEEENSt9__cxx19986vectorIS7_SaIS7_EEEEEEEvT_SE_, symObjAddr: 0x6004, symBinAddr: 0x10000683C, symSize: 0x54 }
  - { offset: 0x27A3B, size: 0x8, addend: 0x0, symName: __ZSt12__niter_wrapIN9__gnu_cxx17__normal_iteratorIPNSt7__debug6vectorIiSaIiEEENSt9__cxx19986vectorIS5_SaIS5_EEEEES6_ET_SC_T0_, symObjAddr: 0x5FA8, symBinAddr: 0x1000067E0, symSize: 0x5C }
  - { offset: 0x27A88, size: 0x8, addend: 0x0, symName: __ZSt14__copy_move_a1ILb0EPKNSt7__debug6vectorIiSaIiEEEPS3_ET1_T0_S8_S7_, symObjAddr: 0x5F7C, symBinAddr: 0x1000067B4, symSize: 0x2C }
  - { offset: 0x27AF0, size: 0x8, addend: 0x0, symName: __ZSt12__niter_baseIPNSt7__debug6vectorIiSaIiEEENSt9__cxx19986vectorIS3_SaIS3_EEEET_N9__gnu_cxx17__normal_iteratorIS9_T0_EE, symObjAddr: 0x5F5C, symBinAddr: 0x100006794, symSize: 0x20 }
  - { offset: 0x27B2C, size: 0x8, addend: 0x0, symName: __ZSt12__niter_baseIPKNSt7__debug6vectorIiSaIiEEENSt9__cxx19986vectorIS3_SaIS3_EEEET_N9__gnu_cxx17__normal_iteratorISA_T0_EE, symObjAddr: 0x5F3C, symBinAddr: 0x100006774, symSize: 0x20 }
  - { offset: 0x27BB9, size: 0x8, addend: 0x0, symName: __ZN11__gnu_debug16_Error_formatter10_ParameterC1IPNSt7__debug6vectorIiSaIiEEENSt9__cxx19986vectorIS6_SaIS6_EEEEERKN9__gnu_cxx17__normal_iteratorIT_T0_EEPKcNS0_12_Is_iteratorE, symObjAddr: 0x5EE4, symBinAddr: 0x10000671C, symSize: 0x58 }
  - { offset: 0x27C59, size: 0x8, addend: 0x0, symName: __ZN11__gnu_debug16_Error_formatter10_ParameterC1IPKNSt7__debug6vectorIiSaIiEEENSt9__cxx19986vectorIS6_SaIS6_EEEEERKN9__gnu_cxx17__normal_iteratorIT_T0_EEPKcNS0_12_Is_iteratorE, symObjAddr: 0x5E8C, symBinAddr: 0x1000066C4, symSize: 0x58 }
  - { offset: 0x27CAF, size: 0x8, addend: 0x0, symName: __ZN11__gnu_debug17__valid_range_auxIN9__gnu_cxx17__normal_iteratorIPKNSt7__debug6vectorIiSaIiEEENSt9__cxx19986vectorIS6_SaIS6_EEEEEEEbT_SE_RNS_16_Distance_traitsISE_NSt12__is_integerISE_E6__typeEE6__typeESt12__false_type, symObjAddr: 0x5DB8, symBinAddr: 0x1000065F0, symSize: 0xD4 }
  - { offset: 0x27D0A, size: 0x8, addend: 0x0, symName: __ZSt18uninitialized_copyIN9__gnu_cxx17__normal_iteratorIPKNSt7__debug6vectorIiSaIiEEENSt9__cxx19986vectorIS5_SaIS5_EEEEEPS5_ET0_T_SF_SE_, symObjAddr: 0x5D84, symBinAddr: 0x1000065BC, symSize: 0x34 }
  - { offset: 0x27DA9, size: 0x8, addend: 0x0, symName: __ZSt24__uninitialized_fill_n_aIPimiiET_S1_T0_RKT1_RSaIT2_E, symObjAddr: 0x5D54, symBinAddr: 0x10000658C, symSize: 0x30 }
  - { offset: 0x27E26, size: 0x8, addend: 0x0, symName: __ZNSt9__cxx199812_Vector_baseIiSaIiEE17_M_create_storageEm, symObjAddr: 0x5CF4, symBinAddr: 0x10000652C, symSize: 0x60 }
  - { offset: 0x27E88, size: 0x8, addend: 0x0, symName: __ZNSt9__cxx199812_Vector_baseIiSaIiEE12_Vector_implC1ERKS1_, symObjAddr: 0x5CA8, symBinAddr: 0x1000064E0, symSize: 0x4C }
  - { offset: 0x27F2E, size: 0x8, addend: 0x0, symName: __ZNSt9__cxx19986vectorIiSaIiEE11_S_max_sizeERKS1_, symObjAddr: 0x5C54, symBinAddr: 0x10000648C, symSize: 0x54 }
  - { offset: 0x27FE5, size: 0x8, addend: 0x0, symName: __ZSt27__uninitialized_default_n_aIPNSt7__debug6vectorIiSaIiEEEmS3_ET_S5_T0_RSaIT1_E, symObjAddr: 0x5C2C, symBinAddr: 0x100006464, symSize: 0x28 }
  - { offset: 0x28048, size: 0x8, addend: 0x0, symName: __ZNSt9__cxx199812_Vector_baseINSt7__debug6vectorIiSaIiEEESaIS4_EE17_M_create_storageEm, symObjAddr: 0x5BC0, symBinAddr: 0x1000063F8, symSize: 0x6C }
  - { offset: 0x280AA, size: 0x8, addend: 0x0, symName: __ZNSt9__cxx199812_Vector_baseINSt7__debug6vectorIiSaIiEEESaIS4_EE12_Vector_implC1ERKS5_, symObjAddr: 0x5B74, symBinAddr: 0x1000063AC, symSize: 0x4C }
  - { offset: 0x28150, size: 0x8, addend: 0x0, symName: __ZNSt9__cxx19986vectorINSt7__debug6vectorIiSaIiEEESaIS4_EE11_S_max_sizeERKS5_, symObjAddr: 0x5B10, symBinAddr: 0x100006348, symSize: 0x64 }
  - { offset: 0x28207, size: 0x8, addend: 0x0, symName: __ZSt11__addressofIKNSt7__debug6vectorIxSaIxEEEEPT_RS5_, symObjAddr: 0x5AFC, symBinAddr: 0x100006334, symSize: 0x14 }
  - { offset: 0x28239, size: 0x8, addend: 0x0, symName: __ZNSt20__uninitialized_copyILb1EE13__uninit_copyIPxS2_EET0_T_S4_S3_, symObjAddr: 0x5AD0, symBinAddr: 0x100006308, symSize: 0x2C }
  - { offset: 0x28294, size: 0x8, addend: 0x0, symName: __ZSt12__niter_wrapIPxET_RKS1_S1_, symObjAddr: 0x5AB8, symBinAddr: 0x1000062F0, symSize: 0x18 }
  - { offset: 0x282D0, size: 0x8, addend: 0x0, symName: __ZSt14__copy_move_a1ILb0EPxS0_ET1_T0_S2_S1_, symObjAddr: 0x5A8C, symBinAddr: 0x1000062C4, symSize: 0x2C }
  - { offset: 0x28338, size: 0x8, addend: 0x0, symName: __ZSt12__niter_baseIPxET_S1_, symObjAddr: 0x5A78, symBinAddr: 0x1000062B0, symSize: 0x14 }
  - { offset: 0x283B3, size: 0x8, addend: 0x0, symName: __ZN11__gnu_debug16_Error_formatter10_ParameterC1IxEERKPT_PKcNS0_12_Is_iteratorE, symObjAddr: 0x59C8, symBinAddr: 0x100006200, symSize: 0xB0 }
  - { offset: 0x28400, size: 0x8, addend: 0x0, symName: __ZN11__gnu_debug17__valid_range_auxIPxEEbT_S2_RNS_16_Distance_traitsIS2_NSt12__is_integerIS2_E6__typeEE6__typeESt12__false_type, symObjAddr: 0x58F4, symBinAddr: 0x10000612C, symSize: 0xD4 }
  - { offset: 0x2845B, size: 0x8, addend: 0x0, symName: __ZNSt12_Destroy_auxILb1EE9__destroyIN9__gnu_cxx17__normal_iteratorIPxNSt9__cxx19986vectorIxSaIxEEEEEEEvT_SA_, symObjAddr: 0x58DC, symBinAddr: 0x100006114, symSize: 0x18 }
  - { offset: 0x2848F, size: 0x8, addend: 0x0, symName: __ZSt12__niter_wrapIN9__gnu_cxx17__normal_iteratorIPxNSt9__cxx19986vectorIxSaIxEEEEES2_ET_S8_T0_, symObjAddr: 0x5894, symBinAddr: 0x1000060CC, symSize: 0x48 }
  - { offset: 0x284DC, size: 0x8, addend: 0x0, symName: __ZSt14__copy_move_a1ILb0EPKxPxET1_T0_S4_S3_, symObjAddr: 0x5868, symBinAddr: 0x1000060A0, symSize: 0x2C }
  - { offset: 0x28544, size: 0x8, addend: 0x0, symName: __ZSt12__niter_baseIPxNSt9__cxx19986vectorIxSaIxEEEET_N9__gnu_cxx17__normal_iteratorIS5_T0_EE, symObjAddr: 0x5848, symBinAddr: 0x100006080, symSize: 0x20 }
  - { offset: 0x28580, size: 0x8, addend: 0x0, symName: __ZSt12__niter_baseIPKxNSt9__cxx19986vectorIxSaIxEEEET_N9__gnu_cxx17__normal_iteratorIS6_T0_EE, symObjAddr: 0x5828, symBinAddr: 0x100006060, symSize: 0x20 }
  - { offset: 0x28614, size: 0x8, addend: 0x0, symName: __ZN11__gnu_debug16_Error_formatter10_ParameterC1IPxNSt9__cxx19986vectorIxSaIxEEEEERKN9__gnu_cxx17__normal_iteratorIT_T0_EEPKcNS0_12_Is_iteratorE, symObjAddr: 0x57D0, symBinAddr: 0x100006008, symSize: 0x58 }
  - { offset: 0x286B4, size: 0x8, addend: 0x0, symName: __ZN11__gnu_debug16_Error_formatter10_ParameterC1IPKxNSt9__cxx19986vectorIxSaIxEEEEERKN9__gnu_cxx17__normal_iteratorIT_T0_EEPKcNS0_12_Is_iteratorE, symObjAddr: 0x5778, symBinAddr: 0x100005FB0, symSize: 0x58 }
  - { offset: 0x2870A, size: 0x8, addend: 0x0, symName: __ZN11__gnu_debug17__valid_range_auxIN9__gnu_cxx17__normal_iteratorIPKxNSt9__cxx19986vectorIxSaIxEEEEEEEbT_SA_RNS_16_Distance_traitsISA_NSt12__is_integerISA_E6__typeEE6__typeESt12__false_type, symObjAddr: 0x56A4, symBinAddr: 0x100005EDC, symSize: 0xD4 }
  - { offset: 0x28765, size: 0x8, addend: 0x0, symName: __ZSt18uninitialized_copyIN9__gnu_cxx17__normal_iteratorIPKxNSt9__cxx19986vectorIxSaIxEEEEEPxET0_T_SB_SA_, symObjAddr: 0x5668, symBinAddr: 0x100005EA0, symSize: 0x3C }
  - { offset: 0x28804, size: 0x8, addend: 0x0, symName: __ZSt27__uninitialized_default_n_aIPxmxET_S1_T0_RSaIT1_E, symObjAddr: 0x5640, symBinAddr: 0x100005E78, symSize: 0x28 }
  - { offset: 0x28867, size: 0x8, addend: 0x0, symName: __ZNSt9__cxx199812_Vector_baseIxSaIxEE17_M_create_storageEm, symObjAddr: 0x55E0, symBinAddr: 0x100005E18, symSize: 0x60 }
  - { offset: 0x288C9, size: 0x8, addend: 0x0, symName: __ZNSt9__cxx199812_Vector_baseIxSaIxEE12_Vector_implC1ERKS1_, symObjAddr: 0x5594, symBinAddr: 0x100005DCC, symSize: 0x4C }
  - { offset: 0x2896F, size: 0x8, addend: 0x0, symName: __ZNSt9__cxx19986vectorIxSaIxEE11_S_max_sizeERKS1_, symObjAddr: 0x5540, symBinAddr: 0x100005D78, symSize: 0x54 }
  - { offset: 0x28A26, size: 0x8, addend: 0x0, symName: __ZSt11__addressofIKNSt7__debug6vectorINS1_IiSaIiEEESaIS3_EEEEPT_RS7_, symObjAddr: 0x552C, symBinAddr: 0x100005D64, symSize: 0x14 }
  - { offset: 0x28A58, size: 0x8, addend: 0x0, symName: __ZSt11__addressofIKNSt7__debug6vectorIiSaIiEEEEPT_RS5_, symObjAddr: 0x5518, symBinAddr: 0x100005D50, symSize: 0x14 }
  - { offset: 0x28A8A, size: 0x8, addend: 0x0, symName: __ZNSt12_Destroy_auxILb1EE9__destroyIPiEEvT_S3_, symObjAddr: 0x5500, symBinAddr: 0x100005D38, symSize: 0x18 }
  - { offset: 0x28AC2, size: 0x8, addend: 0x0, symName: __ZNSt15__new_allocatorIiE10deallocateEPim, symObjAddr: 0x54D0, symBinAddr: 0x100005D08, symSize: 0x30 }
  - { offset: 0x28B08, size: 0x8, addend: 0x0, symName: __ZNSt12_Destroy_auxILb0EE9__destroyIPNSt7__debug6vectorIiSaIiEEEEEvT_S7_, symObjAddr: 0x5484, symBinAddr: 0x100005CBC, symSize: 0x4C }
  - { offset: 0x28B4E, size: 0x8, addend: 0x0, symName: __ZNSt15__new_allocatorINSt7__debug6vectorIiSaIiEEEE10deallocateEPS3_m, symObjAddr: 0x5448, symBinAddr: 0x100005C80, symSize: 0x3C }
  - { offset: 0x28B94, size: 0x8, addend: 0x0, symName: __ZNSt12_Destroy_auxILb1EE9__destroyIPxEEvT_S3_, symObjAddr: 0x5430, symBinAddr: 0x100005C68, symSize: 0x18 }
  - { offset: 0x28BCC, size: 0x8, addend: 0x0, symName: __ZNSt15__new_allocatorIxE10deallocateEPxm, symObjAddr: 0x5400, symBinAddr: 0x100005C38, symSize: 0x30 }
  - { offset: 0x28C16, size: 0x8, addend: 0x0, symName: __ZNKSt7__debug6vectorIiSaIiEE8capacityEv, symObjAddr: 0x53BC, symBinAddr: 0x100005BF4, symSize: 0x44 }
  - { offset: 0x28C5A, size: 0x8, addend: 0x0, symName: __ZNSt9__cxx19986vectorIiSaIiEE17_M_realloc_appendIJRKiEEEvDpOT_, symObjAddr: 0x5200, symBinAddr: 0x100005A38, symSize: 0x1BC }
  - { offset: 0x28DDF, size: 0x8, addend: 0x0, symName: __ZZNSt9__cxx19986vectorIiSaIiEE17_M_realloc_appendIJRKiEEEvDpOT_EN6_GuardC1EPimRS1_, symObjAddr: 0x515C, symBinAddr: 0x100005994, symSize: 0x44 }
  - { offset: 0x28E24, size: 0x8, addend: 0x0, symName: __ZZNSt9__cxx19986vectorIiSaIiEE17_M_realloc_appendIJRKiEEEvDpOT_EN6_GuardD1Ev, symObjAddr: 0x51A0, symBinAddr: 0x1000059D8, symSize: 0x60 }
  - { offset: 0x28F57, size: 0x8, addend: 0x0, symName: __ZSt18uninitialized_copyIPiS0_ET0_T_S2_S1_, symObjAddr: 0x5120, symBinAddr: 0x100005958, symSize: 0x3C }
  - { offset: 0x28FD2, size: 0x8, addend: 0x0, symName: __ZSt13__copy_move_aILb0EPiS0_ET1_T0_S2_S1_, symObjAddr: 0x50C0, symBinAddr: 0x1000058F8, symSize: 0x60 }
  - { offset: 0x2903A, size: 0x8, addend: 0x0, symName: __ZSt12__miter_baseIPiET_S1_, symObjAddr: 0x50AC, symBinAddr: 0x1000058E4, symSize: 0x14 }
  - { offset: 0x2906D, size: 0x8, addend: 0x0, symName: __ZN11__gnu_debug13__can_advanceIPilEEbT_RKSt4pairIT0_NS_19_Distance_precisionEEi, symObjAddr: 0x5090, symBinAddr: 0x1000058C8, symSize: 0x1C }
  - { offset: 0x290B7, size: 0x8, addend: 0x0, symName: __ZN11__gnu_debug16_Error_formatter11_M_iteratorIPiEERS0_RKT_PKc, symObjAddr: 0x4FF4, symBinAddr: 0x10000582C, symSize: 0x9C }
  - { offset: 0x2910B, size: 0x8, addend: 0x0, symName: __ZN11__gnu_debug13__valid_rangeIPiEEbT_S2_RNS_16_Distance_traitsIS2_NSt12__is_integerIS2_E6__typeEE6__typeE, symObjAddr: 0x4FC8, symBinAddr: 0x100005800, symSize: 0x2C }
  - { offset: 0x2915D, size: 0x8, addend: 0x0, symName: __ZSt8_DestroyIN9__gnu_cxx17__normal_iteratorIPiNSt9__cxx19986vectorIiSaIiEEEEEEvT_S8_, symObjAddr: 0x4FA0, symBinAddr: 0x1000057D8, symSize: 0x28 }
  - { offset: 0x2919F, size: 0x8, addend: 0x0, symName: __ZSt13__copy_move_aILb0EN9__gnu_cxx17__normal_iteratorIPKiNSt9__cxx19986vectorIiSaIiEEEEENS1_IPiS7_EEET1_T0_SC_SB_, symObjAddr: 0x4F40, symBinAddr: 0x100005778, symSize: 0x60 }
  - { offset: 0x29207, size: 0x8, addend: 0x0, symName: __ZSt12__miter_baseIN9__gnu_cxx17__normal_iteratorIPKiNSt9__cxx19986vectorIiSaIiEEEEEET_S9_, symObjAddr: 0x4F2C, symBinAddr: 0x100005764, symSize: 0x14 }
  - { offset: 0x2923E, size: 0x8, addend: 0x0, symName: __ZN11__gnu_debug16_Error_formatter11_M_iteratorIN9__gnu_cxx17__normal_iteratorIPiNSt9__cxx19986vectorIiSaIiEEEEEEERS0_RKT_PKc, symObjAddr: 0x4E90, symBinAddr: 0x1000056C8, symSize: 0x9C }
  - { offset: 0x29292, size: 0x8, addend: 0x0, symName: __ZN11__gnu_debug13__can_advanceIN9__gnu_cxx17__normal_iteratorIPiNSt9__cxx19986vectorIiSaIiEEEEElEEbT_RKSt4pairIT0_NS_19_Distance_precisionEEi, symObjAddr: 0x4E74, symBinAddr: 0x1000056AC, symSize: 0x1C }
  - { offset: 0x292DC, size: 0x8, addend: 0x0, symName: __ZN11__gnu_debug16_Error_formatter11_M_iteratorIN9__gnu_cxx17__normal_iteratorIPKiNSt9__cxx19986vectorIiSaIiEEEEEEERS0_RKT_PKc, symObjAddr: 0x4DD8, symBinAddr: 0x100005610, symSize: 0x9C }
  - { offset: 0x29330, size: 0x8, addend: 0x0, symName: __ZN11__gnu_debug13__valid_rangeIN9__gnu_cxx17__normal_iteratorIPKiNSt9__cxx19986vectorIiSaIiEEEEEEEbT_SA_RNS_16_Distance_traitsISA_NSt12__is_integerISA_E6__typeEE6__typeE, symObjAddr: 0x4DAC, symBinAddr: 0x1000055E4, symSize: 0x2C }
  - { offset: 0x293AE, size: 0x8, addend: 0x0, symName: __ZN9__gnu_cxx17__normal_iteratorIPiNSt9__cxx19986vectorIiSaIiEEEEC1ERKS1_, symObjAddr: 0x4D84, symBinAddr: 0x1000055BC, symSize: 0x28 }
  - { offset: 0x293D9, size: 0x8, addend: 0x0, symName: __ZSt22__uninitialized_copy_aIN9__gnu_cxx17__normal_iteratorIPKiNSt9__cxx19986vectorIiSaIiEEEEEPiiET0_T_SB_SA_RSaIT1_E, symObjAddr: 0x4D54, symBinAddr: 0x10000558C, symSize: 0x30 }
  - { offset: 0x2944D, size: 0x8, addend: 0x0, symName: __ZNSt9__cxx199812_Vector_baseIiSaIiEE11_M_allocateEm, symObjAddr: 0x4D04, symBinAddr: 0x10000553C, symSize: 0x50 }
  - { offset: 0x294DD, size: 0x8, addend: 0x0, symName: __ZN9__gnu_cxx17__normal_iteratorIPKiNSt9__cxx19986vectorIiSaIiEEEEC1ERKS2_, symObjAddr: 0x4CDC, symBinAddr: 0x100005514, symSize: 0x28 }
  - { offset: 0x2950C, size: 0x8, addend: 0x0, symName: __ZNSt9__cxx19986vectorIiSaIiEE15_M_erase_at_endEPi, symObjAddr: 0x4C54, symBinAddr: 0x10000548C, symSize: 0x88 }
  - { offset: 0x2959D, size: 0x8, addend: 0x0, symName: __ZSt18uninitialized_copyIPNSt7__debug6vectorIiSaIiEEES4_ET0_T_S6_S5_, symObjAddr: 0x4C20, symBinAddr: 0x100005458, symSize: 0x34 }
  - { offset: 0x29618, size: 0x8, addend: 0x0, symName: __ZSt13__copy_move_aILb0EPNSt7__debug6vectorIiSaIiEEES4_ET1_T0_S6_S5_, symObjAddr: 0x4BC0, symBinAddr: 0x1000053F8, symSize: 0x60 }
  - { offset: 0x29680, size: 0x8, addend: 0x0, symName: __ZSt12__miter_baseIPNSt7__debug6vectorIiSaIiEEEET_S5_, symObjAddr: 0x4BAC, symBinAddr: 0x1000053E4, symSize: 0x14 }
  - { offset: 0x296B3, size: 0x8, addend: 0x0, symName: __ZN11__gnu_debug13__can_advanceIPNSt7__debug6vectorIiSaIiEEElEEbT_RKSt4pairIT0_NS_19_Distance_precisionEEi, symObjAddr: 0x4B90, symBinAddr: 0x1000053C8, symSize: 0x1C }
  - { offset: 0x296FD, size: 0x8, addend: 0x0, symName: __ZN11__gnu_debug16_Error_formatter11_M_iteratorIPNSt7__debug6vectorIiSaIiEEEEERS0_RKT_PKc, symObjAddr: 0x4AF4, symBinAddr: 0x10000532C, symSize: 0x9C }
  - { offset: 0x29751, size: 0x8, addend: 0x0, symName: __ZN11__gnu_debug13__valid_rangeIPNSt7__debug6vectorIiSaIiEEEEEbT_S6_RNS_16_Distance_traitsIS6_NSt12__is_integerIS6_E6__typeEE6__typeE, symObjAddr: 0x4AC8, symBinAddr: 0x100005300, symSize: 0x2C }
  - { offset: 0x297A3, size: 0x8, addend: 0x0, symName: __ZSt8_DestroyIN9__gnu_cxx17__normal_iteratorIPNSt7__debug6vectorIiSaIiEEENSt9__cxx19986vectorIS5_SaIS5_EEEEEEvT_SC_, symObjAddr: 0x4AA0, symBinAddr: 0x1000052D8, symSize: 0x28 }
  - { offset: 0x297E5, size: 0x8, addend: 0x0, symName: __ZSt13__copy_move_aILb0EN9__gnu_cxx17__normal_iteratorIPKNSt7__debug6vectorIiSaIiEEENSt9__cxx19986vectorIS5_SaIS5_EEEEENS1_IPS5_SB_EEET1_T0_SG_SF_, symObjAddr: 0x4A40, symBinAddr: 0x100005278, symSize: 0x60 }
  - { offset: 0x2984D, size: 0x8, addend: 0x0, symName: __ZSt12__miter_baseIN9__gnu_cxx17__normal_iteratorIPKNSt7__debug6vectorIiSaIiEEENSt9__cxx19986vectorIS5_SaIS5_EEEEEET_SD_, symObjAddr: 0x4A2C, symBinAddr: 0x100005264, symSize: 0x14 }
  - { offset: 0x29884, size: 0x8, addend: 0x0, symName: __ZN11__gnu_debug16_Error_formatter11_M_iteratorIN9__gnu_cxx17__normal_iteratorIPNSt7__debug6vectorIiSaIiEEENSt9__cxx19986vectorIS7_SaIS7_EEEEEEERS0_RKT_PKc, symObjAddr: 0x4990, symBinAddr: 0x1000051C8, symSize: 0x9C }
  - { offset: 0x298D8, size: 0x8, addend: 0x0, symName: __ZN11__gnu_debug13__can_advanceIN9__gnu_cxx17__normal_iteratorIPNSt7__debug6vectorIiSaIiEEENSt9__cxx19986vectorIS6_SaIS6_EEEEElEEbT_RKSt4pairIT0_NS_19_Distance_precisionEEi, symObjAddr: 0x4974, symBinAddr: 0x1000051AC, symSize: 0x1C }
  - { offset: 0x29922, size: 0x8, addend: 0x0, symName: __ZN11__gnu_debug16_Error_formatter11_M_iteratorIN9__gnu_cxx17__normal_iteratorIPKNSt7__debug6vectorIiSaIiEEENSt9__cxx19986vectorIS7_SaIS7_EEEEEEERS0_RKT_PKc, symObjAddr: 0x48D8, symBinAddr: 0x100005110, symSize: 0x9C }
  - { offset: 0x29976, size: 0x8, addend: 0x0, symName: __ZN11__gnu_debug13__valid_rangeIN9__gnu_cxx17__normal_iteratorIPKNSt7__debug6vectorIiSaIiEEENSt9__cxx19986vectorIS6_SaIS6_EEEEEEEbT_SE_RNS_16_Distance_traitsISE_NSt12__is_integerISE_E6__typeEE6__typeE, symObjAddr: 0x48AC, symBinAddr: 0x1000050E4, symSize: 0x2C }
  - { offset: 0x299F4, size: 0x8, addend: 0x0, symName: __ZN9__gnu_cxx17__normal_iteratorIPNSt7__debug6vectorIiSaIiEEENSt9__cxx19986vectorIS4_SaIS4_EEEEC1ERKS5_, symObjAddr: 0x4884, symBinAddr: 0x1000050BC, symSize: 0x28 }
  - { offset: 0x29A1F, size: 0x8, addend: 0x0, symName: __ZSt22__uninitialized_copy_aIN9__gnu_cxx17__normal_iteratorIPKNSt7__debug6vectorIiSaIiEEENSt9__cxx19986vectorIS5_SaIS5_EEEEEPS5_S5_ET0_T_SF_SE_RSaIT1_E, symObjAddr: 0x4854, symBinAddr: 0x10000508C, symSize: 0x30 }
  - { offset: 0x29A93, size: 0x8, addend: 0x0, symName: __ZNSt9__cxx199812_Vector_baseINSt7__debug6vectorIiSaIiEEESaIS4_EE11_M_allocateEm, symObjAddr: 0x4804, symBinAddr: 0x10000503C, symSize: 0x50 }
  - { offset: 0x29B23, size: 0x8, addend: 0x0, symName: __ZN9__gnu_cxx17__normal_iteratorIPKNSt7__debug6vectorIiSaIiEEENSt9__cxx19986vectorIS4_SaIS4_EEEEC1ERKS6_, symObjAddr: 0x47DC, symBinAddr: 0x100005014, symSize: 0x28 }
  - { offset: 0x29B52, size: 0x8, addend: 0x0, symName: __ZNSt9__cxx19986vectorINSt7__debug6vectorIiSaIiEEESaIS4_EE15_M_erase_at_endEPS4_, symObjAddr: 0x4740, symBinAddr: 0x100004F78, symSize: 0x9C }
  - { offset: 0x29BE7, size: 0x8, addend: 0x0, symName: __ZNSt9__cxx19986vectorIiSaIiEE18_M_fill_initializeEmRKi, symObjAddr: 0x46E8, symBinAddr: 0x100004F20, symSize: 0x58 }
  - { offset: 0x29C69, size: 0x8, addend: 0x0, symName: __ZNSt9__cxx199812_Vector_baseIiSaIiEEC2EmRKS1_, symObjAddr: 0x4694, symBinAddr: 0x100004ECC, symSize: 0x54 }
  - { offset: 0x29C9D, size: 0x8, addend: 0x0, symName: __ZNSt9__cxx19986vectorIiSaIiEE17_S_check_init_lenEmRKS1_, symObjAddr: 0x4610, symBinAddr: 0x100004E48, symSize: 0x84 }
  - { offset: 0x29D53, size: 0x8, addend: 0x0, symName: __ZNSt9__cxx19986vectorINSt7__debug6vectorIiSaIiEEESaIS4_EE21_M_default_initializeEm, symObjAddr: 0x45C0, symBinAddr: 0x100004DF8, symSize: 0x50 }
  - { offset: 0x29DC4, size: 0x8, addend: 0x0, symName: __ZNSt9__cxx199812_Vector_baseINSt7__debug6vectorIiSaIiEEESaIS4_EEC2EmRKS5_, symObjAddr: 0x456C, symBinAddr: 0x100004DA4, symSize: 0x54 }
  - { offset: 0x29DF8, size: 0x8, addend: 0x0, symName: __ZNSt9__cxx19986vectorINSt7__debug6vectorIiSaIiEEESaIS4_EE17_S_check_init_lenEmRKS5_, symObjAddr: 0x44E8, symBinAddr: 0x100004D20, symSize: 0x84 }
  - { offset: 0x29EF2, size: 0x8, addend: 0x0, symName: __ZN11__gnu_debug16_Error_formatter10_ParameterC1INSt7__debug6vectorIxSaIxEEEEERKT_PKcNS0_12_Is_sequenceE, symObjAddr: 0x4474, symBinAddr: 0x100004CAC, symSize: 0x74 }
  - { offset: 0x29F38, size: 0x8, addend: 0x0, symName: __ZSt18uninitialized_copyIPxS0_ET0_T_S2_S1_, symObjAddr: 0x4438, symBinAddr: 0x100004C70, symSize: 0x3C }
  - { offset: 0x29FB3, size: 0x8, addend: 0x0, symName: __ZSt13__copy_move_aILb0EPxS0_ET1_T0_S2_S1_, symObjAddr: 0x43D8, symBinAddr: 0x100004C10, symSize: 0x60 }
  - { offset: 0x2A01B, size: 0x8, addend: 0x0, symName: __ZSt12__miter_baseIPxET_S1_, symObjAddr: 0x43C4, symBinAddr: 0x100004BFC, symSize: 0x14 }
  - { offset: 0x2A04E, size: 0x8, addend: 0x0, symName: __ZN11__gnu_debug13__can_advanceIPxlEEbT_RKSt4pairIT0_NS_19_Distance_precisionEEi, symObjAddr: 0x43A8, symBinAddr: 0x100004BE0, symSize: 0x1C }
  - { offset: 0x2A098, size: 0x8, addend: 0x0, symName: __ZN11__gnu_debug16_Error_formatter11_M_iteratorIPxEERS0_RKT_PKc, symObjAddr: 0x430C, symBinAddr: 0x100004B44, symSize: 0x9C }
  - { offset: 0x2A0EC, size: 0x8, addend: 0x0, symName: __ZN11__gnu_debug13__valid_rangeIPxEEbT_S2_RNS_16_Distance_traitsIS2_NSt12__is_integerIS2_E6__typeEE6__typeE, symObjAddr: 0x42E0, symBinAddr: 0x100004B18, symSize: 0x2C }
  - { offset: 0x2A13E, size: 0x8, addend: 0x0, symName: __ZSt8_DestroyIN9__gnu_cxx17__normal_iteratorIPxNSt9__cxx19986vectorIxSaIxEEEEEEvT_S8_, symObjAddr: 0x42B8, symBinAddr: 0x100004AF0, symSize: 0x28 }
  - { offset: 0x2A180, size: 0x8, addend: 0x0, symName: __ZSt13__copy_move_aILb0EN9__gnu_cxx17__normal_iteratorIPKxNSt9__cxx19986vectorIxSaIxEEEEENS1_IPxS7_EEET1_T0_SC_SB_, symObjAddr: 0x4258, symBinAddr: 0x100004A90, symSize: 0x60 }
  - { offset: 0x2A1E8, size: 0x8, addend: 0x0, symName: __ZSt12__miter_baseIN9__gnu_cxx17__normal_iteratorIPKxNSt9__cxx19986vectorIxSaIxEEEEEET_S9_, symObjAddr: 0x4244, symBinAddr: 0x100004A7C, symSize: 0x14 }
  - { offset: 0x2A21F, size: 0x8, addend: 0x0, symName: __ZN11__gnu_debug16_Error_formatter11_M_iteratorIN9__gnu_cxx17__normal_iteratorIPxNSt9__cxx19986vectorIxSaIxEEEEEEERS0_RKT_PKc, symObjAddr: 0x41A8, symBinAddr: 0x1000049E0, symSize: 0x9C }
  - { offset: 0x2A273, size: 0x8, addend: 0x0, symName: __ZN11__gnu_debug13__can_advanceIN9__gnu_cxx17__normal_iteratorIPxNSt9__cxx19986vectorIxSaIxEEEEElEEbT_RKSt4pairIT0_NS_19_Distance_precisionEEi, symObjAddr: 0x418C, symBinAddr: 0x1000049C4, symSize: 0x1C }
  - { offset: 0x2A2BD, size: 0x8, addend: 0x0, symName: __ZN11__gnu_debug16_Error_formatter11_M_iteratorIN9__gnu_cxx17__normal_iteratorIPKxNSt9__cxx19986vectorIxSaIxEEEEEEERS0_RKT_PKc, symObjAddr: 0x40F0, symBinAddr: 0x100004928, symSize: 0x9C }
  - { offset: 0x2A311, size: 0x8, addend: 0x0, symName: __ZN11__gnu_debug13__valid_rangeIN9__gnu_cxx17__normal_iteratorIPKxNSt9__cxx19986vectorIxSaIxEEEEEEEbT_SA_RNS_16_Distance_traitsISA_NSt12__is_integerISA_E6__typeEE6__typeE, symObjAddr: 0x40C4, symBinAddr: 0x1000048FC, symSize: 0x2C }
  - { offset: 0x2A38F, size: 0x8, addend: 0x0, symName: __ZN9__gnu_cxx17__normal_iteratorIPxNSt9__cxx19986vectorIxSaIxEEEEC1ERKS1_, symObjAddr: 0x409C, symBinAddr: 0x1000048D4, symSize: 0x28 }
  - { offset: 0x2A3BA, size: 0x8, addend: 0x0, symName: __ZSt22__uninitialized_copy_aIN9__gnu_cxx17__normal_iteratorIPKxNSt9__cxx19986vectorIxSaIxEEEEEPxxET0_T_SB_SA_RSaIT1_E, symObjAddr: 0x406C, symBinAddr: 0x1000048A4, symSize: 0x30 }
  - { offset: 0x2A42E, size: 0x8, addend: 0x0, symName: __ZNSt9__cxx199812_Vector_baseIxSaIxEE11_M_allocateEm, symObjAddr: 0x401C, symBinAddr: 0x100004854, symSize: 0x50 }
  - { offset: 0x2A4BE, size: 0x8, addend: 0x0, symName: __ZN9__gnu_cxx17__normal_iteratorIPKxNSt9__cxx19986vectorIxSaIxEEEEC1ERKS2_, symObjAddr: 0x3FF4, symBinAddr: 0x10000482C, symSize: 0x28 }
  - { offset: 0x2A4ED, size: 0x8, addend: 0x0, symName: __ZNSt9__cxx19986vectorIxSaIxEE15_M_erase_at_endEPx, symObjAddr: 0x3F6C, symBinAddr: 0x1000047A4, symSize: 0x88 }
  - { offset: 0x2A582, size: 0x8, addend: 0x0, symName: __ZNSt9__cxx19986vectorIxSaIxEE21_M_default_initializeEm, symObjAddr: 0x3F1C, symBinAddr: 0x100004754, symSize: 0x50 }
  - { offset: 0x2A5F3, size: 0x8, addend: 0x0, symName: __ZNSt9__cxx199812_Vector_baseIxSaIxEEC2EmRKS1_, symObjAddr: 0x3EC8, symBinAddr: 0x100004700, symSize: 0x54 }
  - { offset: 0x2A627, size: 0x8, addend: 0x0, symName: __ZNSt9__cxx19986vectorIxSaIxEE17_S_check_init_lenEmRKS1_, symObjAddr: 0x3E44, symBinAddr: 0x10000467C, symSize: 0x84 }
  - { offset: 0x2A721, size: 0x8, addend: 0x0, symName: __ZN11__gnu_debug16_Error_formatter10_ParameterC1INSt7__debug6vectorINS4_IiSaIiEEESaIS6_EEEEERKT_PKcNS0_12_Is_sequenceE, symObjAddr: 0x3DD0, symBinAddr: 0x100004608, symSize: 0x74 }
  - { offset: 0x2A7AF, size: 0x8, addend: 0x0, symName: __ZN11__gnu_debug16_Error_formatter10_ParameterC1INSt7__debug6vectorIiSaIiEEEEERKT_PKcNS0_12_Is_sequenceE, symObjAddr: 0x3D5C, symBinAddr: 0x100004594, symSize: 0x74 }
  - { offset: 0x2A7F9, size: 0x8, addend: 0x0, symName: __ZNK11__gnu_debug12_Safe_vectorINSt7__debug6vectorIiSaIiEEENSt9__cxx19986vectorIiS3_EEE6_M_seqEv, symObjAddr: 0x3D44, symBinAddr: 0x10000457C, symSize: 0x18 }
  - { offset: 0x2A81F, size: 0x8, addend: 0x0, symName: __ZSt8_DestroyIPiEvT_S1_, symObjAddr: 0x3D1C, symBinAddr: 0x100004554, symSize: 0x28 }
  - { offset: 0x2A897, size: 0x8, addend: 0x0, symName: __ZNK11__gnu_debug12_Safe_vectorINSt7__debug6vectorINS2_IiSaIiEEESaIS4_EEENSt9__cxx19986vectorIS4_S5_EEE6_M_seqEv, symObjAddr: 0x3D04, symBinAddr: 0x10000453C, symSize: 0x18 }
  - { offset: 0x2A8BD, size: 0x8, addend: 0x0, symName: __ZSt8_DestroyIPNSt7__debug6vectorIiSaIiEEEEvT_S5_, symObjAddr: 0x3CDC, symBinAddr: 0x100004514, symSize: 0x28 }
  - { offset: 0x2A935, size: 0x8, addend: 0x0, symName: __ZNK11__gnu_debug12_Safe_vectorINSt7__debug6vectorIxSaIxEEENSt9__cxx19986vectorIxS3_EEE6_M_seqEv, symObjAddr: 0x3CC4, symBinAddr: 0x1000044FC, symSize: 0x18 }
  - { offset: 0x2A95B, size: 0x8, addend: 0x0, symName: __ZSt8_DestroyIPxEvT_S1_, symObjAddr: 0x3C9C, symBinAddr: 0x1000044D4, symSize: 0x28 }
  - { offset: 0x2A9D3, size: 0x8, addend: 0x0, symName: __ZNK11__gnu_debug12_Safe_vectorINSt7__debug6vectorIiSaIiEEENSt9__cxx19986vectorIiS3_EEE24_M_requires_reallocationEm, symObjAddr: 0x3C64, symBinAddr: 0x10000449C, symSize: 0x38 }
  - { offset: 0x2AA0D, size: 0x8, addend: 0x0, symName: __ZNSt9__cxx19986vectorIiSaIiEE9push_backERKi, symObjAddr: 0x3B9C, symBinAddr: 0x1000043D4, symSize: 0xC8 }
  - { offset: 0x2AAB0, size: 0x8, addend: 0x0, symName: __ZSt22__uninitialized_copy_aIPiS0_iET0_T_S2_S1_RSaIT1_E, symObjAddr: 0x3B6C, symBinAddr: 0x1000043A4, symSize: 0x30 }
  - { offset: 0x2AB20, size: 0x8, addend: 0x0, symName: __ZSt4copyIPiS0_ET0_T_S2_S1_, symObjAddr: 0x3A0C, symBinAddr: 0x100004244, symSize: 0x160 }
  - { offset: 0x2ABFC, size: 0x8, addend: 0x0, symName: __ZNSt9__cxx19986vectorIiSaIiEE3endEv, symObjAddr: 0x39E4, symBinAddr: 0x10000421C, symSize: 0x28 }
  - { offset: 0x2AC22, size: 0x8, addend: 0x0, symName: __ZSt4copyIN9__gnu_cxx17__normal_iteratorIPKiNSt9__cxx19986vectorIiSaIiEEEEENS1_IPiS7_EEET0_T_SC_SB_, symObjAddr: 0x3880, symBinAddr: 0x1000040B8, symSize: 0x164 }
  - { offset: 0x2ACC3, size: 0x8, addend: 0x0, symName: __ZNSt9__cxx19986vectorIiSaIiEE5beginEv, symObjAddr: 0x385C, symBinAddr: 0x100004094, symSize: 0x24 }
  - { offset: 0x2ACED, size: 0x8, addend: 0x0, symName: __ZNSt9__cxx19986vectorIiSaIiEE20_M_allocate_and_copyIN9__gnu_cxx17__normal_iteratorIPKiS2_EEEEPimT_SA_, symObjAddr: 0x37D8, symBinAddr: 0x100004010, symSize: 0x84 }
  - { offset: 0x2AD64, size: 0x8, addend: 0x0, symName: __ZNKSt9__cxx19986vectorIiSaIiEE3endEv, symObjAddr: 0x37B0, symBinAddr: 0x100003FE8, symSize: 0x28 }
  - { offset: 0x2AD8E, size: 0x8, addend: 0x0, symName: __ZNKSt9__cxx19986vectorIiSaIiEE5beginEv, symObjAddr: 0x378C, symBinAddr: 0x100003FC4, symSize: 0x24 }
  - { offset: 0x2ADB8, size: 0x8, addend: 0x0, symName: __ZNKSt9__cxx19986vectorIiSaIiEE8capacityEv, symObjAddr: 0x3764, symBinAddr: 0x100003F9C, symSize: 0x28 }
  - { offset: 0x2AE0F, size: 0x8, addend: 0x0, symName: __ZNSt9__cxx19986vectorIiSaIiEE5clearEv, symObjAddr: 0x3738, symBinAddr: 0x100003F70, symSize: 0x2C }
  - { offset: 0x2AE4B, size: 0x8, addend: 0x0, symName: __ZNKSt9__cxx199812_Vector_baseIiSaIiEE19_M_get_Tp_allocatorEv, symObjAddr: 0x3724, symBinAddr: 0x100003F5C, symSize: 0x14 }
  - { offset: 0x2AE71, size: 0x8, addend: 0x0, symName: __ZSt22__uninitialized_copy_aIPNSt7__debug6vectorIiSaIiEEES4_S3_ET0_T_S6_S5_RSaIT1_E, symObjAddr: 0x36F4, symBinAddr: 0x100003F2C, symSize: 0x30 }
  - { offset: 0x2AEE1, size: 0x8, addend: 0x0, symName: __ZSt4copyIPNSt7__debug6vectorIiSaIiEEES4_ET0_T_S6_S5_, symObjAddr: 0x3594, symBinAddr: 0x100003DCC, symSize: 0x160 }
  - { offset: 0x2AFBD, size: 0x8, addend: 0x0, symName: __ZNSt9__cxx19986vectorINSt7__debug6vectorIiSaIiEEESaIS4_EE3endEv, symObjAddr: 0x356C, symBinAddr: 0x100003DA4, symSize: 0x28 }
  - { offset: 0x2AFE3, size: 0x8, addend: 0x0, symName: __ZSt4copyIN9__gnu_cxx17__normal_iteratorIPKNSt7__debug6vectorIiSaIiEEENSt9__cxx19986vectorIS5_SaIS5_EEEEENS1_IPS5_SB_EEET0_T_SG_SF_, symObjAddr: 0x3408, symBinAddr: 0x100003C40, symSize: 0x164 }
  - { offset: 0x2B086, size: 0x8, addend: 0x0, symName: __ZNSt9__cxx19986vectorINSt7__debug6vectorIiSaIiEEESaIS4_EE5beginEv, symObjAddr: 0x33E4, symBinAddr: 0x100003C1C, symSize: 0x24 }
  - { offset: 0x2B0B0, size: 0x8, addend: 0x0, symName: __ZNSt9__cxx19986vectorINSt7__debug6vectorIiSaIiEEESaIS4_EE20_M_allocate_and_copyIN9__gnu_cxx17__normal_iteratorIPKS4_S6_EEEEPS4_mT_SE_, symObjAddr: 0x3360, symBinAddr: 0x100003B98, symSize: 0x84 }
  - { offset: 0x2B127, size: 0x8, addend: 0x0, symName: __ZNKSt9__cxx19986vectorINSt7__debug6vectorIiSaIiEEESaIS4_EE3endEv, symObjAddr: 0x3338, symBinAddr: 0x100003B70, symSize: 0x28 }
  - { offset: 0x2B151, size: 0x8, addend: 0x0, symName: __ZNKSt9__cxx19986vectorINSt7__debug6vectorIiSaIiEEESaIS4_EE5beginEv, symObjAddr: 0x3314, symBinAddr: 0x100003B4C, symSize: 0x24 }
  - { offset: 0x2B17B, size: 0x8, addend: 0x0, symName: __ZNKSt9__cxx19986vectorINSt7__debug6vectorIiSaIiEEESaIS4_EE8capacityEv, symObjAddr: 0x32D8, symBinAddr: 0x100003B10, symSize: 0x3C }
  - { offset: 0x2B1D2, size: 0x8, addend: 0x0, symName: __ZNSt9__cxx19986vectorINSt7__debug6vectorIiSaIiEEESaIS4_EE5clearEv, symObjAddr: 0x32AC, symBinAddr: 0x100003AE4, symSize: 0x2C }
  - { offset: 0x2B20E, size: 0x8, addend: 0x0, symName: __ZNKSt9__cxx199812_Vector_baseINSt7__debug6vectorIiSaIiEEESaIS4_EE19_M_get_Tp_allocatorEv, symObjAddr: 0x3298, symBinAddr: 0x100003AD0, symSize: 0x14 }
  - { offset: 0x2B27C, size: 0x8, addend: 0x0, symName: __ZNSt9__cxx19986vectorIiSaIiEEC2EmRKiRKS1_, symObjAddr: 0x3228, symBinAddr: 0x100003A60, symSize: 0x70 }
  - { offset: 0x2B2FA, size: 0x8, addend: 0x0, symName: __ZN11__gnu_debug12_Safe_vectorINSt7__debug6vectorINS2_IiSaIiEEESaIS4_EEENSt9__cxx19986vectorIS4_S5_EEEC2Em, symObjAddr: 0x3204, symBinAddr: 0x100003A3C, symSize: 0x24 }
  - { offset: 0x2B35F, size: 0x8, addend: 0x0, symName: __ZNSt9__cxx19986vectorINSt7__debug6vectorIiSaIiEEESaIS4_EEC2EmRKS5_, symObjAddr: 0x319C, symBinAddr: 0x1000039D4, symSize: 0x68 }
  - { offset: 0x2B3AD, size: 0x8, addend: 0x0, symName: __ZNSt9__cxx19986vectorIxSaIxEEixEm, symObjAddr: 0x3118, symBinAddr: 0x100003950, symSize: 0x84 }
  - { offset: 0x2B403, size: 0x8, addend: 0x0, symName: __ZN11__gnu_debug16_Error_formatter11_M_sequenceINSt7__debug6vectorIxSaIxEEEEERS0_RKT_PKc, symObjAddr: 0x307C, symBinAddr: 0x1000038B4, symSize: 0x9C }
  - { offset: 0x2B457, size: 0x8, addend: 0x0, symName: __ZSt22__uninitialized_copy_aIPxS0_xET0_T_S2_S1_RSaIT1_E, symObjAddr: 0x304C, symBinAddr: 0x100003884, symSize: 0x30 }
  - { offset: 0x2B4C7, size: 0x8, addend: 0x0, symName: __ZSt4copyIPxS0_ET0_T_S2_S1_, symObjAddr: 0x2EEC, symBinAddr: 0x100003724, symSize: 0x160 }
  - { offset: 0x2B5A3, size: 0x8, addend: 0x0, symName: __ZNSt9__cxx19986vectorIxSaIxEE3endEv, symObjAddr: 0x2EC4, symBinAddr: 0x1000036FC, symSize: 0x28 }
  - { offset: 0x2B5C9, size: 0x8, addend: 0x0, symName: __ZSt4copyIN9__gnu_cxx17__normal_iteratorIPKxNSt9__cxx19986vectorIxSaIxEEEEENS1_IPxS7_EEET0_T_SC_SB_, symObjAddr: 0x2D60, symBinAddr: 0x100003598, symSize: 0x164 }
  - { offset: 0x2B66C, size: 0x8, addend: 0x0, symName: __ZNSt9__cxx19986vectorIxSaIxEE5beginEv, symObjAddr: 0x2D3C, symBinAddr: 0x100003574, symSize: 0x24 }
  - { offset: 0x2B696, size: 0x8, addend: 0x0, symName: __ZNSt9__cxx19986vectorIxSaIxEE20_M_allocate_and_copyIN9__gnu_cxx17__normal_iteratorIPKxS2_EEEEPxmT_SA_, symObjAddr: 0x2CB8, symBinAddr: 0x1000034F0, symSize: 0x84 }
  - { offset: 0x2B70D, size: 0x8, addend: 0x0, symName: __ZNKSt9__cxx19986vectorIxSaIxEE3endEv, symObjAddr: 0x2C90, symBinAddr: 0x1000034C8, symSize: 0x28 }
  - { offset: 0x2B737, size: 0x8, addend: 0x0, symName: __ZNKSt9__cxx19986vectorIxSaIxEE5beginEv, symObjAddr: 0x2C6C, symBinAddr: 0x1000034A4, symSize: 0x24 }
  - { offset: 0x2B761, size: 0x8, addend: 0x0, symName: __ZNKSt9__cxx19986vectorIxSaIxEE8capacityEv, symObjAddr: 0x2C44, symBinAddr: 0x10000347C, symSize: 0x28 }
  - { offset: 0x2B78B, size: 0x8, addend: 0x0, symName: __ZNKSt9__cxx19986vectorIxSaIxEE4sizeEv, symObjAddr: 0x2C1C, symBinAddr: 0x100003454, symSize: 0x28 }
  - { offset: 0x2B7E2, size: 0x8, addend: 0x0, symName: __ZNSt9__cxx19986vectorIxSaIxEE5clearEv, symObjAddr: 0x2BF0, symBinAddr: 0x100003428, symSize: 0x2C }
  - { offset: 0x2B81E, size: 0x8, addend: 0x0, symName: __ZNKSt9__cxx199812_Vector_baseIxSaIxEE19_M_get_Tp_allocatorEv, symObjAddr: 0x2BDC, symBinAddr: 0x100003414, symSize: 0x14 }
  - { offset: 0x2B86F, size: 0x8, addend: 0x0, symName: __ZN11__gnu_debug12_Safe_vectorINSt7__debug6vectorIxSaIxEEENSt9__cxx19986vectorIxS3_EEEC2Em, symObjAddr: 0x2BB8, symBinAddr: 0x1000033F0, symSize: 0x24 }
  - { offset: 0x2B8D4, size: 0x8, addend: 0x0, symName: __ZNSt9__cxx19986vectorIxSaIxEEC2EmRKS1_, symObjAddr: 0x2B50, symBinAddr: 0x100003388, symSize: 0x68 }
  - { offset: 0x2B922, size: 0x8, addend: 0x0, symName: __ZNSt9__cxx19986vectorINSt7__debug6vectorIiSaIiEEESaIS4_EEixEm, symObjAddr: 0x2AC0, symBinAddr: 0x1000032F8, symSize: 0x90 }
  - { offset: 0x2B967, size: 0x8, addend: 0x0, symName: __ZN11__gnu_debug16_Error_formatter11_M_sequenceINSt7__debug6vectorINS3_IiSaIiEEESaIS5_EEEEERS0_RKT_PKc, symObjAddr: 0x2A24, symBinAddr: 0x10000325C, symSize: 0x9C }
  - { offset: 0x2B9BF, size: 0x8, addend: 0x0, symName: __ZNKSt9__cxx19986vectorINSt7__debug6vectorIiSaIiEEESaIS4_EE4sizeEv, symObjAddr: 0x29E8, symBinAddr: 0x100003220, symSize: 0x3C }
  - { offset: 0x2B9E9, size: 0x8, addend: 0x0, symName: __ZNSt9__cxx19986vectorIiSaIiEEixEm, symObjAddr: 0x2964, symBinAddr: 0x10000319C, symSize: 0x84 }
  - { offset: 0x2BA3F, size: 0x8, addend: 0x0, symName: __ZN11__gnu_debug16_Error_formatter11_M_sequenceINSt7__debug6vectorIiSaIiEEEEERS0_RKT_PKc, symObjAddr: 0x28C8, symBinAddr: 0x100003100, symSize: 0x9C }
  - { offset: 0x2BA97, size: 0x8, addend: 0x0, symName: __ZN11__gnu_debug12_Safe_vectorINSt7__debug6vectorIiSaIiEEENSt9__cxx19986vectorIiS3_EEE29_M_update_guaranteed_capacityEv, symObjAddr: 0x2860, symBinAddr: 0x100003098, symSize: 0x68 }
  - { offset: 0x2BAFC, size: 0x8, addend: 0x0, symName: __ZNSt9__cxx199812_Vector_baseIiSaIiEE19_M_get_Tp_allocatorEv, symObjAddr: 0x284C, symBinAddr: 0x100003084, symSize: 0x14 }
  - { offset: 0x2BB26, size: 0x8, addend: 0x0, symName: __ZNSt9__cxx199812_Vector_baseIiSaIiEE13_M_deallocateEPim, symObjAddr: 0x27F4, symBinAddr: 0x10000302C, symSize: 0x58 }
  - { offset: 0x2BBCC, size: 0x8, addend: 0x0, symName: __ZNSt15__new_allocatorIiED2Ev, symObjAddr: 0x27E0, symBinAddr: 0x100003018, symSize: 0x14 }
  - { offset: 0x2BC0C, size: 0x8, addend: 0x0, symName: __ZNSt9__cxx199812_Vector_baseIiSaIiEE17_Vector_impl_dataC2Ev, symObjAddr: 0x27B4, symBinAddr: 0x100002FEC, symSize: 0x2C }
  - { offset: 0x2BC32, size: 0x8, addend: 0x0, symName: __ZN11__gnu_debug12_Safe_vectorINSt7__debug6vectorINS2_IiSaIiEEESaIS4_EEENSt9__cxx19986vectorIS4_S5_EEE29_M_update_guaranteed_capacityEv, symObjAddr: 0x274C, symBinAddr: 0x100002F84, symSize: 0x68 }
  - { offset: 0x2BC97, size: 0x8, addend: 0x0, symName: __ZNSt9__cxx199812_Vector_baseINSt7__debug6vectorIiSaIiEEESaIS4_EE19_M_get_Tp_allocatorEv, symObjAddr: 0x2738, symBinAddr: 0x100002F70, symSize: 0x14 }
  - { offset: 0x2BCC1, size: 0x8, addend: 0x0, symName: __ZNSt9__cxx199812_Vector_baseINSt7__debug6vectorIiSaIiEEESaIS4_EE13_M_deallocateEPS4_m, symObjAddr: 0x26E0, symBinAddr: 0x100002F18, symSize: 0x58 }
  - { offset: 0x2BD67, size: 0x8, addend: 0x0, symName: __ZNSt15__new_allocatorINSt7__debug6vectorIiSaIiEEEED2Ev, symObjAddr: 0x26CC, symBinAddr: 0x100002F04, symSize: 0x14 }
  - { offset: 0x2BDA7, size: 0x8, addend: 0x0, symName: __ZNSt9__cxx199812_Vector_baseINSt7__debug6vectorIiSaIiEEESaIS4_EE17_Vector_impl_dataC2Ev, symObjAddr: 0x26A0, symBinAddr: 0x100002ED8, symSize: 0x2C }
  - { offset: 0x2BDCD, size: 0x8, addend: 0x0, symName: __ZN11__gnu_debug12_Safe_vectorINSt7__debug6vectorIxSaIxEEENSt9__cxx19986vectorIxS3_EEE29_M_update_guaranteed_capacityEv, symObjAddr: 0x2638, symBinAddr: 0x100002E70, symSize: 0x68 }
  - { offset: 0x2BE32, size: 0x8, addend: 0x0, symName: __ZNSt9__cxx199812_Vector_baseIxSaIxEE19_M_get_Tp_allocatorEv, symObjAddr: 0x2624, symBinAddr: 0x100002E5C, symSize: 0x14 }
  - { offset: 0x2BE5C, size: 0x8, addend: 0x0, symName: __ZNSt9__cxx199812_Vector_baseIxSaIxEE13_M_deallocateEPxm, symObjAddr: 0x25CC, symBinAddr: 0x100002E04, symSize: 0x58 }
  - { offset: 0x2BF02, size: 0x8, addend: 0x0, symName: __ZNSt15__new_allocatorIxED2Ev, symObjAddr: 0x25B8, symBinAddr: 0x100002DF0, symSize: 0x14 }
  - { offset: 0x2BF42, size: 0x8, addend: 0x0, symName: __ZNSt9__cxx199812_Vector_baseIxSaIxEE17_Vector_impl_dataC2Ev, symObjAddr: 0x258C, symBinAddr: 0x100002DC4, symSize: 0x2C }
  - { offset: 0x2BF68, size: 0x8, addend: 0x0, symName: __ZNSt7__debug6vectorIiSaIiEE9push_backERKi, symObjAddr: 0x24EC, symBinAddr: 0x100002D24, symSize: 0xA0 }
  - { offset: 0x2BFCE, size: 0x8, addend: 0x0, symName: __ZN11__gnu_debug12_Safe_vectorINSt7__debug6vectorIiSaIiEEENSt9__cxx19986vectorIiS3_EEEaSERKS8_, symObjAddr: 0x24C8, symBinAddr: 0x100002D00, symSize: 0x24 }
  - { offset: 0x2C001, size: 0x8, addend: 0x0, symName: __ZNSt9__cxx19986vectorIiSaIiEEaSERKS2_, symObjAddr: 0x2180, symBinAddr: 0x1000029B8, symSize: 0x348 }
  - { offset: 0x2C185, size: 0x8, addend: 0x0, symName: __ZSt11__addressofIKNSt9__cxx19986vectorIiSaIiEEEEPT_RS5_, symObjAddr: 0x216C, symBinAddr: 0x1000029A4, symSize: 0x14 }
  - { offset: 0x2C1BB, size: 0x8, addend: 0x0, symName: __ZN11__gnu_debug15_Safe_containerINSt7__debug6vectorIiSaIiEEES3_NS_14_Safe_sequenceELb1EEaSERKS6_, symObjAddr: 0x2130, symBinAddr: 0x100002968, symSize: 0x3C }
  - { offset: 0x2C207, size: 0x8, addend: 0x0, symName: __ZN11__gnu_debug12_Safe_vectorINSt7__debug6vectorINS2_IiSaIiEEESaIS4_EEENSt9__cxx19986vectorIS4_S5_EEEaSERKSA_, symObjAddr: 0x210C, symBinAddr: 0x100002944, symSize: 0x24 }
  - { offset: 0x2C23A, size: 0x8, addend: 0x0, symName: __ZNSt9__cxx19986vectorINSt7__debug6vectorIiSaIiEEESaIS4_EEaSERKS6_, symObjAddr: 0x1D64, symBinAddr: 0x10000259C, symSize: 0x3A8 }
  - { offset: 0x2C3BE, size: 0x8, addend: 0x0, symName: __ZSt11__addressofIKNSt9__cxx19986vectorINSt7__debug6vectorIiSaIiEEESaIS5_EEEEPT_RS9_, symObjAddr: 0x1D50, symBinAddr: 0x100002588, symSize: 0x14 }
  - { offset: 0x2C3F4, size: 0x8, addend: 0x0, symName: __ZN11__gnu_debug15_Safe_containerINSt7__debug6vectorINS2_IiSaIiEEESaIS4_EEES5_NS_14_Safe_sequenceELb1EEaSERKS8_, symObjAddr: 0x1D14, symBinAddr: 0x10000254C, symSize: 0x3C }
  - { offset: 0x2C481, size: 0x8, addend: 0x0, symName: __ZNSt7__debug6vectorIiSaIiEEC1EmRKiRKS1_, symObjAddr: 0x1CA8, symBinAddr: 0x1000024E0, symSize: 0x6C }
  - { offset: 0x2C50C, size: 0x8, addend: 0x0, symName: __ZNSt7__debug6vectorINS0_IiSaIiEEESaIS2_EEC1EmRKS3_, symObjAddr: 0x1C40, symBinAddr: 0x100002478, symSize: 0x68 }
  - { offset: 0x2C55A, size: 0x8, addend: 0x0, symName: __ZNSt7__debug6vectorIxSaIxEEixEm, symObjAddr: 0x1B5C, symBinAddr: 0x100002394, symSize: 0xE4 }
  - { offset: 0x2C5B0, size: 0x8, addend: 0x0, symName: __ZN11__gnu_debug12_Safe_vectorINSt7__debug6vectorIxSaIxEEENSt9__cxx19986vectorIxS3_EEEaSERKS8_, symObjAddr: 0x1B38, symBinAddr: 0x100002370, symSize: 0x24 }
  - { offset: 0x2C5E3, size: 0x8, addend: 0x0, symName: __ZNSt9__cxx19986vectorIxSaIxEEaSERKS2_, symObjAddr: 0x17F0, symBinAddr: 0x100002028, symSize: 0x348 }
  - { offset: 0x2C767, size: 0x8, addend: 0x0, symName: __ZSt11__addressofIKNSt9__cxx19986vectorIxSaIxEEEEPT_RS5_, symObjAddr: 0x17DC, symBinAddr: 0x100002014, symSize: 0x14 }
  - { offset: 0x2C79D, size: 0x8, addend: 0x0, symName: __ZN11__gnu_debug15_Safe_containerINSt7__debug6vectorIxSaIxEEES3_NS_14_Safe_sequenceELb1EEaSERKS6_, symObjAddr: 0x17A0, symBinAddr: 0x100001FD8, symSize: 0x3C }
  - { offset: 0x2C81D, size: 0x8, addend: 0x0, symName: __ZNSt7__debug6vectorIxSaIxEEC1EmRKS1_, symObjAddr: 0x1738, symBinAddr: 0x100001F70, symSize: 0x68 }
  - { offset: 0x2C86B, size: 0x8, addend: 0x0, symName: __ZNKSt9__cxx19986vectorIiSaIiEE4sizeEv, symObjAddr: 0x1710, symBinAddr: 0x100001F48, symSize: 0x28 }
  - { offset: 0x2C895, size: 0x8, addend: 0x0, symName: __ZNSt7__debug6vectorINS0_IiSaIiEEESaIS2_EEixEm, symObjAddr: 0x162C, symBinAddr: 0x100001E64, symSize: 0xE4 }
  - { offset: 0x2C8ED, size: 0x8, addend: 0x0, symName: __ZNSt7__debug6vectorIiSaIiEEixEm, symObjAddr: 0x1548, symBinAddr: 0x100001D80, symSize: 0xE4 }
  - { offset: 0x2C95D, size: 0x8, addend: 0x0, symName: __ZN11__gnu_debug12_Safe_vectorINSt7__debug6vectorIiSaIiEEENSt9__cxx19986vectorIiS3_EEEC2Ev, symObjAddr: 0x1520, symBinAddr: 0x100001D58, symSize: 0x28 }
  - { offset: 0x2C9A7, size: 0x8, addend: 0x0, symName: __ZNSt9__cxx19986vectorIiSaIiEED2Ev, symObjAddr: 0x14C4, symBinAddr: 0x100001CFC, symSize: 0x5C }
  - { offset: 0x2CA27, size: 0x8, addend: 0x0, symName: __ZNSt9__cxx199812_Vector_baseIiSaIiEED2Ev, symObjAddr: 0x1474, symBinAddr: 0x100001CAC, symSize: 0x50 }
  - { offset: 0x2CA87, size: 0x8, addend: 0x0, symName: __ZNSt9__cxx199812_Vector_baseIiSaIiEE12_Vector_implC1Ev, symObjAddr: 0x143C, symBinAddr: 0x100001C74, symSize: 0x38 }
  - { offset: 0x2CB0D, size: 0x8, addend: 0x0, symName: __ZN11__gnu_debug12_Safe_vectorINSt7__debug6vectorINS2_IiSaIiEEESaIS4_EEENSt9__cxx19986vectorIS4_S5_EEEC2Ev, symObjAddr: 0x1414, symBinAddr: 0x100001C4C, symSize: 0x28 }
  - { offset: 0x2CB57, size: 0x8, addend: 0x0, symName: __ZNSt9__cxx19986vectorINSt7__debug6vectorIiSaIiEEESaIS4_EED2Ev, symObjAddr: 0x13B8, symBinAddr: 0x100001BF0, symSize: 0x5C }
  - { offset: 0x2CBD7, size: 0x8, addend: 0x0, symName: __ZNSt9__cxx199812_Vector_baseINSt7__debug6vectorIiSaIiEEESaIS4_EED2Ev, symObjAddr: 0x1354, symBinAddr: 0x100001B8C, symSize: 0x64 }
  - { offset: 0x2CC37, size: 0x8, addend: 0x0, symName: __ZNSt9__cxx199812_Vector_baseINSt7__debug6vectorIiSaIiEEESaIS4_EE12_Vector_implC1Ev, symObjAddr: 0x131C, symBinAddr: 0x100001B54, symSize: 0x38 }
  - { offset: 0x2CCBD, size: 0x8, addend: 0x0, symName: __ZN11__gnu_debug12_Safe_vectorINSt7__debug6vectorIxSaIxEEENSt9__cxx19986vectorIxS3_EEEC2Ev, symObjAddr: 0x12F4, symBinAddr: 0x100001B2C, symSize: 0x28 }
  - { offset: 0x2CD07, size: 0x8, addend: 0x0, symName: __ZNSt9__cxx19986vectorIxSaIxEED2Ev, symObjAddr: 0x1298, symBinAddr: 0x100001AD0, symSize: 0x5C }
  - { offset: 0x2CD87, size: 0x8, addend: 0x0, symName: __ZNSt9__cxx199812_Vector_baseIxSaIxEED2Ev, symObjAddr: 0x1248, symBinAddr: 0x100001A80, symSize: 0x50 }
  - { offset: 0x2CDE7, size: 0x8, addend: 0x0, symName: __ZNSt9__cxx199812_Vector_baseIxSaIxEE12_Vector_implC1Ev, symObjAddr: 0x1210, symBinAddr: 0x100001A48, symSize: 0x38 }
  - { offset: 0x2CE4F, size: 0x8, addend: 0x0, symName: __ZSt3maxImERKT_S2_S2_, symObjAddr: 0x11D8, symBinAddr: 0x100001A10, symSize: 0x38 }
  - { offset: 0x2CE9A, size: 0x8, addend: 0x0, symName: _main, symObjAddr: 0x11A4, symBinAddr: 0x1000019DC, symSize: 0x34 }
  - { offset: 0x2CEB9, size: 0x8, addend: 0x0, symName: __Z5solvev, symObjAddr: 0xB54, symBinAddr: 0x10000138C, symSize: 0x650 }
  - { offset: 0x2D27C, size: 0x8, addend: 0x0, symName: __ZNSt7__debug6vectorIiSaIiEEaSERKS2_, symObjAddr: 0xAF4, symBinAddr: 0x10000132C, symSize: 0x60 }
  - { offset: 0x2D2AF, size: 0x8, addend: 0x0, symName: __ZNSt7__debug6vectorINS0_IiSaIiEEESaIS2_EEaSERKS4_, symObjAddr: 0xA94, symBinAddr: 0x1000012CC, symSize: 0x60 }
  - { offset: 0x2D306, size: 0x8, addend: 0x0, symName: __ZNSt7__debug6vectorIiSaIiEED1Ev, symObjAddr: 0xA68, symBinAddr: 0x1000012A0, symSize: 0x2C }
  - { offset: 0x2D350, size: 0x8, addend: 0x0, symName: __ZNSt7__debug6vectorINS0_IiSaIiEEESaIS2_EED1Ev, symObjAddr: 0xA3C, symBinAddr: 0x100001274, symSize: 0x2C }
  - { offset: 0x2D376, size: 0x8, addend: 0x0, symName: __ZNSt7__debug6vectorIxSaIxEEaSERKS2_, symObjAddr: 0x9DC, symBinAddr: 0x100001214, symSize: 0x60 }
  - { offset: 0x2D3CD, size: 0x8, addend: 0x0, symName: __ZNSt7__debug6vectorIxSaIxEED1Ev, symObjAddr: 0x9B0, symBinAddr: 0x1000011E8, symSize: 0x2C }
  - { offset: 0x2D3FA, size: 0x8, addend: 0x0, symName: __Z3dfsii, symObjAddr: 0x74C, symBinAddr: 0x100000F84, symSize: 0x264 }
  - { offset: 0x2D4A7, size: 0x8, addend: 0x0, symName: __ZNSt7__debug6vectorIiSaIiEEC1Ev, symObjAddr: 0x714, symBinAddr: 0x100000F4C, symSize: 0x38 }
  - { offset: 0x2D4E7, size: 0x8, addend: 0x0, symName: __ZNSt9__cxx19986vectorIiSaIiEEC2Ev, symObjAddr: 0x6F4, symBinAddr: 0x100000F2C, symSize: 0x20 }
  - { offset: 0x2D527, size: 0x8, addend: 0x0, symName: __ZNSt9__cxx199812_Vector_baseIiSaIiEEC2Ev, symObjAddr: 0x6D4, symBinAddr: 0x100000F0C, symSize: 0x20 }
  - { offset: 0x2D574, size: 0x8, addend: 0x0, symName: __ZNSt9__cxx199812_Vector_baseIiSaIiEE12_Vector_implD1Ev, symObjAddr: 0x6A8, symBinAddr: 0x100000EE0, symSize: 0x2C }
  - { offset: 0x2D5E4, size: 0x8, addend: 0x0, symName: __ZN11__gnu_debug15_Safe_containerINSt7__debug6vectorIiSaIiEEES3_NS_14_Safe_sequenceELb1EED2Ev, symObjAddr: 0x688, symBinAddr: 0x100000EC0, symSize: 0x20 }
  - { offset: 0x2D624, size: 0x8, addend: 0x0, symName: __ZN11__gnu_debug15_Safe_containerINSt7__debug6vectorIiSaIiEEES3_NS_14_Safe_sequenceELb1EEC2Ev, symObjAddr: 0x668, symBinAddr: 0x100000EA0, symSize: 0x20 }
  - { offset: 0x2D671, size: 0x8, addend: 0x0, symName: __ZN11__gnu_debug14_Safe_sequenceINSt7__debug6vectorIiSaIiEEEED2Ev, symObjAddr: 0x648, symBinAddr: 0x100000E80, symSize: 0x20 }
  - { offset: 0x2D6B4, size: 0x8, addend: 0x0, symName: __ZN11__gnu_debug14_Safe_sequenceINSt7__debug6vectorIiSaIiEEEEC2Ev, symObjAddr: 0x628, symBinAddr: 0x100000E60, symSize: 0x20 }
  - { offset: 0x2D6F4, size: 0x8, addend: 0x0, symName: __ZNSt7__debug6vectorINS0_IiSaIiEEESaIS2_EEC1Ev, symObjAddr: 0x5F0, symBinAddr: 0x100000E28, symSize: 0x38 }
  - { offset: 0x2D734, size: 0x8, addend: 0x0, symName: __ZNSt9__cxx19986vectorINSt7__debug6vectorIiSaIiEEESaIS4_EEC2Ev, symObjAddr: 0x5D0, symBinAddr: 0x100000E08, symSize: 0x20 }
  - { offset: 0x2D774, size: 0x8, addend: 0x0, symName: __ZNSt9__cxx199812_Vector_baseINSt7__debug6vectorIiSaIiEEESaIS4_EEC2Ev, symObjAddr: 0x5B0, symBinAddr: 0x100000DE8, symSize: 0x20 }
  - { offset: 0x2D7C1, size: 0x8, addend: 0x0, symName: __ZNSt9__cxx199812_Vector_baseINSt7__debug6vectorIiSaIiEEESaIS4_EE12_Vector_implD1Ev, symObjAddr: 0x584, symBinAddr: 0x100000DBC, symSize: 0x2C }
  - { offset: 0x2D831, size: 0x8, addend: 0x0, symName: __ZN11__gnu_debug15_Safe_containerINSt7__debug6vectorINS2_IiSaIiEEESaIS4_EEES5_NS_14_Safe_sequenceELb1EED2Ev, symObjAddr: 0x564, symBinAddr: 0x100000D9C, symSize: 0x20 }
  - { offset: 0x2D871, size: 0x8, addend: 0x0, symName: __ZN11__gnu_debug15_Safe_containerINSt7__debug6vectorINS2_IiSaIiEEESaIS4_EEES5_NS_14_Safe_sequenceELb1EEC2Ev, symObjAddr: 0x544, symBinAddr: 0x100000D7C, symSize: 0x20 }
  - { offset: 0x2D8C9, size: 0x8, addend: 0x0, symName: __ZN11__gnu_debug14_Safe_sequenceINSt7__debug6vectorINS2_IiSaIiEEESaIS4_EEEED2Ev, symObjAddr: 0x524, symBinAddr: 0x100000D5C, symSize: 0x20 }
  - { offset: 0x2D90C, size: 0x8, addend: 0x0, symName: __ZN11__gnu_debug14_Safe_sequenceINSt7__debug6vectorINS2_IiSaIiEEESaIS4_EEEEC2Ev, symObjAddr: 0x504, symBinAddr: 0x100000D3C, symSize: 0x20 }
  - { offset: 0x2D94C, size: 0x8, addend: 0x0, symName: __ZNSt7__debug6vectorIxSaIxEEC1Ev, symObjAddr: 0x4CC, symBinAddr: 0x100000D04, symSize: 0x38 }
  - { offset: 0x2D98C, size: 0x8, addend: 0x0, symName: __ZNSt9__cxx19986vectorIxSaIxEEC2Ev, symObjAddr: 0x4AC, symBinAddr: 0x100000CE4, symSize: 0x20 }
  - { offset: 0x2D9CC, size: 0x8, addend: 0x0, symName: __ZNSt9__cxx199812_Vector_baseIxSaIxEEC2Ev, symObjAddr: 0x48C, symBinAddr: 0x100000CC4, symSize: 0x20 }
  - { offset: 0x2DA19, size: 0x8, addend: 0x0, symName: __ZNSt9__cxx199812_Vector_baseIxSaIxEE12_Vector_implD1Ev, symObjAddr: 0x460, symBinAddr: 0x100000C98, symSize: 0x2C }
  - { offset: 0x2DA89, size: 0x8, addend: 0x0, symName: __ZN11__gnu_debug15_Safe_containerINSt7__debug6vectorIxSaIxEEES3_NS_14_Safe_sequenceELb1EED2Ev, symObjAddr: 0x440, symBinAddr: 0x100000C78, symSize: 0x20 }
  - { offset: 0x2DAC9, size: 0x8, addend: 0x0, symName: __ZN11__gnu_debug15_Safe_containerINSt7__debug6vectorIxSaIxEEES3_NS_14_Safe_sequenceELb1EEC2Ev, symObjAddr: 0x420, symBinAddr: 0x100000C58, symSize: 0x20 }
  - { offset: 0x2DB21, size: 0x8, addend: 0x0, symName: __ZN11__gnu_debug14_Safe_sequenceINSt7__debug6vectorIxSaIxEEEED2Ev, symObjAddr: 0x400, symBinAddr: 0x100000C38, symSize: 0x20 }
  - { offset: 0x2DB64, size: 0x8, addend: 0x0, symName: __ZN11__gnu_debug14_Safe_sequenceINSt7__debug6vectorIxSaIxEEEEC2Ev, symObjAddr: 0x3E0, symBinAddr: 0x100000C18, symSize: 0x20 }
  - { offset: 0x2DB86, size: 0x8, addend: 0x0, symName: __ZSt3minImERKT_S2_S2_, symObjAddr: 0x3A8, symBinAddr: 0x100000BE0, symSize: 0x38 }
  - { offset: 0x2DBCC, size: 0x8, addend: 0x0, symName: __ZNK11__gnu_debug19_Safe_sequence_base17_M_invalidate_allEv, symObjAddr: 0x354, symBinAddr: 0x100000B8C, symSize: 0x54 }
  - { offset: 0x2DC1A, size: 0x8, addend: 0x0, symName: __ZN11__gnu_debug19_Safe_sequence_baseD2Ev, symObjAddr: 0x31C, symBinAddr: 0x100000B54, symSize: 0x38 }
  - { offset: 0x2DC78, size: 0x8, addend: 0x0, symName: __ZN11__gnu_debug19_Safe_sequence_baseC2ERKS0_, symObjAddr: 0x2F8, symBinAddr: 0x100000B30, symSize: 0x24 }
  - { offset: 0x2DCC1, size: 0x8, addend: 0x0, symName: __ZN11__gnu_debug19_Safe_sequence_baseC1Ev, symObjAddr: 0x2C8, symBinAddr: 0x100000B00, symSize: 0x30 }
  - { offset: 0x2DCEB, size: 0x8, addend: 0x0, symName: __ZN11__gnu_debug19_Safe_sequence_baseC2Ev, symObjAddr: 0x298, symBinAddr: 0x100000AD0, symSize: 0x30 }
  - { offset: 0x2DD14, size: 0x8, addend: 0x0, symName: __ZdlPvS_, symObjAddr: 0x280, symBinAddr: 0x100000AB8, symSize: 0x18 }
  - { offset: 0x2DD4A, size: 0x8, addend: 0x0, symName: __ZnwmPv, symObjAddr: 0x268, symBinAddr: 0x100000AA0, symSize: 0x18 }
  - { offset: 0x2DD7C, size: 0x8, addend: 0x0, symName: __ZSt17__size_to_integerm, symObjAddr: 0x254, symBinAddr: 0x100000A8C, symSize: 0x14 }
  - { offset: 0x2DDA6, size: 0x8, addend: 0x0, symName: __ZN11__gnu_debug16_Error_formatter5_S_atEPKcjS2_, symObjAddr: 0x1C0, symBinAddr: 0x1000009F8, symSize: 0x94 }
  - { offset: 0x2DDFF, size: 0x8, addend: 0x0, symName: __ZZN11__gnu_debug16_Error_formatter5_S_atEPKcjS2_E11__formatter, symObjAddr: 0x8C78, symBinAddr: 0x100018000, symSize: 0x0 }
  - { offset: 0x2DE56, size: 0x8, addend: 0x0, symName: __ZN11__gnu_debug16_Error_formatterC1EPKcjS2_, symObjAddr: 0x134, symBinAddr: 0x10000096C, symSize: 0x8C }
  - { offset: 0x2DE97, size: 0x8, addend: 0x0, symName: __ZN11__gnu_debug16_Error_formatter10_M_integerElPKc, symObjAddr: 0x98, symBinAddr: 0x1000008D0, symSize: 0x9C }
  - { offset: 0x2DF1C, size: 0x8, addend: 0x0, symName: __ZN11__gnu_debug16_Error_formatter10_ParameterC1ElPKc, symObjAddr: 0x44, symBinAddr: 0x10000087C, symSize: 0x54 }
  - { offset: 0x2DF6E, size: 0x8, addend: 0x0, symName: __ZN11__gnu_debug16_Error_formatter10_ParameterC1Ev, symObjAddr: 0x14, symBinAddr: 0x10000084C, symSize: 0x30 }
  - { offset: 0x2DF90, size: 0x8, addend: 0x0, symName: __ZN11__gnu_debug20__check_singular_auxEPKv, symObjAddr: 0x0, symBinAddr: 0x100000838, symSize: 0x14 }
...
